TN:
SF:/usr/include/c++/9/bits/move.h
FN:47,_ZSt11__addressofINSt8__detail10_Hash_nodeISt4pairIKNSt7__cxx1112basic_stringIcSt11char_traitsIcESaIcEEESt6vectorIN9assembler11OperandTypeESaISC_EEELb1EEEEPT_RSH_
FNDA:0,_ZSt11__addressofINSt8__detail10_Hash_nodeISt4pairIKNSt7__cxx1112basic_stringIcSt11char_traitsIcESaIcEEESt6vectorIN9assembler11OperandTypeESaISC_EEELb1EEEEPT_RSH_
FN:47,_ZSt11__addressofINSt8__detail10_Hash_nodeISt4pairIKNSt7__cxx1112basic_stringIcSt11char_traitsIcESaIcEEEiELb1EEEEPT_RSC_
FNDA:0,_ZSt11__addressofINSt8__detail10_Hash_nodeISt4pairIKNSt7__cxx1112basic_stringIcSt11char_traitsIcESaIcEEEiELb1EEEEPT_RSC_
FN:47,_ZSt11__addressofINSt7__cxx1112basic_stringIcSt11char_traitsIcESaIcEEEEPT_RS6_
FNDA:0,_ZSt11__addressofINSt7__cxx1112basic_stringIcSt11char_traitsIcESaIcEEEEPT_RS6_
FN:47,_ZSt11__addressofIPNSt8__detail15_Hash_node_baseEEPT_RS3_
FNDA:0,_ZSt11__addressofIPNSt8__detail15_Hash_node_baseEEPT_RS3_
FN:47,_ZSt11__addressofINSt8__detail10_Hash_nodeISt4pairIKNSt7__cxx1112basic_stringIcSt11char_traitsIcESaIcEEESt5arrayIiLm4EEELb1EEEEPT_RSE_
FNDA:0,_ZSt11__addressofINSt8__detail10_Hash_nodeISt4pairIKNSt7__cxx1112basic_stringIcSt11char_traitsIcESaIcEEESt5arrayIiLm4EEELb1EEEEPT_RSE_
FN:74,_ZSt7forwardIRKSt8equal_toINSt7__cxx1112basic_stringIcSt11char_traitsIcESaIcEEEEEOT_RNSt16remove_referenceISA_E4typeE
FNDA:0,_ZSt7forwardIRKSt8equal_toINSt7__cxx1112basic_stringIcSt11char_traitsIcESaIcEEEEEOT_RNSt16remove_referenceISA_E4typeE
FN:74,_ZSt7forwardIiEOT_RNSt16remove_referenceIS0_E4typeE
FNDA:0,_ZSt7forwardIiEOT_RNSt16remove_referenceIS0_E4typeE
FN:74,_ZSt7forwardIRA4_KcEOT_RNSt16remove_referenceIS3_E4typeE
FNDA:0,_ZSt7forwardIRA4_KcEOT_RNSt16remove_referenceIS3_E4typeE
FN:74,_ZSt7forwardIbEOT_RNSt16remove_referenceIS0_E4typeE
FNDA:0,_ZSt7forwardIbEOT_RNSt16remove_referenceIS0_E4typeE
FN:74,_ZSt7forwardINSt7__cxx1112basic_stringIcSt11char_traitsIcESaIcEEEEOT_RNSt16remove_referenceIS6_E4typeE
FNDA:0,_ZSt7forwardINSt7__cxx1112basic_stringIcSt11char_traitsIcESaIcEEEEOT_RNSt16remove_referenceIS6_E4typeE
FN:74,_ZSt7forwardISaINSt8__detail10_Hash_nodeISt4pairIKNSt7__cxx1112basic_stringIcSt11char_traitsIcESaIcEEEiELb1EEEEEOT_RNSt16remove_referenceISD_E4typeE
FNDA:0,_ZSt7forwardISaINSt8__detail10_Hash_nodeISt4pairIKNSt7__cxx1112basic_stringIcSt11char_traitsIcESaIcEEEiELb1EEEEEOT_RNSt16remove_referenceISD_E4typeE
FN:74,_ZSt7forwardIRKSt4pairIKNSt7__cxx1112basic_stringIcSt11char_traitsIcESaIcEEEiEEOT_RNSt16remove_referenceISB_E4typeE
FNDA:0,_ZSt7forwardIRKSt4pairIKNSt7__cxx1112basic_stringIcSt11char_traitsIcESaIcEEEiEEOT_RNSt16remove_referenceISB_E4typeE
FN:74,_ZSt7forwardISaINSt8__detail10_Hash_nodeISt4pairIKNSt7__cxx1112basic_stringIcSt11char_traitsIcESaIcEEESt6vectorIN9assembler11OperandTypeESaISC_EEELb1EEEEEOT_RNSt16remove_referenceISI_E4typeE
FNDA:0,_ZSt7forwardISaINSt8__detail10_Hash_nodeISt4pairIKNSt7__cxx1112basic_stringIcSt11char_traitsIcESaIcEEESt6vectorIN9assembler11OperandTypeESaISC_EEELb1EEEEEOT_RNSt16remove_referenceISI_E4typeE
FN:74,_ZSt7forwardIRKSt4pairIKNSt7__cxx1112basic_stringIcSt11char_traitsIcESaIcEEESt6vectorIN9assembler11OperandTypeESaISA_EEEEOT_RNSt16remove_referenceISG_E4typeE
FNDA:0,_ZSt7forwardIRKSt4pairIKNSt7__cxx1112basic_stringIcSt11char_traitsIcESaIcEEESt6vectorIN9assembler11OperandTypeESaISA_EEEEOT_RNSt16remove_referenceISG_E4typeE
FN:74,_ZSt7forwardISaINSt8__detail10_Hash_nodeISt4pairIKNSt7__cxx1112basic_stringIcSt11char_traitsIcESaIcEEESt5arrayIiLm4EEELb1EEEEEOT_RNSt16remove_referenceISF_E4typeE
FNDA:0,_ZSt7forwardISaINSt8__detail10_Hash_nodeISt4pairIKNSt7__cxx1112basic_stringIcSt11char_traitsIcESaIcEEESt5arrayIiLm4EEELb1EEEEEOT_RNSt16remove_referenceISF_E4typeE
FN:74,_ZSt7forwardIRKSt4pairIKNSt7__cxx1112basic_stringIcSt11char_traitsIcESaIcEEESt5arrayIiLm4EEEEOT_RNSt16remove_referenceISD_E4typeE
FNDA:0,_ZSt7forwardIRKSt4pairIKNSt7__cxx1112basic_stringIcSt11char_traitsIcESaIcEEESt5arrayIiLm4EEEEOT_RNSt16remove_referenceISD_E4typeE
FN:74,_ZSt7forwardINSt8__detail14_Node_iteratorISt4pairIKNSt7__cxx1112basic_stringIcSt11char_traitsIcESaIcEEEiELb0ELb1EEEEOT_RNSt16remove_referenceISC_E4typeE
FNDA:0,_ZSt7forwardINSt8__detail14_Node_iteratorISt4pairIKNSt7__cxx1112basic_stringIcSt11char_traitsIcESaIcEEEiELb0ELb1EEEEOT_RNSt16remove_referenceISC_E4typeE
FN:74,_ZSt7forwardINSt8__detail14_Node_iteratorISt4pairIKNSt7__cxx1112basic_stringIcSt11char_traitsIcESaIcEEESt6vectorIN9assembler11OperandTypeESaISC_EEELb0ELb1EEEEOT_RNSt16remove_referenceISH_E4typeE
FNDA:0,_ZSt7forwardINSt8__detail14_Node_iteratorISt4pairIKNSt7__cxx1112basic_stringIcSt11char_traitsIcESaIcEEESt6vectorIN9assembler11OperandTypeESaISC_EEELb0ELb1EEEEOT_RNSt16remove_referenceISH_E4typeE
FN:74,_ZSt7forwardINSt8__detail14_Node_iteratorISt4pairIKNSt7__cxx1112basic_stringIcSt11char_traitsIcESaIcEEESt5arrayIiLm4EEELb0ELb1EEEEOT_RNSt16remove_referenceISE_E4typeE
FNDA:0,_ZSt7forwardINSt8__detail14_Node_iteratorISt4pairIKNSt7__cxx1112basic_stringIcSt11char_traitsIcESaIcEEESt5arrayIiLm4EEELb0ELb1EEEEOT_RNSt16remove_referenceISE_E4typeE
FN:74,_ZSt7forwardIRKNSt8__detail10_Select1stEEOT_RNSt16remove_referenceIS4_E4typeE
FNDA:0,_ZSt7forwardIRKNSt8__detail10_Select1stEEOT_RNSt16remove_referenceIS4_E4typeE
FN:74,_ZSt7forwardIRKSt4hashINSt7__cxx1112basic_stringIcSt11char_traitsIcESaIcEEEEEOT_RNSt16remove_referenceISA_E4typeE
FNDA:0,_ZSt7forwardIRKSt4hashINSt7__cxx1112basic_stringIcSt11char_traitsIcESaIcEEEEEOT_RNSt16remove_referenceISA_E4typeE
FN:74,_ZSt7forwardIRKNSt8__detail18_Mod_range_hashingEEOT_RNSt16remove_referenceIS4_E4typeE
FNDA:0,_ZSt7forwardIRKNSt8__detail18_Mod_range_hashingEEOT_RNSt16remove_referenceIS4_E4typeE
FN:74,_ZSt7forwardIRSt4pairIKNSt7__cxx1112basic_stringIcSt11char_traitsIcESaIcEEEiEEOT_RNSt16remove_referenceISA_E4typeE
FNDA:0,_ZSt7forwardIRSt4pairIKNSt7__cxx1112basic_stringIcSt11char_traitsIcESaIcEEEiEEOT_RNSt16remove_referenceISA_E4typeE
FN:74,_ZSt7forwardIRSt4pairIKNSt7__cxx1112basic_stringIcSt11char_traitsIcESaIcEEESt6vectorIN9assembler11OperandTypeESaISA_EEEEOT_RNSt16remove_referenceISF_E4typeE
FNDA:0,_ZSt7forwardIRSt4pairIKNSt7__cxx1112basic_stringIcSt11char_traitsIcESaIcEEESt6vectorIN9assembler11OperandTypeESaISA_EEEEOT_RNSt16remove_referenceISF_E4typeE
FN:74,_ZSt7forwardIRSt4pairIKNSt7__cxx1112basic_stringIcSt11char_traitsIcESaIcEEESt5arrayIiLm4EEEEOT_RNSt16remove_referenceISC_E4typeE
FNDA:0,_ZSt7forwardIRSt4pairIKNSt7__cxx1112basic_stringIcSt11char_traitsIcESaIcEEESt5arrayIiLm4EEEEOT_RNSt16remove_referenceISC_E4typeE
FN:99,_ZSt4moveIRiEONSt16remove_referenceIT_E4typeEOS2_
FNDA:0,_ZSt4moveIRiEONSt16remove_referenceIT_E4typeEOS2_
FN:99,_ZSt4moveIRNSt7__cxx1112basic_stringIcSt11char_traitsIcESaIcEEEEONSt16remove_referenceIT_E4typeEOS8_
FNDA:0,_ZSt4moveIRNSt7__cxx1112basic_stringIcSt11char_traitsIcESaIcEEEEONSt16remove_referenceIT_E4typeEOS8_
FN:99,_ZSt4moveIRSaIcEEONSt16remove_referenceIT_E4typeEOS3_
FNDA:0,_ZSt4moveIRSaIcEEONSt16remove_referenceIT_E4typeEOS3_
FN:138,_ZSt9addressofINSt8__detail10_Hash_nodeISt4pairIKNSt7__cxx1112basic_stringIcSt11char_traitsIcESaIcEEEiELb1EEEEPT_RSC_
FNDA:0,_ZSt9addressofINSt8__detail10_Hash_nodeISt4pairIKNSt7__cxx1112basic_stringIcSt11char_traitsIcESaIcEEEiELb1EEEEPT_RSC_
FN:138,_ZSt9addressofINSt8__detail10_Hash_nodeISt4pairIKNSt7__cxx1112basic_stringIcSt11char_traitsIcESaIcEEESt6vectorIN9assembler11OperandTypeESaISC_EEELb1EEEEPT_RSH_
FNDA:0,_ZSt9addressofINSt8__detail10_Hash_nodeISt4pairIKNSt7__cxx1112basic_stringIcSt11char_traitsIcESaIcEEESt6vectorIN9assembler11OperandTypeESaISC_EEELb1EEEEPT_RSH_
FN:138,_ZSt9addressofIPNSt8__detail15_Hash_node_baseEEPT_RS3_
FNDA:0,_ZSt9addressofIPNSt8__detail15_Hash_node_baseEEPT_RS3_
FN:138,_ZSt9addressofINSt8__detail10_Hash_nodeISt4pairIKNSt7__cxx1112basic_stringIcSt11char_traitsIcESaIcEEESt5arrayIiLm4EEELb1EEEEPT_RSE_
FNDA:0,_ZSt9addressofINSt8__detail10_Hash_nodeISt4pairIKNSt7__cxx1112basic_stringIcSt11char_traitsIcESaIcEEESt5arrayIiLm4EEELb1EEEEPT_RSE_
DA:47,0
DA:48,0
DA:47,0
DA:48,0
DA:47,0
DA:48,0
DA:47,0
DA:48,0
DA:47,0
DA:48,0
DA:74,0
DA:75,0
DA:74,0
DA:75,0
DA:74,0
DA:75,0
DA:74,0
DA:75,0
DA:74,0
DA:75,0
DA:74,0
DA:75,0
DA:74,0
DA:75,0
DA:74,0
DA:75,0
DA:74,0
DA:75,0
DA:74,0
DA:75,0
DA:74,0
DA:75,0
DA:74,0
DA:75,0
DA:74,0
DA:75,0
DA:74,0
DA:75,0
DA:74,0
DA:75,0
DA:74,0
DA:75,0
DA:74,0
DA:75,0
DA:74,0
DA:75,0
DA:74,0
DA:75,0
DA:74,0
DA:75,0
DA:99,0
DA:100,0
DA:99,0
DA:100,0
DA:99,0
DA:100,0
DA:138,0
DA:139,0
DA:138,0
DA:139,0
DA:138,0
DA:139,0
DA:138,0
DA:139,0
end_of_record
SF:/usr/include/c++/9/ext/alloc_traits.h
FN:97,_ZN9__gnu_cxx14__alloc_traitsISaIN9assembler11OperandTypeEES2_E17_S_select_on_copyERKS3_
FNDA:0,_ZN9__gnu_cxx14__alloc_traitsISaIN9assembler11OperandTypeEES2_E17_S_select_on_copyERKS3_
FN:97,_ZN9__gnu_cxx14__alloc_traitsISaIcEcE17_S_select_on_copyERKS1_
FNDA:0,_ZN9__gnu_cxx14__alloc_traitsISaIcEcE17_S_select_on_copyERKS1_
DA:97,0
DA:98,0
DA:97,0
DA:98,0
end_of_record
SF:/usr/include/c++/9/bits/stl_pair.h
FN:303,_ZNSt4pairIKNSt7__cxx1112basic_stringIcSt11char_traitsIcESaIcEEESt5arrayIiLm4EEEC2ERKS9_
FNDA:0,_ZNSt4pairIKNSt7__cxx1112basic_stringIcSt11char_traitsIcESaIcEEESt5arrayIiLm4EEEC2ERKS9_
FN:303,_ZNSt4pairIKNSt7__cxx1112basic_stringIcSt11char_traitsIcESaIcEEESt6vectorIN9assembler11OperandTypeESaIS9_EEEC2ERKSC_
FNDA:0,_ZNSt4pairIKNSt7__cxx1112basic_stringIcSt11char_traitsIcESaIcEEESt6vectorIN9assembler11OperandTypeESaIS9_EEEC2ERKSC_
FN:303,_ZNSt4pairIKNSt7__cxx1112basic_stringIcSt11char_traitsIcESaIcEEEiEC2ERKS7_
FNDA:0,_ZNSt4pairIKNSt7__cxx1112basic_stringIcSt11char_traitsIcESaIcEEEiEC2ERKS7_
FN:311,_ZNSt4pairIKNSt7__cxx1112basic_stringIcSt11char_traitsIcESaIcEEESt6vectorIN9assembler11OperandTypeESaIS9_EEEC2IRA4_KcLb1EEEOT_RKSB_
FNDA:0,_ZNSt4pairIKNSt7__cxx1112basic_stringIcSt11char_traitsIcESaIcEEESt6vectorIN9assembler11OperandTypeESaIS9_EEEC2IRA4_KcLb1EEEOT_RKSB_
FN:311,_ZNSt4pairIKNSt7__cxx1112basic_stringIcSt11char_traitsIcESaIcEEESt5arrayIiLm4EEEC1IRA4_KcLb1EEEOT_RKS8_
FNDA:0,_ZNSt4pairIKNSt7__cxx1112basic_stringIcSt11char_traitsIcESaIcEEESt5arrayIiLm4EEEC1IRA4_KcLb1EEEOT_RKS8_
FN:341,_ZNSt4pairINSt8__detail14_Node_iteratorIS_IKNSt7__cxx1112basic_stringIcSt11char_traitsIcESaIcEEESt5arrayIiLm4EEELb0ELb1EEEbEC2ISC_bLb1EEEOT_OT0_
FNDA:0,_ZNSt4pairINSt8__detail14_Node_iteratorIS_IKNSt7__cxx1112basic_stringIcSt11char_traitsIcESaIcEEESt5arrayIiLm4EEELb0ELb1EEEbEC2ISC_bLb1EEEOT_OT0_
FN:341,_ZNSt4pairINSt8__detail14_Node_iteratorIS_IKNSt7__cxx1112basic_stringIcSt11char_traitsIcESaIcEEESt6vectorIN9assembler11OperandTypeESaISB_EEELb0ELb1EEEbEC2ISF_bLb1EEEOT_OT0_
FNDA:0,_ZNSt4pairINSt8__detail14_Node_iteratorIS_IKNSt7__cxx1112basic_stringIcSt11char_traitsIcESaIcEEESt6vectorIN9assembler11OperandTypeESaISB_EEELb0ELb1EEEbEC2ISF_bLb1EEEOT_OT0_
FN:341,_ZNSt4pairINSt8__detail14_Node_iteratorIS_IKNSt7__cxx1112basic_stringIcSt11char_traitsIcESaIcEEEiELb0ELb1EEEbEC2ISA_bLb1EEEOT_OT0_
FNDA:0,_ZNSt4pairINSt8__detail14_Node_iteratorIS_IKNSt7__cxx1112basic_stringIcSt11char_traitsIcESaIcEEEiELb0ELb1EEEbEC2ISA_bLb1EEEOT_OT0_
FN:341,_ZNSt4pairIKNSt7__cxx1112basic_stringIcSt11char_traitsIcESaIcEEEiEC1IRA4_KciLb1EEEOT_OT0_
FNDA:0,_ZNSt4pairIKNSt7__cxx1112basic_stringIcSt11char_traitsIcESaIcEEEiEC1IRA4_KciLb1EEEOT_OT0_
FN:524,_ZSt9make_pairINSt8__detail14_Node_iteratorISt4pairIKNSt7__cxx1112basic_stringIcSt11char_traitsIcESaIcEEESt5arrayIiLm4EEELb0ELb1EEEbES2_INSt17__decay_and_stripIT_E6__typeENSE_IT0_E6__typeEEOSF_OSI_
FNDA:0,_ZSt9make_pairINSt8__detail14_Node_iteratorISt4pairIKNSt7__cxx1112basic_stringIcSt11char_traitsIcESaIcEEESt5arrayIiLm4EEELb0ELb1EEEbES2_INSt17__decay_and_stripIT_E6__typeENSE_IT0_E6__typeEEOSF_OSI_
FN:524,_ZSt9make_pairINSt8__detail14_Node_iteratorISt4pairIKNSt7__cxx1112basic_stringIcSt11char_traitsIcESaIcEEESt6vectorIN9assembler11OperandTypeESaISC_EEELb0ELb1EEEbES2_INSt17__decay_and_stripIT_E6__typeENSH_IT0_E6__typeEEOSI_OSL_
FNDA:0,_ZSt9make_pairINSt8__detail14_Node_iteratorISt4pairIKNSt7__cxx1112basic_stringIcSt11char_traitsIcESaIcEEESt6vectorIN9assembler11OperandTypeESaISC_EEELb0ELb1EEEbES2_INSt17__decay_and_stripIT_E6__typeENSH_IT0_E6__typeEEOSI_OSL_
FN:524,_ZSt9make_pairINSt8__detail14_Node_iteratorISt4pairIKNSt7__cxx1112basic_stringIcSt11char_traitsIcESaIcEEEiELb0ELb1EEEbES2_INSt17__decay_and_stripIT_E6__typeENSC_IT0_E6__typeEEOSD_OSG_
FNDA:0,_ZSt9make_pairINSt8__detail14_Node_iteratorISt4pairIKNSt7__cxx1112basic_stringIcSt11char_traitsIcESaIcEEEiELb0ELb1EEEbES2_INSt17__decay_and_stripIT_E6__typeENSC_IT0_E6__typeEEOSD_OSG_
DA:303,0
DA:303,0
DA:303,0
DA:311,0
DA:312,0
DA:311,0
DA:312,0
DA:341,0
DA:342,0
DA:341,0
DA:342,0
DA:341,0
DA:342,0
DA:341,0
DA:342,0
DA:524,0
DA:529,0
DA:524,0
DA:529,0
DA:524,0
DA:529,0
end_of_record
SF:/usr/include/c++/9/bits/vector.tcc
FN:66,_ZNSt6vectorINSt7__cxx1112basic_stringIcSt11char_traitsIcESaIcEEESaIS5_EE7reserveEm
FNDA:16,_ZNSt6vectorINSt7__cxx1112basic_stringIcSt11char_traitsIcESaIcEEESaIS5_EE7reserveEm
FN:66,_ZNSt6vectorIiSaIiEE7reserveEm
FNDA:20,_ZNSt6vectorIiSaIiEE7reserveEm
FN:109,_ZNSt6vectorIiSaIiEE12emplace_backIJiEEEvDpOT_
FNDA:49,_ZNSt6vectorIiSaIiEE12emplace_backIJiEEEvDpOT_
FN:109,_ZNSt6vectorINSt7__cxx1112basic_stringIcSt11char_traitsIcESaIcEEESaIS5_EE12emplace_backIJS5_EEEvDpOT_
FNDA:95,_ZNSt6vectorINSt7__cxx1112basic_stringIcSt11char_traitsIcESaIcEEESaIS5_EE12emplace_backIJS5_EEEvDpOT_
FN:426,_ZNSt6vectorIiSaIiEE17_M_realloc_insertIJiEEEvN9__gnu_cxx17__normal_iteratorIPiS1_EEDpOT_
FNDA:0,_ZNSt6vectorIiSaIiEE17_M_realloc_insertIJiEEEvN9__gnu_cxx17__normal_iteratorIPiS1_EEDpOT_
FN:426,_ZNSt6vectorINSt7__cxx1112basic_stringIcSt11char_traitsIcESaIcEEESaIS5_EE17_M_realloc_insertIJS5_EEEvN9__gnu_cxx17__normal_iteratorIPS5_S7_EEDpOT_
FNDA:52,_ZNSt6vectorINSt7__cxx1112basic_stringIcSt11char_traitsIcESaIcEEESaIS5_EE17_M_realloc_insertIJS5_EEEvN9__gnu_cxx17__normal_iteratorIPS5_S7_EEDpOT_
DA:66,16
DA:69,16
DA:70,0
DA:71,16
DA:73,15
DA:76,15
DA:78,15
DA:79,15
DA:80,15
DA:85,0
DA:88,0
DA:89,0
DA:92,15
DA:93,15
DA:94,15
DA:95,15
DA:96,15
DA:97,15
DA:99,16
DA:66,20
DA:69,20
DA:70,0
DA:71,20
DA:73,19
DA:76,19
DA:78,19
DA:79,19
DA:80,19
DA:85,0
DA:88,0
DA:89,0
DA:92,19
DA:93,19
DA:94,19
DA:95,19
DA:96,19
DA:97,19
DA:99,20
DA:109,49
DA:112,49
DA:115,49
DA:117,49
DA:121,0
DA:125,49
DA:109,95
DA:112,95
DA:115,43
DA:117,43
DA:121,52
DA:125,95
DA:426,0
DA:435,0
DA:437,0
DA:438,0
DA:439,0
DA:440,0
DA:441,0
DA:449,0
DA:450,0
DA:456,0
DA:459,0
DA:461,0
DA:462,0
DA:464,0
DA:466,0
DA:467,0
DA:474,0
DA:475,0
DA:477,0
DA:481,0
DA:482,0
DA:485,0
DA:487,0
DA:488,0
DA:489,0
DA:491,0
DA:492,0
DA:493,0
DA:496,0
DA:498,0
DA:500,0
DA:501,0
DA:502,0
DA:503,0
DA:504,0
DA:505,0
DA:426,52
DA:435,52
DA:437,52
DA:438,52
DA:439,52
DA:440,52
DA:441,52
DA:449,52
DA:450,52
DA:456,52
DA:459,52
DA:461,52
DA:462,52
DA:464,52
DA:466,52
DA:467,52
DA:474,0
DA:475,0
DA:477,0
DA:481,0
DA:482,0
DA:485,0
DA:487,0
DA:488,0
DA:489,0
DA:491,0
DA:492,0
DA:493,0
DA:496,52
DA:498,0
DA:500,52
DA:501,52
DA:502,52
DA:503,52
DA:504,52
DA:505,52
end_of_record
SF:/usr/include/c++/9/bits/hashtable_policy.h
FN:70,_ZNSt8__detail13__distance_fwIPKSt4pairIKNSt7__cxx1112basic_stringIcSt11char_traitsIcESaIcEEEiEEENSt15iterator_traitsIT_E15difference_typeESD_SD_St20forward_iterator_tag
FNDA:0,_ZNSt8__detail13__distance_fwIPKSt4pairIKNSt7__cxx1112basic_stringIcSt11char_traitsIcESaIcEEEiEEENSt15iterator_traitsIT_E15difference_typeESD_SD_St20forward_iterator_tag
FN:70,_ZNSt8__detail13__distance_fwIPKSt4pairIKNSt7__cxx1112basic_stringIcSt11char_traitsIcESaIcEEESt6vectorIN9assembler11OperandTypeESaISB_EEEEENSt15iterator_traitsIT_E15difference_typeESI_SI_St20forward_iterator_tag
FNDA:0,_ZNSt8__detail13__distance_fwIPKSt4pairIKNSt7__cxx1112basic_stringIcSt11char_traitsIcESaIcEEESt6vectorIN9assembler11OperandTypeESaISB_EEEEENSt15iterator_traitsIT_E15difference_typeESI_SI_St20forward_iterator_tag
FN:70,_ZNSt8__detail13__distance_fwIPKSt4pairIKNSt7__cxx1112basic_stringIcSt11char_traitsIcESaIcEEESt5arrayIiLm4EEEEENSt15iterator_traitsIT_E15difference_typeESF_SF_St20forward_iterator_tag
FNDA:0,_ZNSt8__detail13__distance_fwIPKSt4pairIKNSt7__cxx1112basic_stringIcSt11char_traitsIcESaIcEEESt5arrayIiLm4EEEEENSt15iterator_traitsIT_E15difference_typeESF_SF_St20forward_iterator_tag
FN:76,_ZNSt8__detail13__distance_fwIPKSt4pairIKNSt7__cxx1112basic_stringIcSt11char_traitsIcESaIcEEEiEEENSt15iterator_traitsIT_E15difference_typeESD_SD_
FNDA:0,_ZNSt8__detail13__distance_fwIPKSt4pairIKNSt7__cxx1112basic_stringIcSt11char_traitsIcESaIcEEEiEEENSt15iterator_traitsIT_E15difference_typeESD_SD_
FN:76,_ZNSt8__detail13__distance_fwIPKSt4pairIKNSt7__cxx1112basic_stringIcSt11char_traitsIcESaIcEEESt6vectorIN9assembler11OperandTypeESaISB_EEEEENSt15iterator_traitsIT_E15difference_typeESI_SI_
FNDA:0,_ZNSt8__detail13__distance_fwIPKSt4pairIKNSt7__cxx1112basic_stringIcSt11char_traitsIcESaIcEEESt6vectorIN9assembler11OperandTypeESaISB_EEEEENSt15iterator_traitsIT_E15difference_typeESI_SI_
FN:76,_ZNSt8__detail13__distance_fwIPKSt4pairIKNSt7__cxx1112basic_stringIcSt11char_traitsIcESaIcEEESt5arrayIiLm4EEEEENSt15iterator_traitsIT_E15difference_typeESF_SF_
FNDA:0,_ZNSt8__detail13__distance_fwIPKSt4pairIKNSt7__cxx1112basic_stringIcSt11char_traitsIcESaIcEEESt5arrayIiLm4EEEEENSt15iterator_traitsIT_E15difference_typeESF_SF_
FN:92,_ZNKSt8__detail10_Select1stclIRSt4pairIKNSt7__cxx1112basic_stringIcSt11char_traitsIcESaIcEEESt5arrayIiLm4EEEEEDTcl3getILi0EEcl7forwardIT_Efp_EEEOSE_
FNDA:0,_ZNKSt8__detail10_Select1stclIRSt4pairIKNSt7__cxx1112basic_stringIcSt11char_traitsIcESaIcEEESt5arrayIiLm4EEEEEDTcl3getILi0EEcl7forwardIT_Efp_EEEOSE_
FN:92,_ZNKSt8__detail10_Select1stclIRKSt4pairIKNSt7__cxx1112basic_stringIcSt11char_traitsIcESaIcEEESt5arrayIiLm4EEEEEDTcl3getILi0EEcl7forwardIT_Efp_EEEOSF_
FNDA:0,_ZNKSt8__detail10_Select1stclIRKSt4pairIKNSt7__cxx1112basic_stringIcSt11char_traitsIcESaIcEEESt5arrayIiLm4EEEEEDTcl3getILi0EEcl7forwardIT_Efp_EEEOSF_
FN:92,_ZNKSt8__detail10_Select1stclIRSt4pairIKNSt7__cxx1112basic_stringIcSt11char_traitsIcESaIcEEESt6vectorIN9assembler11OperandTypeESaISC_EEEEEDTcl3getILi0EEcl7forwardIT_Efp_EEEOSH_
FNDA:0,_ZNKSt8__detail10_Select1stclIRSt4pairIKNSt7__cxx1112basic_stringIcSt11char_traitsIcESaIcEEESt6vectorIN9assembler11OperandTypeESaISC_EEEEEDTcl3getILi0EEcl7forwardIT_Efp_EEEOSH_
FN:92,_ZNKSt8__detail10_Select1stclIRKSt4pairIKNSt7__cxx1112basic_stringIcSt11char_traitsIcESaIcEEESt6vectorIN9assembler11OperandTypeESaISC_EEEEEDTcl3getILi0EEcl7forwardIT_Efp_EEEOSI_
FNDA:0,_ZNKSt8__detail10_Select1stclIRKSt4pairIKNSt7__cxx1112basic_stringIcSt11char_traitsIcESaIcEEESt6vectorIN9assembler11OperandTypeESaISC_EEEEEDTcl3getILi0EEcl7forwardIT_Efp_EEEOSI_
FN:92,_ZNKSt8__detail10_Select1stclIRSt4pairIKNSt7__cxx1112basic_stringIcSt11char_traitsIcESaIcEEEiEEEDTcl3getILi0EEcl7forwardIT_Efp_EEEOSC_
FNDA:0,_ZNKSt8__detail10_Select1stclIRSt4pairIKNSt7__cxx1112basic_stringIcSt11char_traitsIcESaIcEEEiEEEDTcl3getILi0EEcl7forwardIT_Efp_EEEOSC_
FN:92,_ZNKSt8__detail10_Select1stclIRKSt4pairIKNSt7__cxx1112basic_stringIcSt11char_traitsIcESaIcEEEiEEEDTcl3getILi0EEcl7forwardIT_Efp_EEEOSD_
FNDA:0,_ZNKSt8__detail10_Select1stclIRKSt4pairIKNSt7__cxx1112basic_stringIcSt11char_traitsIcESaIcEEEiEEEDTcl3getILi0EEcl7forwardIT_Efp_EEEOSD_
FN:161,_ZNSt8__detail10_AllocNodeISaINS_10_Hash_nodeISt4pairIKNSt7__cxx1112basic_stringIcSt11char_traitsIcESaIcEEESt6vectorIN9assembler11OperandTypeESaISC_EEELb1EEEEEC2ERNS_16_Hashtable_allocISH_EE
FNDA:0,_ZNSt8__detail10_AllocNodeISaINS_10_Hash_nodeISt4pairIKNSt7__cxx1112basic_stringIcSt11char_traitsIcESaIcEEESt6vectorIN9assembler11OperandTypeESaISC_EEELb1EEEEEC2ERNS_16_Hashtable_allocISH_EE
FN:161,_ZNSt8__detail10_AllocNodeISaINS_10_Hash_nodeISt4pairIKNSt7__cxx1112basic_stringIcSt11char_traitsIcESaIcEEESt5arrayIiLm4EEELb1EEEEEC2ERNS_16_Hashtable_allocISE_EE
FNDA:0,_ZNSt8__detail10_AllocNodeISaINS_10_Hash_nodeISt4pairIKNSt7__cxx1112basic_stringIcSt11char_traitsIcESaIcEEESt5arrayIiLm4EEELb1EEEEEC2ERNS_16_Hashtable_allocISE_EE
FN:161,_ZNSt8__detail10_AllocNodeISaINS_10_Hash_nodeISt4pairIKNSt7__cxx1112basic_stringIcSt11char_traitsIcESaIcEEEiELb1EEEEEC2ERNS_16_Hashtable_allocISC_EE
FNDA:0,_ZNSt8__detail10_AllocNodeISaINS_10_Hash_nodeISt4pairIKNSt7__cxx1112basic_stringIcSt11char_traitsIcESaIcEEEiELb1EEEEEC2ERNS_16_Hashtable_allocISC_EE
FN:166,_ZNKSt8__detail10_AllocNodeISaINS_10_Hash_nodeISt4pairIKNSt7__cxx1112basic_stringIcSt11char_traitsIcESaIcEEEiELb1EEEEEclIRKSA_EEPSB_OT_
FNDA:0,_ZNKSt8__detail10_AllocNodeISaINS_10_Hash_nodeISt4pairIKNSt7__cxx1112basic_stringIcSt11char_traitsIcESaIcEEEiELb1EEEEEclIRKSA_EEPSB_OT_
FN:166,_ZNKSt8__detail10_AllocNodeISaINS_10_Hash_nodeISt4pairIKNSt7__cxx1112basic_stringIcSt11char_traitsIcESaIcEEESt6vectorIN9assembler11OperandTypeESaISC_EEELb1EEEEEclIRKSF_EEPSG_OT_
FNDA:0,_ZNKSt8__detail10_AllocNodeISaINS_10_Hash_nodeISt4pairIKNSt7__cxx1112basic_stringIcSt11char_traitsIcESaIcEEESt6vectorIN9assembler11OperandTypeESaISC_EEELb1EEEEEclIRKSF_EEPSG_OT_
FN:166,_ZNKSt8__detail10_AllocNodeISaINS_10_Hash_nodeISt4pairIKNSt7__cxx1112basic_stringIcSt11char_traitsIcESaIcEEESt5arrayIiLm4EEELb1EEEEEclIRKSC_EEPSD_OT_
FNDA:0,_ZNKSt8__detail10_AllocNodeISaINS_10_Hash_nodeISt4pairIKNSt7__cxx1112basic_stringIcSt11char_traitsIcESaIcEEESt5arrayIiLm4EEELb1EEEEEclIRKSC_EEPSD_OT_
FN:218,_ZNSt8__detail15_Hash_node_baseC2Ev
FNDA:0,_ZNSt8__detail15_Hash_node_baseC2Ev
FN:236,_ZNSt8__detail21_Hash_node_value_baseISt4pairIKNSt7__cxx1112basic_stringIcSt11char_traitsIcESaIcEEESt6vectorIN9assembler11OperandTypeESaISB_EEEE9_M_valptrEv
FNDA:0,_ZNSt8__detail21_Hash_node_value_baseISt4pairIKNSt7__cxx1112basic_stringIcSt11char_traitsIcESaIcEEESt6vectorIN9assembler11OperandTypeESaISB_EEEE9_M_valptrEv
FN:236,_ZNSt8__detail21_Hash_node_value_baseISt4pairIKNSt7__cxx1112basic_stringIcSt11char_traitsIcESaIcEEEiEE9_M_valptrEv
FNDA:0,_ZNSt8__detail21_Hash_node_value_baseISt4pairIKNSt7__cxx1112basic_stringIcSt11char_traitsIcESaIcEEEiEE9_M_valptrEv
FN:236,_ZNSt8__detail21_Hash_node_value_baseISt4pairIKNSt7__cxx1112basic_stringIcSt11char_traitsIcESaIcEEESt5arrayIiLm4EEEE9_M_valptrEv
FNDA:0,_ZNSt8__detail21_Hash_node_value_baseISt4pairIKNSt7__cxx1112basic_stringIcSt11char_traitsIcESaIcEEESt5arrayIiLm4EEEE9_M_valptrEv
FN:244,_ZNSt8__detail21_Hash_node_value_baseISt4pairIKNSt7__cxx1112basic_stringIcSt11char_traitsIcESaIcEEESt6vectorIN9assembler11OperandTypeESaISB_EEEE4_M_vEv
FNDA:0,_ZNSt8__detail21_Hash_node_value_baseISt4pairIKNSt7__cxx1112basic_stringIcSt11char_traitsIcESaIcEEESt6vectorIN9assembler11OperandTypeESaISB_EEEE4_M_vEv
FN:244,_ZNSt8__detail21_Hash_node_value_baseISt4pairIKNSt7__cxx1112basic_stringIcSt11char_traitsIcESaIcEEEiEE4_M_vEv
FNDA:0,_ZNSt8__detail21_Hash_node_value_baseISt4pairIKNSt7__cxx1112basic_stringIcSt11char_traitsIcESaIcEEEiEE4_M_vEv
FN:244,_ZNSt8__detail21_Hash_node_value_baseISt4pairIKNSt7__cxx1112basic_stringIcSt11char_traitsIcESaIcEEESt5arrayIiLm4EEEE4_M_vEv
FNDA:0,_ZNSt8__detail21_Hash_node_value_baseISt4pairIKNSt7__cxx1112basic_stringIcSt11char_traitsIcESaIcEEESt5arrayIiLm4EEEE4_M_vEv
FN:269,_ZNKSt8__detail10_Hash_nodeISt4pairIKNSt7__cxx1112basic_stringIcSt11char_traitsIcESaIcEEESt5arrayIiLm4EEELb1EE7_M_nextEv
FNDA:0,_ZNKSt8__detail10_Hash_nodeISt4pairIKNSt7__cxx1112basic_stringIcSt11char_traitsIcESaIcEEESt5arrayIiLm4EEELb1EE7_M_nextEv
FN:269,_ZNKSt8__detail10_Hash_nodeISt4pairIKNSt7__cxx1112basic_stringIcSt11char_traitsIcESaIcEEESt6vectorIN9assembler11OperandTypeESaISB_EEELb1EE7_M_nextEv
FNDA:0,_ZNKSt8__detail10_Hash_nodeISt4pairIKNSt7__cxx1112basic_stringIcSt11char_traitsIcESaIcEEESt6vectorIN9assembler11OperandTypeESaISB_EEELb1EE7_M_nextEv
FN:269,_ZNKSt8__detail10_Hash_nodeISt4pairIKNSt7__cxx1112basic_stringIcSt11char_traitsIcESaIcEEEiELb1EE7_M_nextEv
FNDA:0,_ZNKSt8__detail10_Hash_nodeISt4pairIKNSt7__cxx1112basic_stringIcSt11char_traitsIcESaIcEEEiELb1EE7_M_nextEv
FN:294,_ZNSt8__detail19_Node_iterator_baseISt4pairIKNSt7__cxx1112basic_stringIcSt11char_traitsIcESaIcEEEiELb1EEC2EPNS_10_Hash_nodeIS9_Lb1EEE
FNDA:0,_ZNSt8__detail19_Node_iterator_baseISt4pairIKNSt7__cxx1112basic_stringIcSt11char_traitsIcESaIcEEEiELb1EEC2EPNS_10_Hash_nodeIS9_Lb1EEE
FN:294,_ZNSt8__detail19_Node_iterator_baseISt4pairIKNSt7__cxx1112basic_stringIcSt11char_traitsIcESaIcEEESt6vectorIN9assembler11OperandTypeESaISB_EEELb1EEC2EPNS_10_Hash_nodeISE_Lb1EEE
FNDA:0,_ZNSt8__detail19_Node_iterator_baseISt4pairIKNSt7__cxx1112basic_stringIcSt11char_traitsIcESaIcEEESt6vectorIN9assembler11OperandTypeESaISB_EEELb1EEC2EPNS_10_Hash_nodeISE_Lb1EEE
FN:294,_ZNSt8__detail19_Node_iterator_baseISt4pairIKNSt7__cxx1112basic_stringIcSt11char_traitsIcESaIcEEESt5arrayIiLm4EEELb1EEC2EPNS_10_Hash_nodeISB_Lb1EEE
FNDA:0,_ZNSt8__detail19_Node_iterator_baseISt4pairIKNSt7__cxx1112basic_stringIcSt11char_traitsIcESaIcEEESt5arrayIiLm4EEELb1EEC2EPNS_10_Hash_nodeISB_Lb1EEE
FN:311,_ZNSt8__detailneISt4pairIKNSt7__cxx1112basic_stringIcSt11char_traitsIcESaIcEEEiELb1EEEbRKNS_19_Node_iterator_baseIT_XT0_EEESE_
FNDA:24,_ZNSt8__detailneISt4pairIKNSt7__cxx1112basic_stringIcSt11char_traitsIcESaIcEEEiELb1EEEbRKNS_19_Node_iterator_baseIT_XT0_EEESE_
FN:340,_ZNSt8__detail14_Node_iteratorISt4pairIKNSt7__cxx1112basic_stringIcSt11char_traitsIcESaIcEEESt6vectorIN9assembler11OperandTypeESaISB_EEELb0ELb1EEC2EPNS_10_Hash_nodeISE_Lb1EEE
FNDA:0,_ZNSt8__detail14_Node_iteratorISt4pairIKNSt7__cxx1112basic_stringIcSt11char_traitsIcESaIcEEESt6vectorIN9assembler11OperandTypeESaISB_EEELb0ELb1EEC2EPNS_10_Hash_nodeISE_Lb1EEE
FN:340,_ZNSt8__detail14_Node_iteratorISt4pairIKNSt7__cxx1112basic_stringIcSt11char_traitsIcESaIcEEEiELb0ELb1EEC2EPNS_10_Hash_nodeIS9_Lb1EEE
FNDA:0,_ZNSt8__detail14_Node_iteratorISt4pairIKNSt7__cxx1112basic_stringIcSt11char_traitsIcESaIcEEEiELb0ELb1EEC2EPNS_10_Hash_nodeIS9_Lb1EEE
FN:340,_ZNSt8__detail14_Node_iteratorISt4pairIKNSt7__cxx1112basic_stringIcSt11char_traitsIcESaIcEEESt5arrayIiLm4EEELb0ELb1EEC2EPNS_10_Hash_nodeISB_Lb1EEE
FNDA:0,_ZNSt8__detail14_Node_iteratorISt4pairIKNSt7__cxx1112basic_stringIcSt11char_traitsIcESaIcEEESt5arrayIiLm4EEELb0ELb1EEC2EPNS_10_Hash_nodeISB_Lb1EEE
FN:388,_ZNSt8__detail20_Node_const_iteratorISt4pairIKNSt7__cxx1112basic_stringIcSt11char_traitsIcESaIcEEEiELb0ELb1EEC2EPNS_10_Hash_nodeIS9_Lb1EEE
FNDA:48,_ZNSt8__detail20_Node_const_iteratorISt4pairIKNSt7__cxx1112basic_stringIcSt11char_traitsIcESaIcEEEiELb0ELb1EEC2EPNS_10_Hash_nodeIS9_Lb1EEE
FN:431,_ZNKSt8__detail18_Mod_range_hashingclEmm
FNDA:0,_ZNKSt8__detail18_Mod_range_hashingclEmm
FN:449,_ZNSt8__detail20_Prime_rehash_policyC2Ef
FNDA:0,_ZNSt8__detail20_Prime_rehash_policyC2Ef
FN:462,_ZNKSt8__detail20_Prime_rehash_policy19_M_bkt_for_elementsEm
FNDA:0,_ZNKSt8__detail20_Prime_rehash_policy19_M_bkt_for_elementsEm
FN:476,_ZNKSt8__detail20_Prime_rehash_policy8_M_stateEv
FNDA:0,_ZNKSt8__detail20_Prime_rehash_policy8_M_stateEv
FN:484,_ZNSt8__detail20_Prime_rehash_policy8_M_resetEm
FNDA:0,_ZNSt8__detail20_Prime_rehash_policy8_M_resetEm
FN:758,_ZNKSt8__detail9_Map_baseINSt7__cxx1112basic_stringIcSt11char_traitsIcESaIcEEESt4pairIKS6_iESaIS9_ENS_10_Select1stESt8equal_toIS6_ESt4hashIS6_ENS_18_Mod_range_hashingENS_20_Default_ranged_hashENS_20_Prime_rehash_policyENS_17_Hashtable_traitsILb1ELb0ELb1EEELb1EE2atERS8_
FNDA:16,_ZNKSt8__detail9_Map_baseINSt7__cxx1112basic_stringIcSt11char_traitsIcESaIcEEESt4pairIKS6_iESaIS9_ENS_10_Select1stESt8equal_toIS6_ESt4hashIS6_ENS_18_Mod_range_hashingENS_20_Default_ranged_hashENS_20_Prime_rehash_policyENS_17_Hashtable_traitsILb1ELb0ELb1EEELb1EE2atERS8_
FN:758,_ZNKSt8__detail9_Map_baseINSt7__cxx1112basic_stringIcSt11char_traitsIcESaIcEEESt4pairIKS6_St5arrayIiLm4EEESaISB_ENS_10_Select1stESt8equal_toIS6_ESt4hashIS6_ENS_18_Mod_range_hashingENS_20_Default_ranged_hashENS_20_Prime_rehash_policyENS_17_Hashtable_traitsILb1ELb0ELb1EEELb1EE2atERS8_
FNDA:64,_ZNKSt8__detail9_Map_baseINSt7__cxx1112basic_stringIcSt11char_traitsIcESaIcEEESt4pairIKS6_St5arrayIiLm4EEESaISB_ENS_10_Select1stESt8equal_toIS6_ESt4hashIS6_ENS_18_Mod_range_hashingENS_20_Default_ranged_hashENS_20_Prime_rehash_policyENS_17_Hashtable_traitsILb1ELb0ELb1EEELb1EE2atERS8_
FN:758,_ZNKSt8__detail9_Map_baseINSt7__cxx1112basic_stringIcSt11char_traitsIcESaIcEEESt4pairIKS6_St6vectorIN9assembler11OperandTypeESaISB_EEESaISE_ENS_10_Select1stESt8equal_toIS6_ESt4hashIS6_ENS_18_Mod_range_hashingENS_20_Default_ranged_hashENS_20_Prime_rehash_policyENS_17_Hashtable_traitsILb1ELb0ELb1EEELb1EE2atERS8_
FNDA:70,_ZNKSt8__detail9_Map_baseINSt7__cxx1112basic_stringIcSt11char_traitsIcESaIcEEESt4pairIKS6_St6vectorIN9assembler11OperandTypeESaISB_EEESaISE_ENS_10_Select1stESt8equal_toIS6_ESt4hashIS6_ENS_18_Mod_range_hashingENS_20_Default_ranged_hashENS_20_Prime_rehash_policyENS_17_Hashtable_traitsILb1ELb0ELb1EEELb1EE2atERS8_
FN:805,_ZNSt8__detail12_Insert_baseINSt7__cxx1112basic_stringIcSt11char_traitsIcESaIcEEESt4pairIKS6_iESaIS9_ENS_10_Select1stESt8equal_toIS6_ESt4hashIS6_ENS_18_Mod_range_hashingENS_20_Default_ranged_hashENS_20_Prime_rehash_policyENS_17_Hashtable_traitsILb1ELb0ELb1EEEE20_M_conjure_hashtableEv
FNDA:0,_ZNSt8__detail12_Insert_baseINSt7__cxx1112basic_stringIcSt11char_traitsIcESaIcEEESt4pairIKS6_iESaIS9_ENS_10_Select1stESt8equal_toIS6_ESt4hashIS6_ENS_18_Mod_range_hashingENS_20_Default_ranged_hashENS_20_Prime_rehash_policyENS_17_Hashtable_traitsILb1ELb0ELb1EEEE20_M_conjure_hashtableEv
FN:805,_ZNSt8__detail12_Insert_baseINSt7__cxx1112basic_stringIcSt11char_traitsIcESaIcEEESt4pairIKS6_St5arrayIiLm4EEESaISB_ENS_10_Select1stESt8equal_toIS6_ESt4hashIS6_ENS_18_Mod_range_hashingENS_20_Default_ranged_hashENS_20_Prime_rehash_policyENS_17_Hashtable_traitsILb1ELb0ELb1EEEE20_M_conjure_hashtableEv
FNDA:0,_ZNSt8__detail12_Insert_baseINSt7__cxx1112basic_stringIcSt11char_traitsIcESaIcEEESt4pairIKS6_St5arrayIiLm4EEESaISB_ENS_10_Select1stESt8equal_toIS6_ESt4hashIS6_ENS_18_Mod_range_hashingENS_20_Default_ranged_hashENS_20_Prime_rehash_policyENS_17_Hashtable_traitsILb1ELb0ELb1EEEE20_M_conjure_hashtableEv
FN:805,_ZNSt8__detail12_Insert_baseINSt7__cxx1112basic_stringIcSt11char_traitsIcESaIcEEESt4pairIKS6_St6vectorIN9assembler11OperandTypeESaISB_EEESaISE_ENS_10_Select1stESt8equal_toIS6_ESt4hashIS6_ENS_18_Mod_range_hashingENS_20_Default_ranged_hashENS_20_Prime_rehash_policyENS_17_Hashtable_traitsILb1ELb0ELb1EEEE20_M_conjure_hashtableEv
FNDA:0,_ZNSt8__detail12_Insert_baseINSt7__cxx1112basic_stringIcSt11char_traitsIcESaIcEEESt4pairIKS6_St6vectorIN9assembler11OperandTypeESaISB_EEESaISE_ENS_10_Select1stESt8equal_toIS6_ESt4hashIS6_ENS_18_Mod_range_hashingENS_20_Default_ranged_hashENS_20_Prime_rehash_policyENS_17_Hashtable_traitsILb1ELb0ELb1EEEE20_M_conjure_hashtableEv
FN:820,_ZNSt8__detail12_Insert_baseINSt7__cxx1112basic_stringIcSt11char_traitsIcESaIcEEESt4pairIKS6_St5arrayIiLm4EEESaISB_ENS_10_Select1stESt8equal_toIS6_ESt4hashIS6_ENS_18_Mod_range_hashingENS_20_Default_ranged_hashENS_20_Prime_rehash_policyENS_17_Hashtable_traitsILb1ELb0ELb1EEEE6insertERKSB_
FNDA:0,_ZNSt8__detail12_Insert_baseINSt7__cxx1112basic_stringIcSt11char_traitsIcESaIcEEESt4pairIKS6_St5arrayIiLm4EEESaISB_ENS_10_Select1stESt8equal_toIS6_ESt4hashIS6_ENS_18_Mod_range_hashingENS_20_Default_ranged_hashENS_20_Prime_rehash_policyENS_17_Hashtable_traitsILb1ELb0ELb1EEEE6insertERKSB_
FN:820,_ZNSt8__detail12_Insert_baseINSt7__cxx1112basic_stringIcSt11char_traitsIcESaIcEEESt4pairIKS6_St6vectorIN9assembler11OperandTypeESaISB_EEESaISE_ENS_10_Select1stESt8equal_toIS6_ESt4hashIS6_ENS_18_Mod_range_hashingENS_20_Default_ranged_hashENS_20_Prime_rehash_policyENS_17_Hashtable_traitsILb1ELb0ELb1EEEE6insertERKSE_
FNDA:0,_ZNSt8__detail12_Insert_baseINSt7__cxx1112basic_stringIcSt11char_traitsIcESaIcEEESt4pairIKS6_St6vectorIN9assembler11OperandTypeESaISB_EEESaISE_ENS_10_Select1stESt8equal_toIS6_ESt4hashIS6_ENS_18_Mod_range_hashingENS_20_Default_ranged_hashENS_20_Prime_rehash_policyENS_17_Hashtable_traitsILb1ELb0ELb1EEEE6insertERKSE_
FN:820,_ZNSt8__detail12_Insert_baseINSt7__cxx1112basic_stringIcSt11char_traitsIcESaIcEEESt4pairIKS6_iESaIS9_ENS_10_Select1stESt8equal_toIS6_ESt4hashIS6_ENS_18_Mod_range_hashingENS_20_Default_ranged_hashENS_20_Prime_rehash_policyENS_17_Hashtable_traitsILb1ELb0ELb1EEEE6insertERKS9_
FNDA:0,_ZNSt8__detail12_Insert_baseINSt7__cxx1112basic_stringIcSt11char_traitsIcESaIcEEESt4pairIKS6_iESaIS9_ENS_10_Select1stESt8equal_toIS6_ESt4hashIS6_ENS_18_Mod_range_hashingENS_20_Default_ranged_hashENS_20_Prime_rehash_policyENS_17_Hashtable_traitsILb1ELb0ELb1EEEE6insertERKS9_
FN:1099,_ZNSt8__detail21_Hashtable_ebo_helperILi0ESaINS_10_Hash_nodeISt4pairIKNSt7__cxx1112basic_stringIcSt11char_traitsIcESaIcEEEiELb1EEEELb1EEC2ISC_EEOT_
FNDA:0,_ZNSt8__detail21_Hashtable_ebo_helperILi0ESaINS_10_Hash_nodeISt4pairIKNSt7__cxx1112basic_stringIcSt11char_traitsIcESaIcEEEiELb1EEEELb1EEC2ISC_EEOT_
FN:1099,_ZNSt8__detail21_Hashtable_ebo_helperILi0ESt8equal_toINSt7__cxx1112basic_stringIcSt11char_traitsIcESaIcEEEELb1EEC2IRKS8_EEOT_
FNDA:0,_ZNSt8__detail21_Hashtable_ebo_helperILi0ESt8equal_toINSt7__cxx1112basic_stringIcSt11char_traitsIcESaIcEEEELb1EEC2IRKS8_EEOT_
FN:1099,_ZNSt8__detail21_Hashtable_ebo_helperILi2ENS_18_Mod_range_hashingELb1EEC2IRKS1_EEOT_
FNDA:0,_ZNSt8__detail21_Hashtable_ebo_helperILi2ENS_18_Mod_range_hashingELb1EEC2IRKS1_EEOT_
FN:1099,_ZNSt8__detail21_Hashtable_ebo_helperILi0ESaINS_10_Hash_nodeISt4pairIKNSt7__cxx1112basic_stringIcSt11char_traitsIcESaIcEEESt6vectorIN9assembler11OperandTypeESaISC_EEELb1EEEELb1EEC2ISH_EEOT_
FNDA:0,_ZNSt8__detail21_Hashtable_ebo_helperILi0ESaINS_10_Hash_nodeISt4pairIKNSt7__cxx1112basic_stringIcSt11char_traitsIcESaIcEEESt6vectorIN9assembler11OperandTypeESaISC_EEELb1EEEELb1EEC2ISH_EEOT_
FN:1099,_ZNSt8__detail21_Hashtable_ebo_helperILi1ESt4hashINSt7__cxx1112basic_stringIcSt11char_traitsIcESaIcEEEELb1EEC2IRKS8_EEOT_
FNDA:0,_ZNSt8__detail21_Hashtable_ebo_helperILi1ESt4hashINSt7__cxx1112basic_stringIcSt11char_traitsIcESaIcEEEELb1EEC2IRKS8_EEOT_
FN:1099,_ZNSt8__detail21_Hashtable_ebo_helperILi0ENS_10_Select1stELb1EEC2IRKS1_EEOT_
FNDA:0,_ZNSt8__detail21_Hashtable_ebo_helperILi0ENS_10_Select1stELb1EEC2IRKS1_EEOT_
FN:1099,_ZNSt8__detail21_Hashtable_ebo_helperILi0ESaINS_10_Hash_nodeISt4pairIKNSt7__cxx1112basic_stringIcSt11char_traitsIcESaIcEEESt5arrayIiLm4EEELb1EEEELb1EEC2ISE_EEOT_
FNDA:0,_ZNSt8__detail21_Hashtable_ebo_helperILi0ESaINS_10_Hash_nodeISt4pairIKNSt7__cxx1112basic_stringIcSt11char_traitsIcESaIcEEESt5arrayIiLm4EEELb1EEEELb1EEC2ISE_EEOT_
FN:1104,_ZNSt8__detail21_Hashtable_ebo_helperILi0ESt8equal_toINSt7__cxx1112basic_stringIcSt11char_traitsIcESaIcEEEELb1EE7_S_cgetERKS9_
FNDA:0,_ZNSt8__detail21_Hashtable_ebo_helperILi0ESt8equal_toINSt7__cxx1112basic_stringIcSt11char_traitsIcESaIcEEEELb1EE7_S_cgetERKS9_
FN:1104,_ZNSt8__detail21_Hashtable_ebo_helperILi0ENS_10_Select1stELb1EE7_S_cgetERKS2_
FNDA:0,_ZNSt8__detail21_Hashtable_ebo_helperILi0ENS_10_Select1stELb1EE7_S_cgetERKS2_
FN:1104,_ZNSt8__detail21_Hashtable_ebo_helperILi1ESt4hashINSt7__cxx1112basic_stringIcSt11char_traitsIcESaIcEEEELb1EE7_S_cgetERKS9_
FNDA:0,_ZNSt8__detail21_Hashtable_ebo_helperILi1ESt4hashINSt7__cxx1112basic_stringIcSt11char_traitsIcESaIcEEEELb1EE7_S_cgetERKS9_
FN:1104,_ZNSt8__detail21_Hashtable_ebo_helperILi2ENS_18_Mod_range_hashingELb1EE7_S_cgetERKS2_
FNDA:0,_ZNSt8__detail21_Hashtable_ebo_helperILi2ENS_18_Mod_range_hashingELb1EE7_S_cgetERKS2_
FN:1108,_ZNSt8__detail21_Hashtable_ebo_helperILi0ESaINS_10_Hash_nodeISt4pairIKNSt7__cxx1112basic_stringIcSt11char_traitsIcESaIcEEESt6vectorIN9assembler11OperandTypeESaISC_EEELb1EEEELb1EE6_S_getERSI_
FNDA:0,_ZNSt8__detail21_Hashtable_ebo_helperILi0ESaINS_10_Hash_nodeISt4pairIKNSt7__cxx1112basic_stringIcSt11char_traitsIcESaIcEEESt6vectorIN9assembler11OperandTypeESaISC_EEELb1EEEELb1EE6_S_getERSI_
FN:1108,_ZNSt8__detail21_Hashtable_ebo_helperILi0ESaINS_10_Hash_nodeISt4pairIKNSt7__cxx1112basic_stringIcSt11char_traitsIcESaIcEEESt5arrayIiLm4EEELb1EEEELb1EE6_S_getERSF_
FNDA:0,_ZNSt8__detail21_Hashtable_ebo_helperILi0ESaINS_10_Hash_nodeISt4pairIKNSt7__cxx1112basic_stringIcSt11char_traitsIcESaIcEEESt5arrayIiLm4EEELb1EEEELb1EE6_S_getERSF_
FN:1108,_ZNSt8__detail21_Hashtable_ebo_helperILi0ESaINS_10_Hash_nodeISt4pairIKNSt7__cxx1112basic_stringIcSt11char_traitsIcESaIcEEEiELb1EEEELb1EE6_S_getERSD_
FNDA:0,_ZNSt8__detail21_Hashtable_ebo_helperILi0ESaINS_10_Hash_nodeISt4pairIKNSt7__cxx1112basic_stringIcSt11char_traitsIcESaIcEEEiELb1EEEELb1EE6_S_getERSD_
FN:1108,_ZNSt8__detail21_Hashtable_ebo_helperILi0ENS_10_Select1stELb1EE6_S_getERS2_
FNDA:0,_ZNSt8__detail21_Hashtable_ebo_helperILi0ENS_10_Select1stELb1EE6_S_getERS2_
FN:1374,_ZNSt8__detail15_Hash_code_baseINSt7__cxx1112basic_stringIcSt11char_traitsIcESaIcEEESt4pairIKS6_iENS_10_Select1stESt4hashIS6_ENS_18_Mod_range_hashingENS_20_Default_ranged_hashELb1EEC2ERKSA_RKSC_RKSD_RKSE_
FNDA:0,_ZNSt8__detail15_Hash_code_baseINSt7__cxx1112basic_stringIcSt11char_traitsIcESaIcEEESt4pairIKS6_iENS_10_Select1stESt4hashIS6_ENS_18_Mod_range_hashingENS_20_Default_ranged_hashELb1EEC2ERKSA_RKSC_RKSD_RKSE_
FN:1374,_ZNSt8__detail15_Hash_code_baseINSt7__cxx1112basic_stringIcSt11char_traitsIcESaIcEEESt4pairIKS6_St6vectorIN9assembler11OperandTypeESaISB_EEENS_10_Select1stESt4hashIS6_ENS_18_Mod_range_hashingENS_20_Default_ranged_hashELb1EEC2ERKSF_RKSH_RKSI_RKSJ_
FNDA:0,_ZNSt8__detail15_Hash_code_baseINSt7__cxx1112basic_stringIcSt11char_traitsIcESaIcEEESt4pairIKS6_St6vectorIN9assembler11OperandTypeESaISB_EEENS_10_Select1stESt4hashIS6_ENS_18_Mod_range_hashingENS_20_Default_ranged_hashELb1EEC2ERKSF_RKSH_RKSI_RKSJ_
FN:1374,_ZNSt8__detail15_Hash_code_baseINSt7__cxx1112basic_stringIcSt11char_traitsIcESaIcEEESt4pairIKS6_St5arrayIiLm4EEENS_10_Select1stESt4hashIS6_ENS_18_Mod_range_hashingENS_20_Default_ranged_hashELb1EEC2ERKSC_RKSE_RKSF_RKSG_
FNDA:0,_ZNSt8__detail15_Hash_code_baseINSt7__cxx1112basic_stringIcSt11char_traitsIcESaIcEEESt4pairIKS6_St5arrayIiLm4EEENS_10_Select1stESt4hashIS6_ENS_18_Mod_range_hashingENS_20_Default_ranged_hashELb1EEC2ERKSC_RKSE_RKSF_RKSG_
FN:1380,_ZNKSt8__detail15_Hash_code_baseINSt7__cxx1112basic_stringIcSt11char_traitsIcESaIcEEESt4pairIKS6_St6vectorIN9assembler11OperandTypeESaISB_EEENS_10_Select1stESt4hashIS6_ENS_18_Mod_range_hashingENS_20_Default_ranged_hashELb1EE12_M_hash_codeERS8_
FNDA:0,_ZNKSt8__detail15_Hash_code_baseINSt7__cxx1112basic_stringIcSt11char_traitsIcESaIcEEESt4pairIKS6_St6vectorIN9assembler11OperandTypeESaISB_EEENS_10_Select1stESt4hashIS6_ENS_18_Mod_range_hashingENS_20_Default_ranged_hashELb1EE12_M_hash_codeERS8_
FN:1380,_ZNKSt8__detail15_Hash_code_baseINSt7__cxx1112basic_stringIcSt11char_traitsIcESaIcEEESt4pairIKS6_St5arrayIiLm4EEENS_10_Select1stESt4hashIS6_ENS_18_Mod_range_hashingENS_20_Default_ranged_hashELb1EE12_M_hash_codeERS8_
FNDA:0,_ZNKSt8__detail15_Hash_code_baseINSt7__cxx1112basic_stringIcSt11char_traitsIcESaIcEEESt4pairIKS6_St5arrayIiLm4EEENS_10_Select1stESt4hashIS6_ENS_18_Mod_range_hashingENS_20_Default_ranged_hashELb1EE12_M_hash_codeERS8_
FN:1380,_ZNKSt8__detail15_Hash_code_baseINSt7__cxx1112basic_stringIcSt11char_traitsIcESaIcEEESt4pairIKS6_iENS_10_Select1stESt4hashIS6_ENS_18_Mod_range_hashingENS_20_Default_ranged_hashELb1EE12_M_hash_codeERS8_
FNDA:0,_ZNKSt8__detail15_Hash_code_baseINSt7__cxx1112basic_stringIcSt11char_traitsIcESaIcEEESt4pairIKS6_iENS_10_Select1stESt4hashIS6_ENS_18_Mod_range_hashingENS_20_Default_ranged_hashELb1EE12_M_hash_codeERS8_
FN:1388,_ZNKSt8__detail15_Hash_code_baseINSt7__cxx1112basic_stringIcSt11char_traitsIcESaIcEEESt4pairIKS6_St6vectorIN9assembler11OperandTypeESaISB_EEENS_10_Select1stESt4hashIS6_ENS_18_Mod_range_hashingENS_20_Default_ranged_hashELb1EE15_M_bucket_indexERS8_mm
FNDA:0,_ZNKSt8__detail15_Hash_code_baseINSt7__cxx1112basic_stringIcSt11char_traitsIcESaIcEEESt4pairIKS6_St6vectorIN9assembler11OperandTypeESaISB_EEENS_10_Select1stESt4hashIS6_ENS_18_Mod_range_hashingENS_20_Default_ranged_hashELb1EE15_M_bucket_indexERS8_mm
FN:1388,_ZNKSt8__detail15_Hash_code_baseINSt7__cxx1112basic_stringIcSt11char_traitsIcESaIcEEESt4pairIKS6_St5arrayIiLm4EEENS_10_Select1stESt4hashIS6_ENS_18_Mod_range_hashingENS_20_Default_ranged_hashELb1EE15_M_bucket_indexERS8_mm
FNDA:0,_ZNKSt8__detail15_Hash_code_baseINSt7__cxx1112basic_stringIcSt11char_traitsIcESaIcEEESt4pairIKS6_St5arrayIiLm4EEENS_10_Select1stESt4hashIS6_ENS_18_Mod_range_hashingENS_20_Default_ranged_hashELb1EE15_M_bucket_indexERS8_mm
FN:1388,_ZNKSt8__detail15_Hash_code_baseINSt7__cxx1112basic_stringIcSt11char_traitsIcESaIcEEESt4pairIKS6_iENS_10_Select1stESt4hashIS6_ENS_18_Mod_range_hashingENS_20_Default_ranged_hashELb1EE15_M_bucket_indexERS8_mm
FNDA:0,_ZNKSt8__detail15_Hash_code_baseINSt7__cxx1112basic_stringIcSt11char_traitsIcESaIcEEESt4pairIKS6_iENS_10_Select1stESt4hashIS6_ENS_18_Mod_range_hashingENS_20_Default_ranged_hashELb1EE15_M_bucket_indexERS8_mm
FN:1393,_ZNKSt8__detail15_Hash_code_baseINSt7__cxx1112basic_stringIcSt11char_traitsIcESaIcEEESt4pairIKS6_St6vectorIN9assembler11OperandTypeESaISB_EEENS_10_Select1stESt4hashIS6_ENS_18_Mod_range_hashingENS_20_Default_ranged_hashELb1EE15_M_bucket_indexEPKNS_10_Hash_nodeISE_Lb1EEEm
FNDA:0,_ZNKSt8__detail15_Hash_code_baseINSt7__cxx1112basic_stringIcSt11char_traitsIcESaIcEEESt4pairIKS6_St6vectorIN9assembler11OperandTypeESaISB_EEENS_10_Select1stESt4hashIS6_ENS_18_Mod_range_hashingENS_20_Default_ranged_hashELb1EE15_M_bucket_indexEPKNS_10_Hash_nodeISE_Lb1EEEm
FN:1393,_ZNKSt8__detail15_Hash_code_baseINSt7__cxx1112basic_stringIcSt11char_traitsIcESaIcEEESt4pairIKS6_iENS_10_Select1stESt4hashIS6_ENS_18_Mod_range_hashingENS_20_Default_ranged_hashELb1EE15_M_bucket_indexEPKNS_10_Hash_nodeIS9_Lb1EEEm
FNDA:0,_ZNKSt8__detail15_Hash_code_baseINSt7__cxx1112basic_stringIcSt11char_traitsIcESaIcEEESt4pairIKS6_iENS_10_Select1stESt4hashIS6_ENS_18_Mod_range_hashingENS_20_Default_ranged_hashELb1EE15_M_bucket_indexEPKNS_10_Hash_nodeIS9_Lb1EEEm
FN:1393,_ZNKSt8__detail15_Hash_code_baseINSt7__cxx1112basic_stringIcSt11char_traitsIcESaIcEEESt4pairIKS6_St5arrayIiLm4EEENS_10_Select1stESt4hashIS6_ENS_18_Mod_range_hashingENS_20_Default_ranged_hashELb1EE15_M_bucket_indexEPKNS_10_Hash_nodeISB_Lb1EEEm
FNDA:0,_ZNKSt8__detail15_Hash_code_baseINSt7__cxx1112basic_stringIcSt11char_traitsIcESaIcEEESt4pairIKS6_St5arrayIiLm4EEENS_10_Select1stESt4hashIS6_ENS_18_Mod_range_hashingENS_20_Default_ranged_hashELb1EE15_M_bucket_indexEPKNS_10_Hash_nodeISB_Lb1EEEm
FN:1399,_ZNKSt8__detail15_Hash_code_baseINSt7__cxx1112basic_stringIcSt11char_traitsIcESaIcEEESt4pairIKS6_St6vectorIN9assembler11OperandTypeESaISB_EEENS_10_Select1stESt4hashIS6_ENS_18_Mod_range_hashingENS_20_Default_ranged_hashELb1EE13_M_store_codeEPNS_10_Hash_nodeISE_Lb1EEEm
FNDA:0,_ZNKSt8__detail15_Hash_code_baseINSt7__cxx1112basic_stringIcSt11char_traitsIcESaIcEEESt4pairIKS6_St6vectorIN9assembler11OperandTypeESaISB_EEENS_10_Select1stESt4hashIS6_ENS_18_Mod_range_hashingENS_20_Default_ranged_hashELb1EE13_M_store_codeEPNS_10_Hash_nodeISE_Lb1EEEm
FN:1399,_ZNKSt8__detail15_Hash_code_baseINSt7__cxx1112basic_stringIcSt11char_traitsIcESaIcEEESt4pairIKS6_St5arrayIiLm4EEENS_10_Select1stESt4hashIS6_ENS_18_Mod_range_hashingENS_20_Default_ranged_hashELb1EE13_M_store_codeEPNS_10_Hash_nodeISB_Lb1EEEm
FNDA:0,_ZNKSt8__detail15_Hash_code_baseINSt7__cxx1112basic_stringIcSt11char_traitsIcESaIcEEESt4pairIKS6_St5arrayIiLm4EEENS_10_Select1stESt4hashIS6_ENS_18_Mod_range_hashingENS_20_Default_ranged_hashELb1EE13_M_store_codeEPNS_10_Hash_nodeISB_Lb1EEEm
FN:1399,_ZNKSt8__detail15_Hash_code_baseINSt7__cxx1112basic_stringIcSt11char_traitsIcESaIcEEESt4pairIKS6_iENS_10_Select1stESt4hashIS6_ENS_18_Mod_range_hashingENS_20_Default_ranged_hashELb1EE13_M_store_codeEPNS_10_Hash_nodeIS9_Lb1EEEm
FNDA:0,_ZNKSt8__detail15_Hash_code_baseINSt7__cxx1112basic_stringIcSt11char_traitsIcESaIcEEESt4pairIKS6_iENS_10_Select1stESt4hashIS6_ENS_18_Mod_range_hashingENS_20_Default_ranged_hashELb1EE13_M_store_codeEPNS_10_Hash_nodeIS9_Lb1EEEm
FN:1415,_ZNKSt8__detail15_Hash_code_baseINSt7__cxx1112basic_stringIcSt11char_traitsIcESaIcEEESt4pairIKS6_St5arrayIiLm4EEENS_10_Select1stESt4hashIS6_ENS_18_Mod_range_hashingENS_20_Default_ranged_hashELb1EE10_M_extractEv
FNDA:0,_ZNKSt8__detail15_Hash_code_baseINSt7__cxx1112basic_stringIcSt11char_traitsIcESaIcEEESt4pairIKS6_St5arrayIiLm4EEENS_10_Select1stESt4hashIS6_ENS_18_Mod_range_hashingENS_20_Default_ranged_hashELb1EE10_M_extractEv
FN:1415,_ZNKSt8__detail15_Hash_code_baseINSt7__cxx1112basic_stringIcSt11char_traitsIcESaIcEEESt4pairIKS6_iENS_10_Select1stESt4hashIS6_ENS_18_Mod_range_hashingENS_20_Default_ranged_hashELb1EE10_M_extractEv
FNDA:0,_ZNKSt8__detail15_Hash_code_baseINSt7__cxx1112basic_stringIcSt11char_traitsIcESaIcEEESt4pairIKS6_iENS_10_Select1stESt4hashIS6_ENS_18_Mod_range_hashingENS_20_Default_ranged_hashELb1EE10_M_extractEv
FN:1415,_ZNKSt8__detail15_Hash_code_baseINSt7__cxx1112basic_stringIcSt11char_traitsIcESaIcEEESt4pairIKS6_St6vectorIN9assembler11OperandTypeESaISB_EEENS_10_Select1stESt4hashIS6_ENS_18_Mod_range_hashingENS_20_Default_ranged_hashELb1EE10_M_extractEv
FNDA:0,_ZNKSt8__detail15_Hash_code_baseINSt7__cxx1112basic_stringIcSt11char_traitsIcESaIcEEESt4pairIKS6_St6vectorIN9assembler11OperandTypeESaISB_EEENS_10_Select1stESt4hashIS6_ENS_18_Mod_range_hashingENS_20_Default_ranged_hashELb1EE10_M_extractEv
FN:1418,_ZNSt8__detail15_Hash_code_baseINSt7__cxx1112basic_stringIcSt11char_traitsIcESaIcEEESt4pairIKS6_St5arrayIiLm4EEENS_10_Select1stESt4hashIS6_ENS_18_Mod_range_hashingENS_20_Default_ranged_hashELb1EE10_M_extractEv
FNDA:0,_ZNSt8__detail15_Hash_code_baseINSt7__cxx1112basic_stringIcSt11char_traitsIcESaIcEEESt4pairIKS6_St5arrayIiLm4EEENS_10_Select1stESt4hashIS6_ENS_18_Mod_range_hashingENS_20_Default_ranged_hashELb1EE10_M_extractEv
FN:1418,_ZNSt8__detail15_Hash_code_baseINSt7__cxx1112basic_stringIcSt11char_traitsIcESaIcEEESt4pairIKS6_St6vectorIN9assembler11OperandTypeESaISB_EEENS_10_Select1stESt4hashIS6_ENS_18_Mod_range_hashingENS_20_Default_ranged_hashELb1EE10_M_extractEv
FNDA:0,_ZNSt8__detail15_Hash_code_baseINSt7__cxx1112basic_stringIcSt11char_traitsIcESaIcEEESt4pairIKS6_St6vectorIN9assembler11OperandTypeESaISB_EEENS_10_Select1stESt4hashIS6_ENS_18_Mod_range_hashingENS_20_Default_ranged_hashELb1EE10_M_extractEv
FN:1418,_ZNSt8__detail15_Hash_code_baseINSt7__cxx1112basic_stringIcSt11char_traitsIcESaIcEEESt4pairIKS6_iENS_10_Select1stESt4hashIS6_ENS_18_Mod_range_hashingENS_20_Default_ranged_hashELb1EE10_M_extractEv
FNDA:0,_ZNSt8__detail15_Hash_code_baseINSt7__cxx1112basic_stringIcSt11char_traitsIcESaIcEEESt4pairIKS6_iENS_10_Select1stESt4hashIS6_ENS_18_Mod_range_hashingENS_20_Default_ranged_hashELb1EE10_M_extractEv
FN:1421,_ZNKSt8__detail15_Hash_code_baseINSt7__cxx1112basic_stringIcSt11char_traitsIcESaIcEEESt4pairIKS6_iENS_10_Select1stESt4hashIS6_ENS_18_Mod_range_hashingENS_20_Default_ranged_hashELb1EE5_M_h1Ev
FNDA:0,_ZNKSt8__detail15_Hash_code_baseINSt7__cxx1112basic_stringIcSt11char_traitsIcESaIcEEESt4pairIKS6_iENS_10_Select1stESt4hashIS6_ENS_18_Mod_range_hashingENS_20_Default_ranged_hashELb1EE5_M_h1Ev
FN:1421,_ZNKSt8__detail15_Hash_code_baseINSt7__cxx1112basic_stringIcSt11char_traitsIcESaIcEEESt4pairIKS6_St6vectorIN9assembler11OperandTypeESaISB_EEENS_10_Select1stESt4hashIS6_ENS_18_Mod_range_hashingENS_20_Default_ranged_hashELb1EE5_M_h1Ev
FNDA:0,_ZNKSt8__detail15_Hash_code_baseINSt7__cxx1112basic_stringIcSt11char_traitsIcESaIcEEESt4pairIKS6_St6vectorIN9assembler11OperandTypeESaISB_EEENS_10_Select1stESt4hashIS6_ENS_18_Mod_range_hashingENS_20_Default_ranged_hashELb1EE5_M_h1Ev
FN:1421,_ZNKSt8__detail15_Hash_code_baseINSt7__cxx1112basic_stringIcSt11char_traitsIcESaIcEEESt4pairIKS6_St5arrayIiLm4EEENS_10_Select1stESt4hashIS6_ENS_18_Mod_range_hashingENS_20_Default_ranged_hashELb1EE5_M_h1Ev
FNDA:0,_ZNKSt8__detail15_Hash_code_baseINSt7__cxx1112basic_stringIcSt11char_traitsIcESaIcEEESt4pairIKS6_St5arrayIiLm4EEENS_10_Select1stESt4hashIS6_ENS_18_Mod_range_hashingENS_20_Default_ranged_hashELb1EE5_M_h1Ev
FN:1427,_ZNKSt8__detail15_Hash_code_baseINSt7__cxx1112basic_stringIcSt11char_traitsIcESaIcEEESt4pairIKS6_St5arrayIiLm4EEENS_10_Select1stESt4hashIS6_ENS_18_Mod_range_hashingENS_20_Default_ranged_hashELb1EE5_M_h2Ev
FNDA:0,_ZNKSt8__detail15_Hash_code_baseINSt7__cxx1112basic_stringIcSt11char_traitsIcESaIcEEESt4pairIKS6_St5arrayIiLm4EEENS_10_Select1stESt4hashIS6_ENS_18_Mod_range_hashingENS_20_Default_ranged_hashELb1EE5_M_h2Ev
FN:1427,_ZNKSt8__detail15_Hash_code_baseINSt7__cxx1112basic_stringIcSt11char_traitsIcESaIcEEESt4pairIKS6_St6vectorIN9assembler11OperandTypeESaISB_EEENS_10_Select1stESt4hashIS6_ENS_18_Mod_range_hashingENS_20_Default_ranged_hashELb1EE5_M_h2Ev
FNDA:0,_ZNKSt8__detail15_Hash_code_baseINSt7__cxx1112basic_stringIcSt11char_traitsIcESaIcEEESt4pairIKS6_St6vectorIN9assembler11OperandTypeESaISB_EEENS_10_Select1stESt4hashIS6_ENS_18_Mod_range_hashingENS_20_Default_ranged_hashELb1EE5_M_h2Ev
FN:1427,_ZNKSt8__detail15_Hash_code_baseINSt7__cxx1112basic_stringIcSt11char_traitsIcESaIcEEESt4pairIKS6_iENS_10_Select1stESt4hashIS6_ENS_18_Mod_range_hashingENS_20_Default_ranged_hashELb1EE5_M_h2Ev
FNDA:0,_ZNKSt8__detail15_Hash_code_baseINSt7__cxx1112basic_stringIcSt11char_traitsIcESaIcEEESt4pairIKS6_iENS_10_Select1stESt4hashIS6_ENS_18_Mod_range_hashingENS_20_Default_ranged_hashELb1EE5_M_h2Ev
FN:1448,_ZNSt8__detail13_Equal_helperINSt7__cxx1112basic_stringIcSt11char_traitsIcESaIcEEESt4pairIKS6_St5arrayIiLm4EEENS_10_Select1stESt8equal_toIS6_EmLb1EE9_S_equalsERKSE_RKSC_RS8_mPNS_10_Hash_nodeISB_Lb1EEE
FNDA:0,_ZNSt8__detail13_Equal_helperINSt7__cxx1112basic_stringIcSt11char_traitsIcESaIcEEESt4pairIKS6_St5arrayIiLm4EEENS_10_Select1stESt8equal_toIS6_EmLb1EE9_S_equalsERKSE_RKSC_RS8_mPNS_10_Hash_nodeISB_Lb1EEE
FN:1448,_ZNSt8__detail13_Equal_helperINSt7__cxx1112basic_stringIcSt11char_traitsIcESaIcEEESt4pairIKS6_St6vectorIN9assembler11OperandTypeESaISB_EEENS_10_Select1stESt8equal_toIS6_EmLb1EE9_S_equalsERKSH_RKSF_RS8_mPNS_10_Hash_nodeISE_Lb1EEE
FNDA:0,_ZNSt8__detail13_Equal_helperINSt7__cxx1112basic_stringIcSt11char_traitsIcESaIcEEESt4pairIKS6_St6vectorIN9assembler11OperandTypeESaISB_EEENS_10_Select1stESt8equal_toIS6_EmLb1EE9_S_equalsERKSH_RKSF_RS8_mPNS_10_Hash_nodeISE_Lb1EEE
FN:1448,_ZNSt8__detail13_Equal_helperINSt7__cxx1112basic_stringIcSt11char_traitsIcESaIcEEESt4pairIKS6_iENS_10_Select1stESt8equal_toIS6_EmLb1EE9_S_equalsERKSC_RKSA_RS8_mPNS_10_Hash_nodeIS9_Lb1EEE
FNDA:0,_ZNSt8__detail13_Equal_helperINSt7__cxx1112basic_stringIcSt11char_traitsIcESaIcEEESt4pairIKS6_iENS_10_Select1stESt8equal_toIS6_EmLb1EE9_S_equalsERKSC_RKSA_RS8_mPNS_10_Hash_nodeIS9_Lb1EEE
FN:1823,_ZNSt8__detail15_Hashtable_baseINSt7__cxx1112basic_stringIcSt11char_traitsIcESaIcEEESt4pairIKS6_St5arrayIiLm4EEENS_10_Select1stESt8equal_toIS6_ESt4hashIS6_ENS_18_Mod_range_hashingENS_20_Default_ranged_hashENS_17_Hashtable_traitsILb1ELb0ELb1EEEEC2ERKSC_RKSG_RKSH_RKSI_RKSE_
FNDA:0,_ZNSt8__detail15_Hashtable_baseINSt7__cxx1112basic_stringIcSt11char_traitsIcESaIcEEESt4pairIKS6_St5arrayIiLm4EEENS_10_Select1stESt8equal_toIS6_ESt4hashIS6_ENS_18_Mod_range_hashingENS_20_Default_ranged_hashENS_17_Hashtable_traitsILb1ELb0ELb1EEEEC2ERKSC_RKSG_RKSH_RKSI_RKSE_
FN:1823,_ZNSt8__detail15_Hashtable_baseINSt7__cxx1112basic_stringIcSt11char_traitsIcESaIcEEESt4pairIKS6_iENS_10_Select1stESt8equal_toIS6_ESt4hashIS6_ENS_18_Mod_range_hashingENS_20_Default_ranged_hashENS_17_Hashtable_traitsILb1ELb0ELb1EEEEC2ERKSA_RKSE_RKSF_RKSG_RKSC_
FNDA:0,_ZNSt8__detail15_Hashtable_baseINSt7__cxx1112basic_stringIcSt11char_traitsIcESaIcEEESt4pairIKS6_iENS_10_Select1stESt8equal_toIS6_ESt4hashIS6_ENS_18_Mod_range_hashingENS_20_Default_ranged_hashENS_17_Hashtable_traitsILb1ELb0ELb1EEEEC2ERKSA_RKSE_RKSF_RKSG_RKSC_
FN:1823,_ZNSt8__detail15_Hashtable_baseINSt7__cxx1112basic_stringIcSt11char_traitsIcESaIcEEESt4pairIKS6_St6vectorIN9assembler11OperandTypeESaISB_EEENS_10_Select1stESt8equal_toIS6_ESt4hashIS6_ENS_18_Mod_range_hashingENS_20_Default_ranged_hashENS_17_Hashtable_traitsILb1ELb0ELb1EEEEC2ERKSF_RKSJ_RKSK_RKSL_RKSH_
FNDA:0,_ZNSt8__detail15_Hashtable_baseINSt7__cxx1112basic_stringIcSt11char_traitsIcESaIcEEESt4pairIKS6_St6vectorIN9assembler11OperandTypeESaISB_EEENS_10_Select1stESt8equal_toIS6_ESt4hashIS6_ENS_18_Mod_range_hashingENS_20_Default_ranged_hashENS_17_Hashtable_traitsILb1ELb0ELb1EEEEC2ERKSF_RKSJ_RKSK_RKSL_RKSH_
FN:1829,_ZNKSt8__detail15_Hashtable_baseINSt7__cxx1112basic_stringIcSt11char_traitsIcESaIcEEESt4pairIKS6_iENS_10_Select1stESt8equal_toIS6_ESt4hashIS6_ENS_18_Mod_range_hashingENS_20_Default_ranged_hashENS_17_Hashtable_traitsILb1ELb0ELb1EEEE9_M_equalsERS8_mPNS_10_Hash_nodeIS9_Lb1EEE
FNDA:0,_ZNKSt8__detail15_Hashtable_baseINSt7__cxx1112basic_stringIcSt11char_traitsIcESaIcEEESt4pairIKS6_iENS_10_Select1stESt8equal_toIS6_ESt4hashIS6_ENS_18_Mod_range_hashingENS_20_Default_ranged_hashENS_17_Hashtable_traitsILb1ELb0ELb1EEEE9_M_equalsERS8_mPNS_10_Hash_nodeIS9_Lb1EEE
FN:1829,_ZNKSt8__detail15_Hashtable_baseINSt7__cxx1112basic_stringIcSt11char_traitsIcESaIcEEESt4pairIKS6_St6vectorIN9assembler11OperandTypeESaISB_EEENS_10_Select1stESt8equal_toIS6_ESt4hashIS6_ENS_18_Mod_range_hashingENS_20_Default_ranged_hashENS_17_Hashtable_traitsILb1ELb0ELb1EEEE9_M_equalsERS8_mPNS_10_Hash_nodeISE_Lb1EEE
FNDA:0,_ZNKSt8__detail15_Hashtable_baseINSt7__cxx1112basic_stringIcSt11char_traitsIcESaIcEEESt4pairIKS6_St6vectorIN9assembler11OperandTypeESaISB_EEENS_10_Select1stESt8equal_toIS6_ESt4hashIS6_ENS_18_Mod_range_hashingENS_20_Default_ranged_hashENS_17_Hashtable_traitsILb1ELb0ELb1EEEE9_M_equalsERS8_mPNS_10_Hash_nodeISE_Lb1EEE
FN:1829,_ZNKSt8__detail15_Hashtable_baseINSt7__cxx1112basic_stringIcSt11char_traitsIcESaIcEEESt4pairIKS6_St5arrayIiLm4EEENS_10_Select1stESt8equal_toIS6_ESt4hashIS6_ENS_18_Mod_range_hashingENS_20_Default_ranged_hashENS_17_Hashtable_traitsILb1ELb0ELb1EEEE9_M_equalsERS8_mPNS_10_Hash_nodeISB_Lb1EEE
FNDA:0,_ZNKSt8__detail15_Hashtable_baseINSt7__cxx1112basic_stringIcSt11char_traitsIcESaIcEEESt4pairIKS6_St5arrayIiLm4EEENS_10_Select1stESt8equal_toIS6_ESt4hashIS6_ENS_18_Mod_range_hashingENS_20_Default_ranged_hashENS_17_Hashtable_traitsILb1ELb0ELb1EEEE9_M_equalsERS8_mPNS_10_Hash_nodeISB_Lb1EEE
FN:1846,_ZNKSt8__detail15_Hashtable_baseINSt7__cxx1112basic_stringIcSt11char_traitsIcESaIcEEESt4pairIKS6_St5arrayIiLm4EEENS_10_Select1stESt8equal_toIS6_ESt4hashIS6_ENS_18_Mod_range_hashingENS_20_Default_ranged_hashENS_17_Hashtable_traitsILb1ELb0ELb1EEEE5_M_eqEv
FNDA:0,_ZNKSt8__detail15_Hashtable_baseINSt7__cxx1112basic_stringIcSt11char_traitsIcESaIcEEESt4pairIKS6_St5arrayIiLm4EEENS_10_Select1stESt8equal_toIS6_ESt4hashIS6_ENS_18_Mod_range_hashingENS_20_Default_ranged_hashENS_17_Hashtable_traitsILb1ELb0ELb1EEEE5_M_eqEv
FN:1846,_ZNKSt8__detail15_Hashtable_baseINSt7__cxx1112basic_stringIcSt11char_traitsIcESaIcEEESt4pairIKS6_iENS_10_Select1stESt8equal_toIS6_ESt4hashIS6_ENS_18_Mod_range_hashingENS_20_Default_ranged_hashENS_17_Hashtable_traitsILb1ELb0ELb1EEEE5_M_eqEv
FNDA:0,_ZNKSt8__detail15_Hashtable_baseINSt7__cxx1112basic_stringIcSt11char_traitsIcESaIcEEESt4pairIKS6_iENS_10_Select1stESt8equal_toIS6_ESt4hashIS6_ENS_18_Mod_range_hashingENS_20_Default_ranged_hashENS_17_Hashtable_traitsILb1ELb0ELb1EEEE5_M_eqEv
FN:1846,_ZNKSt8__detail15_Hashtable_baseINSt7__cxx1112basic_stringIcSt11char_traitsIcESaIcEEESt4pairIKS6_St6vectorIN9assembler11OperandTypeESaISB_EEENS_10_Select1stESt8equal_toIS6_ESt4hashIS6_ENS_18_Mod_range_hashingENS_20_Default_ranged_hashENS_17_Hashtable_traitsILb1ELb0ELb1EEEE5_M_eqEv
FNDA:0,_ZNKSt8__detail15_Hashtable_baseINSt7__cxx1112basic_stringIcSt11char_traitsIcESaIcEEESt4pairIKS6_St6vectorIN9assembler11OperandTypeESaISB_EEENS_10_Select1stESt8equal_toIS6_ESt4hashIS6_ENS_18_Mod_range_hashingENS_20_Default_ranged_hashENS_17_Hashtable_traitsILb1ELb0ELb1EEEE5_M_eqEv
FN:2041,_ZNSt8__detail16_Hashtable_allocISaINS_10_Hash_nodeISt4pairIKNSt7__cxx1112basic_stringIcSt11char_traitsIcESaIcEEESt6vectorIN9assembler11OperandTypeESaISC_EEELb1EEEEEC2ISH_EEOT_
FNDA:0,_ZNSt8__detail16_Hashtable_allocISaINS_10_Hash_nodeISt4pairIKNSt7__cxx1112basic_stringIcSt11char_traitsIcESaIcEEESt6vectorIN9assembler11OperandTypeESaISC_EEELb1EEEEEC2ISH_EEOT_
FN:2041,_ZNSt8__detail16_Hashtable_allocISaINS_10_Hash_nodeISt4pairIKNSt7__cxx1112basic_stringIcSt11char_traitsIcESaIcEEEiELb1EEEEEC2ISC_EEOT_
FNDA:0,_ZNSt8__detail16_Hashtable_allocISaINS_10_Hash_nodeISt4pairIKNSt7__cxx1112basic_stringIcSt11char_traitsIcESaIcEEEiELb1EEEEEC2ISC_EEOT_
FN:2041,_ZNSt8__detail16_Hashtable_allocISaINS_10_Hash_nodeISt4pairIKNSt7__cxx1112basic_stringIcSt11char_traitsIcESaIcEEESt5arrayIiLm4EEELb1EEEEEC2ISE_EEOT_
FNDA:0,_ZNSt8__detail16_Hashtable_allocISaINS_10_Hash_nodeISt4pairIKNSt7__cxx1112basic_stringIcSt11char_traitsIcESaIcEEESt5arrayIiLm4EEELb1EEEEEC2ISE_EEOT_
FN:2046,_ZNSt8__detail16_Hashtable_allocISaINS_10_Hash_nodeISt4pairIKNSt7__cxx1112basic_stringIcSt11char_traitsIcESaIcEEEiELb1EEEEE17_M_node_allocatorEv
FNDA:0,_ZNSt8__detail16_Hashtable_allocISaINS_10_Hash_nodeISt4pairIKNSt7__cxx1112basic_stringIcSt11char_traitsIcESaIcEEEiELb1EEEEE17_M_node_allocatorEv
FN:2046,_ZNSt8__detail16_Hashtable_allocISaINS_10_Hash_nodeISt4pairIKNSt7__cxx1112basic_stringIcSt11char_traitsIcESaIcEEESt6vectorIN9assembler11OperandTypeESaISC_EEELb1EEEEE17_M_node_allocatorEv
FNDA:0,_ZNSt8__detail16_Hashtable_allocISaINS_10_Hash_nodeISt4pairIKNSt7__cxx1112basic_stringIcSt11char_traitsIcESaIcEEESt6vectorIN9assembler11OperandTypeESaISC_EEELb1EEEEE17_M_node_allocatorEv
FN:2046,_ZNSt8__detail16_Hashtable_allocISaINS_10_Hash_nodeISt4pairIKNSt7__cxx1112basic_stringIcSt11char_traitsIcESaIcEEESt5arrayIiLm4EEELb1EEEEE17_M_node_allocatorEv
FNDA:0,_ZNSt8__detail16_Hashtable_allocISaINS_10_Hash_nodeISt4pairIKNSt7__cxx1112basic_stringIcSt11char_traitsIcESaIcEEESt5arrayIiLm4EEELb1EEEEE17_M_node_allocatorEv
FN:2079,_ZNSt8__detail16_Hashtable_allocISaINS_10_Hash_nodeISt4pairIKNSt7__cxx1112basic_stringIcSt11char_traitsIcESaIcEEESt5arrayIiLm4EEELb1EEEEE16_M_allocate_nodeIJRKSC_EEEPSD_DpOT_
FNDA:0,_ZNSt8__detail16_Hashtable_allocISaINS_10_Hash_nodeISt4pairIKNSt7__cxx1112basic_stringIcSt11char_traitsIcESaIcEEESt5arrayIiLm4EEELb1EEEEE16_M_allocate_nodeIJRKSC_EEEPSD_DpOT_
FN:2079,_ZNSt8__detail16_Hashtable_allocISaINS_10_Hash_nodeISt4pairIKNSt7__cxx1112basic_stringIcSt11char_traitsIcESaIcEEESt6vectorIN9assembler11OperandTypeESaISC_EEELb1EEEEE16_M_allocate_nodeIJRKSF_EEEPSG_DpOT_
FNDA:0,_ZNSt8__detail16_Hashtable_allocISaINS_10_Hash_nodeISt4pairIKNSt7__cxx1112basic_stringIcSt11char_traitsIcESaIcEEESt6vectorIN9assembler11OperandTypeESaISC_EEELb1EEEEE16_M_allocate_nodeIJRKSF_EEEPSG_DpOT_
FN:2079,_ZNSt8__detail16_Hashtable_allocISaINS_10_Hash_nodeISt4pairIKNSt7__cxx1112basic_stringIcSt11char_traitsIcESaIcEEEiELb1EEEEE16_M_allocate_nodeIJRKSA_EEEPSB_DpOT_
FNDA:0,_ZNSt8__detail16_Hashtable_allocISaINS_10_Hash_nodeISt4pairIKNSt7__cxx1112basic_stringIcSt11char_traitsIcESaIcEEEiELb1EEEEE16_M_allocate_nodeIJRKSA_EEEPSB_DpOT_
FN:2100,_ZNSt8__detail16_Hashtable_allocISaINS_10_Hash_nodeISt4pairIKNSt7__cxx1112basic_stringIcSt11char_traitsIcESaIcEEESt5arrayIiLm4EEELb1EEEEE18_M_deallocate_nodeEPSD_
FNDA:0,_ZNSt8__detail16_Hashtable_allocISaINS_10_Hash_nodeISt4pairIKNSt7__cxx1112basic_stringIcSt11char_traitsIcESaIcEEESt5arrayIiLm4EEELb1EEEEE18_M_deallocate_nodeEPSD_
FN:2100,_ZNSt8__detail16_Hashtable_allocISaINS_10_Hash_nodeISt4pairIKNSt7__cxx1112basic_stringIcSt11char_traitsIcESaIcEEEiELb1EEEEE18_M_deallocate_nodeEPSB_
FNDA:0,_ZNSt8__detail16_Hashtable_allocISaINS_10_Hash_nodeISt4pairIKNSt7__cxx1112basic_stringIcSt11char_traitsIcESaIcEEEiELb1EEEEE18_M_deallocate_nodeEPSB_
FN:2100,_ZNSt8__detail16_Hashtable_allocISaINS_10_Hash_nodeISt4pairIKNSt7__cxx1112basic_stringIcSt11char_traitsIcESaIcEEESt6vectorIN9assembler11OperandTypeESaISC_EEELb1EEEEE18_M_deallocate_nodeEPSG_
FNDA:0,_ZNSt8__detail16_Hashtable_allocISaINS_10_Hash_nodeISt4pairIKNSt7__cxx1112basic_stringIcSt11char_traitsIcESaIcEEESt6vectorIN9assembler11OperandTypeESaISC_EEELb1EEEEE18_M_deallocate_nodeEPSG_
FN:2108,_ZNSt8__detail16_Hashtable_allocISaINS_10_Hash_nodeISt4pairIKNSt7__cxx1112basic_stringIcSt11char_traitsIcESaIcEEESt6vectorIN9assembler11OperandTypeESaISC_EEELb1EEEEE22_M_deallocate_node_ptrEPSG_
FNDA:0,_ZNSt8__detail16_Hashtable_allocISaINS_10_Hash_nodeISt4pairIKNSt7__cxx1112basic_stringIcSt11char_traitsIcESaIcEEESt6vectorIN9assembler11OperandTypeESaISC_EEELb1EEEEE22_M_deallocate_node_ptrEPSG_
FN:2108,_ZNSt8__detail16_Hashtable_allocISaINS_10_Hash_nodeISt4pairIKNSt7__cxx1112basic_stringIcSt11char_traitsIcESaIcEEESt5arrayIiLm4EEELb1EEEEE22_M_deallocate_node_ptrEPSD_
FNDA:0,_ZNSt8__detail16_Hashtable_allocISaINS_10_Hash_nodeISt4pairIKNSt7__cxx1112basic_stringIcSt11char_traitsIcESaIcEEESt5arrayIiLm4EEELb1EEEEE22_M_deallocate_node_ptrEPSD_
FN:2108,_ZNSt8__detail16_Hashtable_allocISaINS_10_Hash_nodeISt4pairIKNSt7__cxx1112basic_stringIcSt11char_traitsIcESaIcEEEiELb1EEEEE22_M_deallocate_node_ptrEPSB_
FNDA:0,_ZNSt8__detail16_Hashtable_allocISaINS_10_Hash_nodeISt4pairIKNSt7__cxx1112basic_stringIcSt11char_traitsIcESaIcEEEiELb1EEEEE22_M_deallocate_node_ptrEPSB_
FN:2118,_ZNSt8__detail16_Hashtable_allocISaINS_10_Hash_nodeISt4pairIKNSt7__cxx1112basic_stringIcSt11char_traitsIcESaIcEEESt5arrayIiLm4EEELb1EEEEE19_M_deallocate_nodesEPSD_
FNDA:0,_ZNSt8__detail16_Hashtable_allocISaINS_10_Hash_nodeISt4pairIKNSt7__cxx1112basic_stringIcSt11char_traitsIcESaIcEEESt5arrayIiLm4EEELb1EEEEE19_M_deallocate_nodesEPSD_
FN:2118,_ZNSt8__detail16_Hashtable_allocISaINS_10_Hash_nodeISt4pairIKNSt7__cxx1112basic_stringIcSt11char_traitsIcESaIcEEESt6vectorIN9assembler11OperandTypeESaISC_EEELb1EEEEE19_M_deallocate_nodesEPSG_
FNDA:0,_ZNSt8__detail16_Hashtable_allocISaINS_10_Hash_nodeISt4pairIKNSt7__cxx1112basic_stringIcSt11char_traitsIcESaIcEEESt6vectorIN9assembler11OperandTypeESaISC_EEELb1EEEEE19_M_deallocate_nodesEPSG_
FN:2118,_ZNSt8__detail16_Hashtable_allocISaINS_10_Hash_nodeISt4pairIKNSt7__cxx1112basic_stringIcSt11char_traitsIcESaIcEEEiELb1EEEEE19_M_deallocate_nodesEPSB_
FNDA:0,_ZNSt8__detail16_Hashtable_allocISaINS_10_Hash_nodeISt4pairIKNSt7__cxx1112basic_stringIcSt11char_traitsIcESaIcEEEiELb1EEEEE19_M_deallocate_nodesEPSB_
FN:2130,_ZNSt8__detail16_Hashtable_allocISaINS_10_Hash_nodeISt4pairIKNSt7__cxx1112basic_stringIcSt11char_traitsIcESaIcEEESt5arrayIiLm4EEELb1EEEEE19_M_allocate_bucketsEm
FNDA:0,_ZNSt8__detail16_Hashtable_allocISaINS_10_Hash_nodeISt4pairIKNSt7__cxx1112basic_stringIcSt11char_traitsIcESaIcEEESt5arrayIiLm4EEELb1EEEEE19_M_allocate_bucketsEm
FN:2130,_ZNSt8__detail16_Hashtable_allocISaINS_10_Hash_nodeISt4pairIKNSt7__cxx1112basic_stringIcSt11char_traitsIcESaIcEEESt6vectorIN9assembler11OperandTypeESaISC_EEELb1EEEEE19_M_allocate_bucketsEm
FNDA:0,_ZNSt8__detail16_Hashtable_allocISaINS_10_Hash_nodeISt4pairIKNSt7__cxx1112basic_stringIcSt11char_traitsIcESaIcEEESt6vectorIN9assembler11OperandTypeESaISC_EEELb1EEEEE19_M_allocate_bucketsEm
FN:2130,_ZNSt8__detail16_Hashtable_allocISaINS_10_Hash_nodeISt4pairIKNSt7__cxx1112basic_stringIcSt11char_traitsIcESaIcEEEiELb1EEEEE19_M_allocate_bucketsEm
FNDA:0,_ZNSt8__detail16_Hashtable_allocISaINS_10_Hash_nodeISt4pairIKNSt7__cxx1112basic_stringIcSt11char_traitsIcESaIcEEEiELb1EEEEE19_M_allocate_bucketsEm
FN:2142,_ZNSt8__detail16_Hashtable_allocISaINS_10_Hash_nodeISt4pairIKNSt7__cxx1112basic_stringIcSt11char_traitsIcESaIcEEEiELb1EEEEE21_M_deallocate_bucketsEPPNS_15_Hash_node_baseEm
FNDA:0,_ZNSt8__detail16_Hashtable_allocISaINS_10_Hash_nodeISt4pairIKNSt7__cxx1112basic_stringIcSt11char_traitsIcESaIcEEEiELb1EEEEE21_M_deallocate_bucketsEPPNS_15_Hash_node_baseEm
FN:2142,_ZNSt8__detail16_Hashtable_allocISaINS_10_Hash_nodeISt4pairIKNSt7__cxx1112basic_stringIcSt11char_traitsIcESaIcEEESt6vectorIN9assembler11OperandTypeESaISC_EEELb1EEEEE21_M_deallocate_bucketsEPPNS_15_Hash_node_baseEm
FNDA:0,_ZNSt8__detail16_Hashtable_allocISaINS_10_Hash_nodeISt4pairIKNSt7__cxx1112basic_stringIcSt11char_traitsIcESaIcEEESt6vectorIN9assembler11OperandTypeESaISC_EEELb1EEEEE21_M_deallocate_bucketsEPPNS_15_Hash_node_baseEm
FN:2142,_ZNSt8__detail16_Hashtable_allocISaINS_10_Hash_nodeISt4pairIKNSt7__cxx1112basic_stringIcSt11char_traitsIcESaIcEEESt5arrayIiLm4EEELb1EEEEE21_M_deallocate_bucketsEPPNS_15_Hash_node_baseEm
FNDA:0,_ZNSt8__detail16_Hashtable_allocISaINS_10_Hash_nodeISt4pairIKNSt7__cxx1112basic_stringIcSt11char_traitsIcESaIcEEESt5arrayIiLm4EEELb1EEEEE21_M_deallocate_bucketsEPPNS_15_Hash_node_baseEm
DA:70,0
DA:72,0
DA:70,0
DA:72,0
DA:70,0
DA:72,0
DA:76,0
DA:77,0
DA:78,0
DA:76,0
DA:77,0
DA:78,0
DA:76,0
DA:77,0
DA:78,0
DA:92,0
DA:94,0
DA:92,0
DA:94,0
DA:92,0
DA:94,0
DA:92,0
DA:94,0
DA:92,0
DA:94,0
DA:92,0
DA:94,0
DA:161,0
DA:162,0
DA:161,0
DA:162,0
DA:161,0
DA:162,0
DA:166,0
DA:167,0
DA:166,0
DA:167,0
DA:166,0
DA:167,0
DA:218,0
DA:236,0
DA:237,0
DA:236,0
DA:237,0
DA:236,0
DA:237,0
DA:244,0
DA:245,0
DA:244,0
DA:245,0
DA:244,0
DA:245,0
DA:269,0
DA:270,0
DA:269,0
DA:270,0
DA:269,0
DA:270,0
DA:294,0
DA:295,0
DA:294,0
DA:295,0
DA:294,0
DA:295,0
DA:311,24
DA:314,24
DA:340,0
DA:341,0
DA:340,0
DA:341,0
DA:340,0
DA:341,0
DA:388,48
DA:389,48
DA:431,0
DA:433,0
DA:449,0
DA:450,0
DA:462,0
DA:463,0
DA:476,0
DA:477,0
DA:484,0
DA:485,0
DA:758,64
DA:763,64
DA:764,64
DA:765,64
DA:766,64
DA:768,64
DA:769,0
DA:770,64
DA:758,16
DA:763,16
DA:764,16
DA:765,16
DA:766,16
DA:768,16
DA:769,0
DA:770,16
DA:758,70
DA:763,70
DA:764,70
DA:765,70
DA:766,70
DA:768,70
DA:769,0
DA:770,70
DA:805,0
DA:806,0
DA:805,0
DA:806,0
DA:805,0
DA:806,0
DA:820,0
DA:822,0
DA:823,0
DA:824,0
DA:820,0
DA:822,0
DA:823,0
DA:824,0
DA:820,0
DA:822,0
DA:823,0
DA:824,0
DA:1099,0
DA:1100,0
DA:1101,0
DA:1099,0
DA:1100,0
DA:1101,0
DA:1099,0
DA:1100,0
DA:1101,0
DA:1099,0
DA:1100,0
DA:1101,0
DA:1099,0
DA:1100,0
DA:1101,0
DA:1099,0
DA:1100,0
DA:1101,0
DA:1099,0
DA:1100,0
DA:1101,0
DA:1104,0
DA:1105,0
DA:1104,0
DA:1105,0
DA:1104,0
DA:1105,0
DA:1104,0
DA:1105,0
DA:1108,0
DA:1109,0
DA:1108,0
DA:1109,0
DA:1108,0
DA:1109,0
DA:1108,0
DA:1109,0
DA:1374,0
DA:1377,0
DA:1374,0
DA:1377,0
DA:1374,0
DA:1377,0
DA:1380,0
DA:1384,0
DA:1380,0
DA:1384,0
DA:1380,0
DA:1384,0
DA:1388,0
DA:1390,0
DA:1388,0
DA:1390,0
DA:1388,0
DA:1390,0
DA:1393,0
DA:1396,0
DA:1393,0
DA:1396,0
DA:1393,0
DA:1396,0
DA:1399,0
DA:1400,0
DA:1399,0
DA:1400,0
DA:1399,0
DA:1400,0
DA:1415,0
DA:1415,0
DA:1415,0
DA:1418,0
DA:1418,0
DA:1418,0
DA:1421,0
DA:1421,0
DA:1421,0
DA:1427,0
DA:1427,0
DA:1427,0
DA:1448,0
DA:1450,0
DA:1448,0
DA:1450,0
DA:1448,0
DA:1450,0
DA:1823,0
DA:1825,0
DA:1826,0
DA:1823,0
DA:1825,0
DA:1826,0
DA:1823,0
DA:1825,0
DA:1826,0
DA:1829,0
DA:1834,0
DA:1835,0
DA:1829,0
DA:1834,0
DA:1835,0
DA:1829,0
DA:1834,0
DA:1835,0
DA:1846,0
DA:1846,0
DA:1846,0
DA:2041,0
DA:2042,0
DA:2043,0
DA:2041,0
DA:2042,0
DA:2043,0
DA:2041,0
DA:2042,0
DA:2043,0
DA:2046,0
DA:2047,0
DA:2046,0
DA:2047,0
DA:2046,0
DA:2047,0
DA:2079,0
DA:2081,0
DA:2082,0
DA:2085,0
DA:2086,0
DA:2089,0
DA:2091,0
DA:2093,0
DA:2094,0
DA:2079,0
DA:2081,0
DA:2082,0
DA:2085,0
DA:2086,0
DA:2089,0
DA:2091,0
DA:2093,0
DA:2094,0
DA:2079,0
DA:2081,0
DA:2082,0
DA:2085,0
DA:2086,0
DA:2089,0
DA:2091,0
DA:2093,0
DA:2094,0
DA:2100,0
DA:2102,0
DA:2103,0
DA:2104,0
DA:2100,0
DA:2102,0
DA:2103,0
DA:2104,0
DA:2100,0
DA:2102,0
DA:2103,0
DA:2104,0
DA:2108,0
DA:2111,0
DA:2112,0
DA:2113,0
DA:2114,0
DA:2108,0
DA:2111,0
DA:2112,0
DA:2113,0
DA:2114,0
DA:2108,0
DA:2111,0
DA:2112,0
DA:2113,0
DA:2114,0
DA:2118,0
DA:2120,0
DA:2122,0
DA:2123,0
DA:2124,0
DA:2126,0
DA:2118,0
DA:2120,0
DA:2122,0
DA:2123,0
DA:2124,0
DA:2126,0
DA:2118,0
DA:2120,0
DA:2122,0
DA:2123,0
DA:2124,0
DA:2126,0
DA:2130,0
DA:2132,0
DA:2134,0
DA:2135,0
DA:2136,0
DA:2137,0
DA:2130,0
DA:2132,0
DA:2134,0
DA:2135,0
DA:2136,0
DA:2137,0
DA:2130,0
DA:2132,0
DA:2134,0
DA:2135,0
DA:2136,0
DA:2137,0
DA:2142,0
DA:2146,0
DA:2147,0
DA:2148,0
DA:2149,0
DA:2142,0
DA:2146,0
DA:2147,0
DA:2148,0
DA:2149,0
DA:2142,0
DA:2146,0
DA:2147,0
DA:2148,0
DA:2149,0
end_of_record
SF:/usr/include/c++/9/bits/stl_function.h
FN:355,_ZNKSt8equal_toINSt7__cxx1112basic_stringIcSt11char_traitsIcESaIcEEEEclERKS5_S8_
FNDA:0,_ZNKSt8equal_toINSt7__cxx1112basic_stringIcSt11char_traitsIcESaIcEEEEclERKS5_S8_
DA:355,0
DA:356,0
end_of_record
SF:/usr/include/c++/9/new
FN:173,_ZnwmPv
FNDA:0,_ZnwmPv
FN:179,_ZdlPvS_
FNDA:0,_ZdlPvS_
DA:173,0
DA:174,0
DA:179,0
end_of_record
SF:/usr/include/c++/9/array
FN:55,_ZNSt14__array_traitsIiLm4EE6_S_refERA4_Kim
FNDA:64,_ZNSt14__array_traitsIiLm4EE6_S_refERA4_Kim
FN:203,_ZNKSt5arrayIiLm4EE2atEm
FNDA:64,_ZNKSt5arrayIiLm4EE2atEm
DA:55,64
DA:56,64
DA:203,64
DA:207,64
DA:208,0
DA:211,64
end_of_record
SF:/usr/include/c++/9/ext/aligned_buffer.h
FN:102,_ZN9__gnu_cxx16__aligned_bufferISt4pairIKNSt7__cxx1112basic_stringIcSt11char_traitsIcESaIcEEESt5arrayIiLm4EEEE7_M_addrEv
FNDA:0,_ZN9__gnu_cxx16__aligned_bufferISt4pairIKNSt7__cxx1112basic_stringIcSt11char_traitsIcESaIcEEESt5arrayIiLm4EEEE7_M_addrEv
FN:102,_ZN9__gnu_cxx16__aligned_bufferISt4pairIKNSt7__cxx1112basic_stringIcSt11char_traitsIcESaIcEEEiEE7_M_addrEv
FNDA:0,_ZN9__gnu_cxx16__aligned_bufferISt4pairIKNSt7__cxx1112basic_stringIcSt11char_traitsIcESaIcEEEiEE7_M_addrEv
FN:102,_ZN9__gnu_cxx16__aligned_bufferISt4pairIKNSt7__cxx1112basic_stringIcSt11char_traitsIcESaIcEEESt6vectorIN9assembler11OperandTypeESaISB_EEEE7_M_addrEv
FNDA:0,_ZN9__gnu_cxx16__aligned_bufferISt4pairIKNSt7__cxx1112basic_stringIcSt11char_traitsIcESaIcEEESt6vectorIN9assembler11OperandTypeESaISB_EEEE7_M_addrEv
FN:114,_ZN9__gnu_cxx16__aligned_bufferISt4pairIKNSt7__cxx1112basic_stringIcSt11char_traitsIcESaIcEEESt5arrayIiLm4EEEE6_M_ptrEv
FNDA:0,_ZN9__gnu_cxx16__aligned_bufferISt4pairIKNSt7__cxx1112basic_stringIcSt11char_traitsIcESaIcEEESt5arrayIiLm4EEEE6_M_ptrEv
FN:114,_ZN9__gnu_cxx16__aligned_bufferISt4pairIKNSt7__cxx1112basic_stringIcSt11char_traitsIcESaIcEEEiEE6_M_ptrEv
FNDA:0,_ZN9__gnu_cxx16__aligned_bufferISt4pairIKNSt7__cxx1112basic_stringIcSt11char_traitsIcESaIcEEEiEE6_M_ptrEv
FN:114,_ZN9__gnu_cxx16__aligned_bufferISt4pairIKNSt7__cxx1112basic_stringIcSt11char_traitsIcESaIcEEESt6vectorIN9assembler11OperandTypeESaISB_EEEE6_M_ptrEv
FNDA:0,_ZN9__gnu_cxx16__aligned_bufferISt4pairIKNSt7__cxx1112basic_stringIcSt11char_traitsIcESaIcEEESt6vectorIN9assembler11OperandTypeESaISB_EEEE6_M_ptrEv
DA:102,0
DA:104,0
DA:102,0
DA:104,0
DA:102,0
DA:104,0
DA:114,0
DA:115,0
DA:114,0
DA:115,0
DA:114,0
DA:115,0
end_of_record
SF:/usr/include/c++/9/bits/basic_string.tcc
FN:206,_ZNSt7__cxx1112basic_stringIcSt11char_traitsIcESaIcEE12_M_constructIPcEEvT_S7_St20forward_iterator_tag
FNDA:0,_ZNSt7__cxx1112basic_stringIcSt11char_traitsIcESaIcEE12_M_constructIPcEEvT_S7_St20forward_iterator_tag
FN:206,_ZNSt7__cxx1112basic_stringIcSt11char_traitsIcESaIcEE12_M_constructIPKcEEvT_S8_St20forward_iterator_tag
FNDA:0,_ZNSt7__cxx1112basic_stringIcSt11char_traitsIcESaIcEE12_M_constructIPKcEEvT_S8_St20forward_iterator_tag
DA:206,0
DA:211,0
DA:212,0
DA:215,0
DA:217,0
DA:219,0
DA:220,0
DA:225,0
DA:226,0
DA:228,0
DA:229,0
DA:232,0
DA:233,0
DA:206,0
DA:211,0
DA:212,0
DA:215,0
DA:217,0
DA:219,0
DA:220,0
DA:225,0
DA:226,0
DA:228,0
DA:229,0
DA:232,0
DA:233,0
end_of_record
SF:/usr/include/c++/9/bits/stl_construct.h
FN:74,_ZSt10_ConstructINSt7__cxx1112basic_stringIcSt11char_traitsIcESaIcEEEJS5_EEvPT_DpOT0_
FNDA:0,_ZSt10_ConstructINSt7__cxx1112basic_stringIcSt11char_traitsIcESaIcEEEJS5_EEvPT_DpOT0_
FN:97,_ZSt8_DestroyINSt7__cxx1112basic_stringIcSt11char_traitsIcESaIcEEEEvPT_
FNDA:0,_ZSt8_DestroyINSt7__cxx1112basic_stringIcSt11char_traitsIcESaIcEEEEvPT_
FN:105,_ZNSt12_Destroy_auxILb0EE9__destroyIPNSt7__cxx1112basic_stringIcSt11char_traitsIcESaIcEEEEEvT_S9_
FNDA:0,_ZNSt12_Destroy_auxILb0EE9__destroyIPNSt7__cxx1112basic_stringIcSt11char_traitsIcESaIcEEEEEvT_S9_
FN:117,_ZNSt12_Destroy_auxILb1EE9__destroyIPiEEvT_S3_
FNDA:0,_ZNSt12_Destroy_auxILb1EE9__destroyIPiEEvT_S3_
FN:117,_ZNSt12_Destroy_auxILb1EE9__destroyIPN9assembler11OperandTypeEEEvT_S5_
FNDA:0,_ZNSt12_Destroy_auxILb1EE9__destroyIPN9assembler11OperandTypeEEEvT_S5_
FN:127,_ZSt8_DestroyIPiEvT_S1_
FNDA:0,_ZSt8_DestroyIPiEvT_S1_
FN:127,_ZSt8_DestroyIPNSt7__cxx1112basic_stringIcSt11char_traitsIcESaIcEEEEvT_S7_
FNDA:0,_ZSt8_DestroyIPNSt7__cxx1112basic_stringIcSt11char_traitsIcESaIcEEEEvT_S7_
FN:127,_ZSt8_DestroyIPN9assembler11OperandTypeEEvT_S3_
FNDA:0,_ZSt8_DestroyIPN9assembler11OperandTypeEEvT_S3_
FN:203,_ZSt8_DestroyIPiiEvT_S1_RSaIT0_E
FNDA:0,_ZSt8_DestroyIPiiEvT_S1_RSaIT0_E
FN:203,_ZSt8_DestroyIPNSt7__cxx1112basic_stringIcSt11char_traitsIcESaIcEEES5_EvT_S7_RSaIT0_E
FNDA:0,_ZSt8_DestroyIPNSt7__cxx1112basic_stringIcSt11char_traitsIcESaIcEEES5_EvT_S7_RSaIT0_E
FN:203,_ZSt8_DestroyIPN9assembler11OperandTypeES1_EvT_S3_RSaIT0_E
FNDA:0,_ZSt8_DestroyIPN9assembler11OperandTypeES1_EvT_S3_RSaIT0_E
DA:74,0
DA:75,0
DA:97,0
DA:98,0
DA:105,0
DA:107,0
DA:108,0
DA:109,0
DA:117,0
DA:117,0
DA:127,0
DA:137,0
DA:138,0
DA:127,0
DA:137,0
DA:138,0
DA:127,0
DA:137,0
DA:138,0
DA:203,0
DA:206,0
DA:207,0
DA:203,0
DA:206,0
DA:207,0
DA:203,0
DA:206,0
DA:207,0
end_of_record
SF:/usr/include/c++/9/bits/stl_iterator_base_funcs.h
FN:98,_ZSt10__distanceIPKSt4pairIKNSt7__cxx1112basic_stringIcSt11char_traitsIcESaIcEEESt5arrayIiLm4EEEENSt15iterator_traitsIT_E15difference_typeESE_SE_St26random_access_iterator_tag
FNDA:0,_ZSt10__distanceIPKSt4pairIKNSt7__cxx1112basic_stringIcSt11char_traitsIcESaIcEEESt5arrayIiLm4EEEENSt15iterator_traitsIT_E15difference_typeESE_SE_St26random_access_iterator_tag
FN:98,_ZSt10__distanceIPKSt4pairIKNSt7__cxx1112basic_stringIcSt11char_traitsIcESaIcEEESt6vectorIN9assembler11OperandTypeESaISA_EEEENSt15iterator_traitsIT_E15difference_typeESH_SH_St26random_access_iterator_tag
FNDA:0,_ZSt10__distanceIPKSt4pairIKNSt7__cxx1112basic_stringIcSt11char_traitsIcESaIcEEESt6vectorIN9assembler11OperandTypeESaISA_EEEENSt15iterator_traitsIT_E15difference_typeESH_SH_St26random_access_iterator_tag
FN:98,_ZSt10__distanceIPKSt4pairIKNSt7__cxx1112basic_stringIcSt11char_traitsIcESaIcEEEiEENSt15iterator_traitsIT_E15difference_typeESC_SC_St26random_access_iterator_tag
FNDA:0,_ZSt10__distanceIPKSt4pairIKNSt7__cxx1112basic_stringIcSt11char_traitsIcESaIcEEEiEENSt15iterator_traitsIT_E15difference_typeESC_SC_St26random_access_iterator_tag
FN:98,_ZSt10__distanceIPcENSt15iterator_traitsIT_E15difference_typeES2_S2_St26random_access_iterator_tag
FNDA:0,_ZSt10__distanceIPcENSt15iterator_traitsIT_E15difference_typeES2_S2_St26random_access_iterator_tag
FN:98,_ZSt10__distanceIPKcENSt15iterator_traitsIT_E15difference_typeES3_S3_St26random_access_iterator_tag
FNDA:0,_ZSt10__distanceIPKcENSt15iterator_traitsIT_E15difference_typeES3_S3_St26random_access_iterator_tag
FN:98,_ZSt10__distanceIPKN9assembler11OperandTypeEENSt15iterator_traitsIT_E15difference_typeES5_S5_St26random_access_iterator_tag
FNDA:0,_ZSt10__distanceIPKN9assembler11OperandTypeEENSt15iterator_traitsIT_E15difference_typeES5_S5_St26random_access_iterator_tag
FN:138,_ZSt8distanceIPKSt4pairIKNSt7__cxx1112basic_stringIcSt11char_traitsIcESaIcEEESt5arrayIiLm4EEEENSt15iterator_traitsIT_E15difference_typeESE_SE_
FNDA:0,_ZSt8distanceIPKSt4pairIKNSt7__cxx1112basic_stringIcSt11char_traitsIcESaIcEEESt5arrayIiLm4EEEENSt15iterator_traitsIT_E15difference_typeESE_SE_
FN:138,_ZSt8distanceIPKSt4pairIKNSt7__cxx1112basic_stringIcSt11char_traitsIcESaIcEEESt6vectorIN9assembler11OperandTypeESaISA_EEEENSt15iterator_traitsIT_E15difference_typeESH_SH_
FNDA:0,_ZSt8distanceIPKSt4pairIKNSt7__cxx1112basic_stringIcSt11char_traitsIcESaIcEEESt6vectorIN9assembler11OperandTypeESaISA_EEEENSt15iterator_traitsIT_E15difference_typeESH_SH_
FN:138,_ZSt8distanceIPKSt4pairIKNSt7__cxx1112basic_stringIcSt11char_traitsIcESaIcEEEiEENSt15iterator_traitsIT_E15difference_typeESC_SC_
FNDA:0,_ZSt8distanceIPKSt4pairIKNSt7__cxx1112basic_stringIcSt11char_traitsIcESaIcEEEiEENSt15iterator_traitsIT_E15difference_typeESC_SC_
FN:138,_ZSt8distanceIPcENSt15iterator_traitsIT_E15difference_typeES2_S2_
FNDA:0,_ZSt8distanceIPcENSt15iterator_traitsIT_E15difference_typeES2_S2_
FN:138,_ZSt8distanceIPKcENSt15iterator_traitsIT_E15difference_typeES3_S3_
FNDA:0,_ZSt8distanceIPKcENSt15iterator_traitsIT_E15difference_typeES3_S3_
FN:138,_ZSt8distanceIPKN9assembler11OperandTypeEENSt15iterator_traitsIT_E15difference_typeES5_S5_
FNDA:0,_ZSt8distanceIPKN9assembler11OperandTypeEENSt15iterator_traitsIT_E15difference_typeES5_S5_
DA:98,0
DA:104,0
DA:98,0
DA:104,0
DA:98,0
DA:104,0
DA:98,0
DA:104,0
DA:98,0
DA:104,0
DA:98,0
DA:104,0
DA:138,0
DA:141,0
DA:142,0
DA:138,0
DA:141,0
DA:142,0
DA:138,0
DA:141,0
DA:142,0
DA:138,0
DA:141,0
DA:142,0
DA:138,0
DA:141,0
DA:142,0
DA:138,0
DA:141,0
DA:142,0
end_of_record
SF:/usr/include/c++/9/bits/stl_iterator_base_types.h
FN:205,_ZSt19__iterator_categoryIPcENSt15iterator_traitsIT_E17iterator_categoryERKS2_
FNDA:0,_ZSt19__iterator_categoryIPcENSt15iterator_traitsIT_E17iterator_categoryERKS2_
FN:205,_ZSt19__iterator_categoryIPKcENSt15iterator_traitsIT_E17iterator_categoryERKS3_
FNDA:0,_ZSt19__iterator_categoryIPKcENSt15iterator_traitsIT_E17iterator_categoryERKS3_
FN:205,_ZSt19__iterator_categoryIPKSt4pairIKNSt7__cxx1112basic_stringIcSt11char_traitsIcESaIcEEESt5arrayIiLm4EEEENSt15iterator_traitsIT_E17iterator_categoryERKSE_
FNDA:0,_ZSt19__iterator_categoryIPKSt4pairIKNSt7__cxx1112basic_stringIcSt11char_traitsIcESaIcEEESt5arrayIiLm4EEEENSt15iterator_traitsIT_E17iterator_categoryERKSE_
FN:205,_ZSt19__iterator_categoryIPKSt4pairIKNSt7__cxx1112basic_stringIcSt11char_traitsIcESaIcEEESt6vectorIN9assembler11OperandTypeESaISA_EEEENSt15iterator_traitsIT_E17iterator_categoryERKSH_
FNDA:0,_ZSt19__iterator_categoryIPKSt4pairIKNSt7__cxx1112basic_stringIcSt11char_traitsIcESaIcEEESt6vectorIN9assembler11OperandTypeESaISA_EEEENSt15iterator_traitsIT_E17iterator_categoryERKSH_
FN:205,_ZSt19__iterator_categoryIPKSt4pairIKNSt7__cxx1112basic_stringIcSt11char_traitsIcESaIcEEEiEENSt15iterator_traitsIT_E17iterator_categoryERKSC_
FNDA:0,_ZSt19__iterator_categoryIPKSt4pairIKNSt7__cxx1112basic_stringIcSt11char_traitsIcESaIcEEEiEENSt15iterator_traitsIT_E17iterator_categoryERKSC_
FN:205,_ZSt19__iterator_categoryIPKN9assembler11OperandTypeEENSt15iterator_traitsIT_E17iterator_categoryERKS5_
FNDA:0,_ZSt19__iterator_categoryIPKN9assembler11OperandTypeEENSt15iterator_traitsIT_E17iterator_categoryERKS5_
DA:205,0
DA:206,0
DA:205,0
DA:206,0
DA:205,0
DA:206,0
DA:205,0
DA:206,0
DA:205,0
DA:206,0
DA:205,0
DA:206,0
end_of_record
SF:/usr/include/c++/9/ext/string_conversions.h
FN:54,_ZN9__gnu_cxx6__stoaIlicJiEEET0_PFT_PKT1_PPS3_DpT2_EPKcS5_PmS9_
FNDA:49,_ZN9__gnu_cxx6__stoaIlicJiEEET0_PFT_PKT1_PPS3_DpT2_EPKcS5_PmS9_
FN:63,_ZZN9__gnu_cxx6__stoaIlicJiEEET0_PFT_PKT1_PPS3_DpT2_EPKcS5_PmS9_EN11_Save_errnoC2Ev
FNDA:49,_ZZN9__gnu_cxx6__stoaIlicJiEEET0_PFT_PKT1_PPS3_DpT2_EPKcS5_PmS9_EN11_Save_errnoC2Ev
FN:64,_ZZN9__gnu_cxx6__stoaIlicJiEEET0_PFT_PKT1_PPS3_DpT2_EPKcS5_PmS9_EN11_Save_errnoD2Ev
FNDA:49,_ZZN9__gnu_cxx6__stoaIlicJiEEET0_PFT_PKT1_PPS3_DpT2_EPKcS5_PmS9_EN11_Save_errnoD2Ev
FN:73,_ZZN9__gnu_cxx6__stoaIlicJiEEET0_PFT_PKT1_PPS3_DpT2_EPKcS5_PmS9_EN10_Range_chk6_S_chkElSt17integral_constantIbLb1EE
FNDA:49,_ZZN9__gnu_cxx6__stoaIlicJiEEET0_PFT_PKT1_PPS3_DpT2_EPKcS5_PmS9_EN10_Range_chk6_S_chkElSt17integral_constantIbLb1EE
DA:54,49
DA:63,49
DA:64,49
DA:66,49
DA:73,49
DA:76,49
DA:80,49
DA:82,49
DA:83,0
DA:84,98
DA:85,49
DA:86,0
DA:88,49
DA:90,49
DA:91,0
DA:93,98
end_of_record
SF:/usr/include/c++/9/bits/hashtable.h
FN:342,_ZNKSt10_HashtableINSt7__cxx1112basic_stringIcSt11char_traitsIcESaIcEEESt4pairIKS5_iESaIS8_ENSt8__detail10_Select1stESt8equal_toIS5_ESt4hashIS5_ENSA_18_Mod_range_hashingENSA_20_Default_ranged_hashENSA_20_Prime_rehash_policyENSA_17_Hashtable_traitsILb1ELb0ELb1EEEE21_M_uses_single_bucketEPPNSA_15_Hash_node_baseE
FNDA:0,_ZNKSt10_HashtableINSt7__cxx1112basic_stringIcSt11char_traitsIcESaIcEEESt4pairIKS5_iESaIS8_ENSt8__detail10_Select1stESt8equal_toIS5_ESt4hashIS5_ENSA_18_Mod_range_hashingENSA_20_Default_ranged_hashENSA_20_Prime_rehash_policyENSA_17_Hashtable_traitsILb1ELb0ELb1EEEE21_M_uses_single_bucketEPPNSA_15_Hash_node_baseE
FN:342,_ZNKSt10_HashtableINSt7__cxx1112basic_stringIcSt11char_traitsIcESaIcEEESt4pairIKS5_St6vectorIN9assembler11OperandTypeESaISA_EEESaISD_ENSt8__detail10_Select1stESt8equal_toIS5_ESt4hashIS5_ENSF_18_Mod_range_hashingENSF_20_Default_ranged_hashENSF_20_Prime_rehash_policyENSF_17_Hashtable_traitsILb1ELb0ELb1EEEE21_M_uses_single_bucketEPPNSF_15_Hash_node_baseE
FNDA:0,_ZNKSt10_HashtableINSt7__cxx1112basic_stringIcSt11char_traitsIcESaIcEEESt4pairIKS5_St6vectorIN9assembler11OperandTypeESaISA_EEESaISD_ENSt8__detail10_Select1stESt8equal_toIS5_ESt4hashIS5_ENSF_18_Mod_range_hashingENSF_20_Default_ranged_hashENSF_20_Prime_rehash_policyENSF_17_Hashtable_traitsILb1ELb0ELb1EEEE21_M_uses_single_bucketEPPNSF_15_Hash_node_baseE
FN:342,_ZNKSt10_HashtableINSt7__cxx1112basic_stringIcSt11char_traitsIcESaIcEEESt4pairIKS5_St5arrayIiLm4EEESaISA_ENSt8__detail10_Select1stESt8equal_toIS5_ESt4hashIS5_ENSC_18_Mod_range_hashingENSC_20_Default_ranged_hashENSC_20_Prime_rehash_policyENSC_17_Hashtable_traitsILb1ELb0ELb1EEEE21_M_uses_single_bucketEPPNSC_15_Hash_node_baseE
FNDA:0,_ZNKSt10_HashtableINSt7__cxx1112basic_stringIcSt11char_traitsIcESaIcEEESt4pairIKS5_St5arrayIiLm4EEESaISA_ENSt8__detail10_Select1stESt8equal_toIS5_ESt4hashIS5_ENSC_18_Mod_range_hashingENSC_20_Default_ranged_hashENSC_20_Prime_rehash_policyENSC_17_Hashtable_traitsILb1ELb0ELb1EEEE21_M_uses_single_bucketEPPNSC_15_Hash_node_baseE
FN:353,_ZNSt10_HashtableINSt7__cxx1112basic_stringIcSt11char_traitsIcESaIcEEESt4pairIKS5_iESaIS8_ENSt8__detail10_Select1stESt8equal_toIS5_ESt4hashIS5_ENSA_18_Mod_range_hashingENSA_20_Default_ranged_hashENSA_20_Prime_rehash_policyENSA_17_Hashtable_traitsILb1ELb0ELb1EEEE19_M_allocate_bucketsEm
FNDA:0,_ZNSt10_HashtableINSt7__cxx1112basic_stringIcSt11char_traitsIcESaIcEEESt4pairIKS5_iESaIS8_ENSt8__detail10_Select1stESt8equal_toIS5_ESt4hashIS5_ENSA_18_Mod_range_hashingENSA_20_Default_ranged_hashENSA_20_Prime_rehash_policyENSA_17_Hashtable_traitsILb1ELb0ELb1EEEE19_M_allocate_bucketsEm
FN:353,_ZNSt10_HashtableINSt7__cxx1112basic_stringIcSt11char_traitsIcESaIcEEESt4pairIKS5_St6vectorIN9assembler11OperandTypeESaISA_EEESaISD_ENSt8__detail10_Select1stESt8equal_toIS5_ESt4hashIS5_ENSF_18_Mod_range_hashingENSF_20_Default_ranged_hashENSF_20_Prime_rehash_policyENSF_17_Hashtable_traitsILb1ELb0ELb1EEEE19_M_allocate_bucketsEm
FNDA:0,_ZNSt10_HashtableINSt7__cxx1112basic_stringIcSt11char_traitsIcESaIcEEESt4pairIKS5_St6vectorIN9assembler11OperandTypeESaISA_EEESaISD_ENSt8__detail10_Select1stESt8equal_toIS5_ESt4hashIS5_ENSF_18_Mod_range_hashingENSF_20_Default_ranged_hashENSF_20_Prime_rehash_policyENSF_17_Hashtable_traitsILb1ELb0ELb1EEEE19_M_allocate_bucketsEm
FN:353,_ZNSt10_HashtableINSt7__cxx1112basic_stringIcSt11char_traitsIcESaIcEEESt4pairIKS5_St5arrayIiLm4EEESaISA_ENSt8__detail10_Select1stESt8equal_toIS5_ESt4hashIS5_ENSC_18_Mod_range_hashingENSC_20_Default_ranged_hashENSC_20_Prime_rehash_policyENSC_17_Hashtable_traitsILb1ELb0ELb1EEEE19_M_allocate_bucketsEm
FNDA:0,_ZNSt10_HashtableINSt7__cxx1112basic_stringIcSt11char_traitsIcESaIcEEESt4pairIKS5_St5arrayIiLm4EEESaISA_ENSt8__detail10_Select1stESt8equal_toIS5_ESt4hashIS5_ENSC_18_Mod_range_hashingENSC_20_Default_ranged_hashENSC_20_Prime_rehash_policyENSC_17_Hashtable_traitsILb1ELb0ELb1EEEE19_M_allocate_bucketsEm
FN:365,_ZNSt10_HashtableINSt7__cxx1112basic_stringIcSt11char_traitsIcESaIcEEESt4pairIKS5_St6vectorIN9assembler11OperandTypeESaISA_EEESaISD_ENSt8__detail10_Select1stESt8equal_toIS5_ESt4hashIS5_ENSF_18_Mod_range_hashingENSF_20_Default_ranged_hashENSF_20_Prime_rehash_policyENSF_17_Hashtable_traitsILb1ELb0ELb1EEEE21_M_deallocate_bucketsEPPNSF_15_Hash_node_baseEm
FNDA:0,_ZNSt10_HashtableINSt7__cxx1112basic_stringIcSt11char_traitsIcESaIcEEESt4pairIKS5_St6vectorIN9assembler11OperandTypeESaISA_EEESaISD_ENSt8__detail10_Select1stESt8equal_toIS5_ESt4hashIS5_ENSF_18_Mod_range_hashingENSF_20_Default_ranged_hashENSF_20_Prime_rehash_policyENSF_17_Hashtable_traitsILb1ELb0ELb1EEEE21_M_deallocate_bucketsEPPNSF_15_Hash_node_baseEm
FN:365,_ZNSt10_HashtableINSt7__cxx1112basic_stringIcSt11char_traitsIcESaIcEEESt4pairIKS5_St5arrayIiLm4EEESaISA_ENSt8__detail10_Select1stESt8equal_toIS5_ESt4hashIS5_ENSC_18_Mod_range_hashingENSC_20_Default_ranged_hashENSC_20_Prime_rehash_policyENSC_17_Hashtable_traitsILb1ELb0ELb1EEEE21_M_deallocate_bucketsEPPNSC_15_Hash_node_baseEm
FNDA:0,_ZNSt10_HashtableINSt7__cxx1112basic_stringIcSt11char_traitsIcESaIcEEESt4pairIKS5_St5arrayIiLm4EEESaISA_ENSt8__detail10_Select1stESt8equal_toIS5_ESt4hashIS5_ENSC_18_Mod_range_hashingENSC_20_Default_ranged_hashENSC_20_Prime_rehash_policyENSC_17_Hashtable_traitsILb1ELb0ELb1EEEE21_M_deallocate_bucketsEPPNSC_15_Hash_node_baseEm
FN:365,_ZNSt10_HashtableINSt7__cxx1112basic_stringIcSt11char_traitsIcESaIcEEESt4pairIKS5_iESaIS8_ENSt8__detail10_Select1stESt8equal_toIS5_ESt4hashIS5_ENSA_18_Mod_range_hashingENSA_20_Default_ranged_hashENSA_20_Prime_rehash_policyENSA_17_Hashtable_traitsILb1ELb0ELb1EEEE21_M_deallocate_bucketsEPPNSA_15_Hash_node_baseEm
FNDA:0,_ZNSt10_HashtableINSt7__cxx1112basic_stringIcSt11char_traitsIcESaIcEEESt4pairIKS5_iESaIS8_ENSt8__detail10_Select1stESt8equal_toIS5_ESt4hashIS5_ENSA_18_Mod_range_hashingENSA_20_Default_ranged_hashENSA_20_Prime_rehash_policyENSA_17_Hashtable_traitsILb1ELb0ELb1EEEE21_M_deallocate_bucketsEPPNSA_15_Hash_node_baseEm
FN:374,_ZNSt10_HashtableINSt7__cxx1112basic_stringIcSt11char_traitsIcESaIcEEESt4pairIKS5_iESaIS8_ENSt8__detail10_Select1stESt8equal_toIS5_ESt4hashIS5_ENSA_18_Mod_range_hashingENSA_20_Default_ranged_hashENSA_20_Prime_rehash_policyENSA_17_Hashtable_traitsILb1ELb0ELb1EEEE21_M_deallocate_bucketsEv
FNDA:0,_ZNSt10_HashtableINSt7__cxx1112basic_stringIcSt11char_traitsIcESaIcEEESt4pairIKS5_iESaIS8_ENSt8__detail10_Select1stESt8equal_toIS5_ESt4hashIS5_ENSA_18_Mod_range_hashingENSA_20_Default_ranged_hashENSA_20_Prime_rehash_policyENSA_17_Hashtable_traitsILb1ELb0ELb1EEEE21_M_deallocate_bucketsEv
FN:374,_ZNSt10_HashtableINSt7__cxx1112basic_stringIcSt11char_traitsIcESaIcEEESt4pairIKS5_St5arrayIiLm4EEESaISA_ENSt8__detail10_Select1stESt8equal_toIS5_ESt4hashIS5_ENSC_18_Mod_range_hashingENSC_20_Default_ranged_hashENSC_20_Prime_rehash_policyENSC_17_Hashtable_traitsILb1ELb0ELb1EEEE21_M_deallocate_bucketsEv
FNDA:0,_ZNSt10_HashtableINSt7__cxx1112basic_stringIcSt11char_traitsIcESaIcEEESt4pairIKS5_St5arrayIiLm4EEESaISA_ENSt8__detail10_Select1stESt8equal_toIS5_ESt4hashIS5_ENSC_18_Mod_range_hashingENSC_20_Default_ranged_hashENSC_20_Prime_rehash_policyENSC_17_Hashtable_traitsILb1ELb0ELb1EEEE21_M_deallocate_bucketsEv
FN:374,_ZNSt10_HashtableINSt7__cxx1112basic_stringIcSt11char_traitsIcESaIcEEESt4pairIKS5_St6vectorIN9assembler11OperandTypeESaISA_EEESaISD_ENSt8__detail10_Select1stESt8equal_toIS5_ESt4hashIS5_ENSF_18_Mod_range_hashingENSF_20_Default_ranged_hashENSF_20_Prime_rehash_policyENSF_17_Hashtable_traitsILb1ELb0ELb1EEEE21_M_deallocate_bucketsEv
FNDA:0,_ZNSt10_HashtableINSt7__cxx1112basic_stringIcSt11char_traitsIcESaIcEEESt4pairIKS5_St6vectorIN9assembler11OperandTypeESaISA_EEESaISD_ENSt8__detail10_Select1stESt8equal_toIS5_ESt4hashIS5_ENSF_18_Mod_range_hashingENSF_20_Default_ranged_hashENSF_20_Prime_rehash_policyENSF_17_Hashtable_traitsILb1ELb0ELb1EEEE21_M_deallocate_bucketsEv
FN:383,_ZNKSt10_HashtableINSt7__cxx1112basic_stringIcSt11char_traitsIcESaIcEEESt4pairIKS5_iESaIS8_ENSt8__detail10_Select1stESt8equal_toIS5_ESt4hashIS5_ENSA_18_Mod_range_hashingENSA_20_Default_ranged_hashENSA_20_Prime_rehash_policyENSA_17_Hashtable_traitsILb1ELb0ELb1EEEE8_M_beginEv
FNDA:0,_ZNKSt10_HashtableINSt7__cxx1112basic_stringIcSt11char_traitsIcESaIcEEESt4pairIKS5_iESaIS8_ENSt8__detail10_Select1stESt8equal_toIS5_ESt4hashIS5_ENSA_18_Mod_range_hashingENSA_20_Default_ranged_hashENSA_20_Prime_rehash_policyENSA_17_Hashtable_traitsILb1ELb0ELb1EEEE8_M_beginEv
FN:383,_ZNKSt10_HashtableINSt7__cxx1112basic_stringIcSt11char_traitsIcESaIcEEESt4pairIKS5_St6vectorIN9assembler11OperandTypeESaISA_EEESaISD_ENSt8__detail10_Select1stESt8equal_toIS5_ESt4hashIS5_ENSF_18_Mod_range_hashingENSF_20_Default_ranged_hashENSF_20_Prime_rehash_policyENSF_17_Hashtable_traitsILb1ELb0ELb1EEEE8_M_beginEv
FNDA:0,_ZNKSt10_HashtableINSt7__cxx1112basic_stringIcSt11char_traitsIcESaIcEEESt4pairIKS5_St6vectorIN9assembler11OperandTypeESaISA_EEESaISD_ENSt8__detail10_Select1stESt8equal_toIS5_ESt4hashIS5_ENSF_18_Mod_range_hashingENSF_20_Default_ranged_hashENSF_20_Prime_rehash_policyENSF_17_Hashtable_traitsILb1ELb0ELb1EEEE8_M_beginEv
FN:383,_ZNKSt10_HashtableINSt7__cxx1112basic_stringIcSt11char_traitsIcESaIcEEESt4pairIKS5_St5arrayIiLm4EEESaISA_ENSt8__detail10_Select1stESt8equal_toIS5_ESt4hashIS5_ENSC_18_Mod_range_hashingENSC_20_Default_ranged_hashENSC_20_Prime_rehash_policyENSC_17_Hashtable_traitsILb1ELb0ELb1EEEE8_M_beginEv
FNDA:0,_ZNKSt10_HashtableINSt7__cxx1112basic_stringIcSt11char_traitsIcESaIcEEESt4pairIKS5_St5arrayIiLm4EEESaISA_ENSt8__detail10_Select1stESt8equal_toIS5_ESt4hashIS5_ENSC_18_Mod_range_hashingENSC_20_Default_ranged_hashENSC_20_Prime_rehash_policyENSC_17_Hashtable_traitsILb1ELb0ELb1EEEE8_M_beginEv
FN:405,_ZNSt10_HashtableINSt7__cxx1112basic_stringIcSt11char_traitsIcESaIcEEESt4pairIKS5_iESaIS8_ENSt8__detail10_Select1stESt8equal_toIS5_ESt4hashIS5_ENSA_18_Mod_range_hashingENSA_20_Default_ranged_hashENSA_20_Prime_rehash_policyENSA_17_Hashtable_traitsILb1ELb0ELb1EEEEC2ERKSF_RKSG_RKSH_RKSD_RKSB_RKS9_
FNDA:0,_ZNSt10_HashtableINSt7__cxx1112basic_stringIcSt11char_traitsIcESaIcEEESt4pairIKS5_iESaIS8_ENSt8__detail10_Select1stESt8equal_toIS5_ESt4hashIS5_ENSA_18_Mod_range_hashingENSA_20_Default_ranged_hashENSA_20_Prime_rehash_policyENSA_17_Hashtable_traitsILb1ELb0ELb1EEEEC2ERKSF_RKSG_RKSH_RKSD_RKSB_RKS9_
FN:405,_ZNSt10_HashtableINSt7__cxx1112basic_stringIcSt11char_traitsIcESaIcEEESt4pairIKS5_St6vectorIN9assembler11OperandTypeESaISA_EEESaISD_ENSt8__detail10_Select1stESt8equal_toIS5_ESt4hashIS5_ENSF_18_Mod_range_hashingENSF_20_Default_ranged_hashENSF_20_Prime_rehash_policyENSF_17_Hashtable_traitsILb1ELb0ELb1EEEEC2ERKSK_RKSL_RKSM_RKSI_RKSG_RKSE_
FNDA:0,_ZNSt10_HashtableINSt7__cxx1112basic_stringIcSt11char_traitsIcESaIcEEESt4pairIKS5_St6vectorIN9assembler11OperandTypeESaISA_EEESaISD_ENSt8__detail10_Select1stESt8equal_toIS5_ESt4hashIS5_ENSF_18_Mod_range_hashingENSF_20_Default_ranged_hashENSF_20_Prime_rehash_policyENSF_17_Hashtable_traitsILb1ELb0ELb1EEEEC2ERKSK_RKSL_RKSM_RKSI_RKSG_RKSE_
FN:405,_ZNSt10_HashtableINSt7__cxx1112basic_stringIcSt11char_traitsIcESaIcEEESt4pairIKS5_St5arrayIiLm4EEESaISA_ENSt8__detail10_Select1stESt8equal_toIS5_ESt4hashIS5_ENSC_18_Mod_range_hashingENSC_20_Default_ranged_hashENSC_20_Prime_rehash_policyENSC_17_Hashtable_traitsILb1ELb0ELb1EEEEC2ERKSH_RKSI_RKSJ_RKSF_RKSD_RKSB_
FNDA:0,_ZNSt10_HashtableINSt7__cxx1112basic_stringIcSt11char_traitsIcESaIcEEESt4pairIKS5_St5arrayIiLm4EEESaISA_ENSt8__detail10_Select1stESt8equal_toIS5_ESt4hashIS5_ENSC_18_Mod_range_hashingENSC_20_Default_ranged_hashENSC_20_Prime_rehash_policyENSC_17_Hashtable_traitsILb1ELb0ELb1EEEEC2ERKSH_RKSI_RKSJ_RKSF_RKSD_RKSB_
FN:492,_ZNSt10_HashtableINSt7__cxx1112basic_stringIcSt11char_traitsIcESaIcEEESt4pairIKS5_iESaIS8_ENSt8__detail10_Select1stESt8equal_toIS5_ESt4hashIS5_ENSA_18_Mod_range_hashingENSA_20_Default_ranged_hashENSA_20_Prime_rehash_policyENSA_17_Hashtable_traitsILb1ELb0ELb1EEEEC2ESt16initializer_listIS8_EmRKSF_RKSD_RKS9_
FNDA:0,_ZNSt10_HashtableINSt7__cxx1112basic_stringIcSt11char_traitsIcESaIcEEESt4pairIKS5_iESaIS8_ENSt8__detail10_Select1stESt8equal_toIS5_ESt4hashIS5_ENSA_18_Mod_range_hashingENSA_20_Default_ranged_hashENSA_20_Prime_rehash_policyENSA_17_Hashtable_traitsILb1ELb0ELb1EEEEC2ESt16initializer_listIS8_EmRKSF_RKSD_RKS9_
FN:492,_ZNSt10_HashtableINSt7__cxx1112basic_stringIcSt11char_traitsIcESaIcEEESt4pairIKS5_St6vectorIN9assembler11OperandTypeESaISA_EEESaISD_ENSt8__detail10_Select1stESt8equal_toIS5_ESt4hashIS5_ENSF_18_Mod_range_hashingENSF_20_Default_ranged_hashENSF_20_Prime_rehash_policyENSF_17_Hashtable_traitsILb1ELb0ELb1EEEEC2ESt16initializer_listISD_EmRKSK_RKSI_RKSE_
FNDA:0,_ZNSt10_HashtableINSt7__cxx1112basic_stringIcSt11char_traitsIcESaIcEEESt4pairIKS5_St6vectorIN9assembler11OperandTypeESaISA_EEESaISD_ENSt8__detail10_Select1stESt8equal_toIS5_ESt4hashIS5_ENSF_18_Mod_range_hashingENSF_20_Default_ranged_hashENSF_20_Prime_rehash_policyENSF_17_Hashtable_traitsILb1ELb0ELb1EEEEC2ESt16initializer_listISD_EmRKSK_RKSI_RKSE_
FN:492,_ZNSt10_HashtableINSt7__cxx1112basic_stringIcSt11char_traitsIcESaIcEEESt4pairIKS5_St5arrayIiLm4EEESaISA_ENSt8__detail10_Select1stESt8equal_toIS5_ESt4hashIS5_ENSC_18_Mod_range_hashingENSC_20_Default_ranged_hashENSC_20_Prime_rehash_policyENSC_17_Hashtable_traitsILb1ELb0ELb1EEEEC2ESt16initializer_listISA_EmRKSH_RKSF_RKSB_
FNDA:0,_ZNSt10_HashtableINSt7__cxx1112basic_stringIcSt11char_traitsIcESaIcEEESt4pairIKS5_St5arrayIiLm4EEESaISA_ENSt8__detail10_Select1stESt8equal_toIS5_ESt4hashIS5_ENSC_18_Mod_range_hashingENSC_20_Default_ranged_hashENSC_20_Prime_rehash_policyENSC_17_Hashtable_traitsILb1ELb0ELb1EEEEC2ESt16initializer_listISA_EmRKSH_RKSF_RKSB_
FN:548,_ZNKSt10_HashtableINSt7__cxx1112basic_stringIcSt11char_traitsIcESaIcEEESt4pairIKS5_iESaIS8_ENSt8__detail10_Select1stESt8equal_toIS5_ESt4hashIS5_ENSA_18_Mod_range_hashingENSA_20_Default_ranged_hashENSA_20_Prime_rehash_policyENSA_17_Hashtable_traitsILb1ELb0ELb1EEEE3endEv
FNDA:26,_ZNKSt10_HashtableINSt7__cxx1112basic_stringIcSt11char_traitsIcESaIcEEESt4pairIKS5_iESaIS8_ENSt8__detail10_Select1stESt8equal_toIS5_ESt4hashIS5_ENSA_18_Mod_range_hashingENSA_20_Default_ranged_hashENSA_20_Prime_rehash_policyENSA_17_Hashtable_traitsILb1ELb0ELb1EEEE3endEv
FN:671,_ZNKSt10_HashtableINSt7__cxx1112basic_stringIcSt11char_traitsIcESaIcEEESt4pairIKS5_iESaIS8_ENSt8__detail10_Select1stESt8equal_toIS5_ESt4hashIS5_ENSA_18_Mod_range_hashingENSA_20_Default_ranged_hashENSA_20_Prime_rehash_policyENSA_17_Hashtable_traitsILb1ELb0ELb1EEEE15_M_bucket_indexEPNSA_10_Hash_nodeIS8_Lb1EEE
FNDA:0,_ZNKSt10_HashtableINSt7__cxx1112basic_stringIcSt11char_traitsIcESaIcEEESt4pairIKS5_iESaIS8_ENSt8__detail10_Select1stESt8equal_toIS5_ESt4hashIS5_ENSA_18_Mod_range_hashingENSA_20_Default_ranged_hashENSA_20_Prime_rehash_policyENSA_17_Hashtable_traitsILb1ELb0ELb1EEEE15_M_bucket_indexEPNSA_10_Hash_nodeIS8_Lb1EEE
FN:671,_ZNKSt10_HashtableINSt7__cxx1112basic_stringIcSt11char_traitsIcESaIcEEESt4pairIKS5_St6vectorIN9assembler11OperandTypeESaISA_EEESaISD_ENSt8__detail10_Select1stESt8equal_toIS5_ESt4hashIS5_ENSF_18_Mod_range_hashingENSF_20_Default_ranged_hashENSF_20_Prime_rehash_policyENSF_17_Hashtable_traitsILb1ELb0ELb1EEEE15_M_bucket_indexEPNSF_10_Hash_nodeISD_Lb1EEE
FNDA:0,_ZNKSt10_HashtableINSt7__cxx1112basic_stringIcSt11char_traitsIcESaIcEEESt4pairIKS5_St6vectorIN9assembler11OperandTypeESaISA_EEESaISD_ENSt8__detail10_Select1stESt8equal_toIS5_ESt4hashIS5_ENSF_18_Mod_range_hashingENSF_20_Default_ranged_hashENSF_20_Prime_rehash_policyENSF_17_Hashtable_traitsILb1ELb0ELb1EEEE15_M_bucket_indexEPNSF_10_Hash_nodeISD_Lb1EEE
FN:671,_ZNKSt10_HashtableINSt7__cxx1112basic_stringIcSt11char_traitsIcESaIcEEESt4pairIKS5_St5arrayIiLm4EEESaISA_ENSt8__detail10_Select1stESt8equal_toIS5_ESt4hashIS5_ENSC_18_Mod_range_hashingENSC_20_Default_ranged_hashENSC_20_Prime_rehash_policyENSC_17_Hashtable_traitsILb1ELb0ELb1EEEE15_M_bucket_indexEPNSC_10_Hash_nodeISA_Lb1EEE
FNDA:0,_ZNKSt10_HashtableINSt7__cxx1112basic_stringIcSt11char_traitsIcESaIcEEESt4pairIKS5_St5arrayIiLm4EEESaISA_ENSt8__detail10_Select1stESt8equal_toIS5_ESt4hashIS5_ENSC_18_Mod_range_hashingENSC_20_Default_ranged_hashENSC_20_Prime_rehash_policyENSC_17_Hashtable_traitsILb1ELb0ELb1EEEE15_M_bucket_indexEPNSC_10_Hash_nodeISA_Lb1EEE
FN:675,_ZNKSt10_HashtableINSt7__cxx1112basic_stringIcSt11char_traitsIcESaIcEEESt4pairIKS5_St6vectorIN9assembler11OperandTypeESaISA_EEESaISD_ENSt8__detail10_Select1stESt8equal_toIS5_ESt4hashIS5_ENSF_18_Mod_range_hashingENSF_20_Default_ranged_hashENSF_20_Prime_rehash_policyENSF_17_Hashtable_traitsILb1ELb0ELb1EEEE15_M_bucket_indexERS7_m
FNDA:0,_ZNKSt10_HashtableINSt7__cxx1112basic_stringIcSt11char_traitsIcESaIcEEESt4pairIKS5_St6vectorIN9assembler11OperandTypeESaISA_EEESaISD_ENSt8__detail10_Select1stESt8equal_toIS5_ESt4hashIS5_ENSF_18_Mod_range_hashingENSF_20_Default_ranged_hashENSF_20_Prime_rehash_policyENSF_17_Hashtable_traitsILb1ELb0ELb1EEEE15_M_bucket_indexERS7_m
FN:675,_ZNKSt10_HashtableINSt7__cxx1112basic_stringIcSt11char_traitsIcESaIcEEESt4pairIKS5_iESaIS8_ENSt8__detail10_Select1stESt8equal_toIS5_ESt4hashIS5_ENSA_18_Mod_range_hashingENSA_20_Default_ranged_hashENSA_20_Prime_rehash_policyENSA_17_Hashtable_traitsILb1ELb0ELb1EEEE15_M_bucket_indexERS7_m
FNDA:0,_ZNKSt10_HashtableINSt7__cxx1112basic_stringIcSt11char_traitsIcESaIcEEESt4pairIKS5_iESaIS8_ENSt8__detail10_Select1stESt8equal_toIS5_ESt4hashIS5_ENSA_18_Mod_range_hashingENSA_20_Default_ranged_hashENSA_20_Prime_rehash_policyENSA_17_Hashtable_traitsILb1ELb0ELb1EEEE15_M_bucket_indexERS7_m
FN:675,_ZNKSt10_HashtableINSt7__cxx1112basic_stringIcSt11char_traitsIcESaIcEEESt4pairIKS5_St5arrayIiLm4EEESaISA_ENSt8__detail10_Select1stESt8equal_toIS5_ESt4hashIS5_ENSC_18_Mod_range_hashingENSC_20_Default_ranged_hashENSC_20_Prime_rehash_policyENSC_17_Hashtable_traitsILb1ELb0ELb1EEEE15_M_bucket_indexERS7_m
FNDA:0,_ZNKSt10_HashtableINSt7__cxx1112basic_stringIcSt11char_traitsIcESaIcEEESt4pairIKS5_St5arrayIiLm4EEESaISA_ENSt8__detail10_Select1stESt8equal_toIS5_ESt4hashIS5_ENSC_18_Mod_range_hashingENSC_20_Default_ranged_hashENSC_20_Prime_rehash_policyENSC_17_Hashtable_traitsILb1ELb0ELb1EEEE15_M_bucket_indexERS7_m
FN:684,_ZNKSt10_HashtableINSt7__cxx1112basic_stringIcSt11char_traitsIcESaIcEEESt4pairIKS5_iESaIS8_ENSt8__detail10_Select1stESt8equal_toIS5_ESt4hashIS5_ENSA_18_Mod_range_hashingENSA_20_Default_ranged_hashENSA_20_Prime_rehash_policyENSA_17_Hashtable_traitsILb1ELb0ELb1EEEE12_M_find_nodeEmRS7_m
FNDA:0,_ZNKSt10_HashtableINSt7__cxx1112basic_stringIcSt11char_traitsIcESaIcEEESt4pairIKS5_iESaIS8_ENSt8__detail10_Select1stESt8equal_toIS5_ESt4hashIS5_ENSA_18_Mod_range_hashingENSA_20_Default_ranged_hashENSA_20_Prime_rehash_policyENSA_17_Hashtable_traitsILb1ELb0ELb1EEEE12_M_find_nodeEmRS7_m
FN:684,_ZNKSt10_HashtableINSt7__cxx1112basic_stringIcSt11char_traitsIcESaIcEEESt4pairIKS5_St6vectorIN9assembler11OperandTypeESaISA_EEESaISD_ENSt8__detail10_Select1stESt8equal_toIS5_ESt4hashIS5_ENSF_18_Mod_range_hashingENSF_20_Default_ranged_hashENSF_20_Prime_rehash_policyENSF_17_Hashtable_traitsILb1ELb0ELb1EEEE12_M_find_nodeEmRS7_m
FNDA:0,_ZNKSt10_HashtableINSt7__cxx1112basic_stringIcSt11char_traitsIcESaIcEEESt4pairIKS5_St6vectorIN9assembler11OperandTypeESaISA_EEESaISD_ENSt8__detail10_Select1stESt8equal_toIS5_ESt4hashIS5_ENSF_18_Mod_range_hashingENSF_20_Default_ranged_hashENSF_20_Prime_rehash_policyENSF_17_Hashtable_traitsILb1ELb0ELb1EEEE12_M_find_nodeEmRS7_m
FN:684,_ZNKSt10_HashtableINSt7__cxx1112basic_stringIcSt11char_traitsIcESaIcEEESt4pairIKS5_St5arrayIiLm4EEESaISA_ENSt8__detail10_Select1stESt8equal_toIS5_ESt4hashIS5_ENSC_18_Mod_range_hashingENSC_20_Default_ranged_hashENSC_20_Prime_rehash_policyENSC_17_Hashtable_traitsILb1ELb0ELb1EEEE12_M_find_nodeEmRS7_m
FNDA:0,_ZNKSt10_HashtableINSt7__cxx1112basic_stringIcSt11char_traitsIcESaIcEEESt4pairIKS5_St5arrayIiLm4EEESaISA_ENSt8__detail10_Select1stESt8equal_toIS5_ESt4hashIS5_ENSC_18_Mod_range_hashingENSC_20_Default_ranged_hashENSC_20_Prime_rehash_policyENSC_17_Hashtable_traitsILb1ELb0ELb1EEEE12_M_find_nodeEmRS7_m
FN:1004,_ZNSt10_HashtableINSt7__cxx1112basic_stringIcSt11char_traitsIcESaIcEEESt4pairIKS5_iESaIS8_ENSt8__detail10_Select1stESt8equal_toIS5_ESt4hashIS5_ENSA_18_Mod_range_hashingENSA_20_Default_ranged_hashENSA_20_Prime_rehash_policyENSA_17_Hashtable_traitsILb1ELb0ELb1EEEEC2IPKS8_EET_SP_mRKSF_RKSG_RKSH_RKSD_RKSB_RKS9_
FNDA:0,_ZNSt10_HashtableINSt7__cxx1112basic_stringIcSt11char_traitsIcESaIcEEESt4pairIKS5_iESaIS8_ENSt8__detail10_Select1stESt8equal_toIS5_ESt4hashIS5_ENSA_18_Mod_range_hashingENSA_20_Default_ranged_hashENSA_20_Prime_rehash_policyENSA_17_Hashtable_traitsILb1ELb0ELb1EEEEC2IPKS8_EET_SP_mRKSF_RKSG_RKSH_RKSD_RKSB_RKS9_
FN:1004,_ZNSt10_HashtableINSt7__cxx1112basic_stringIcSt11char_traitsIcESaIcEEESt4pairIKS5_St5arrayIiLm4EEESaISA_ENSt8__detail10_Select1stESt8equal_toIS5_ESt4hashIS5_ENSC_18_Mod_range_hashingENSC_20_Default_ranged_hashENSC_20_Prime_rehash_policyENSC_17_Hashtable_traitsILb1ELb0ELb1EEEEC2IPKSA_EET_SR_mRKSH_RKSI_RKSJ_RKSF_RKSD_RKSB_
FNDA:0,_ZNSt10_HashtableINSt7__cxx1112basic_stringIcSt11char_traitsIcESaIcEEESt4pairIKS5_St5arrayIiLm4EEESaISA_ENSt8__detail10_Select1stESt8equal_toIS5_ESt4hashIS5_ENSC_18_Mod_range_hashingENSC_20_Default_ranged_hashENSC_20_Prime_rehash_policyENSC_17_Hashtable_traitsILb1ELb0ELb1EEEEC2IPKSA_EET_SR_mRKSH_RKSI_RKSJ_RKSF_RKSD_RKSB_
FN:1004,_ZNSt10_HashtableINSt7__cxx1112basic_stringIcSt11char_traitsIcESaIcEEESt4pairIKS5_St6vectorIN9assembler11OperandTypeESaISA_EEESaISD_ENSt8__detail10_Select1stESt8equal_toIS5_ESt4hashIS5_ENSF_18_Mod_range_hashingENSF_20_Default_ranged_hashENSF_20_Prime_rehash_policyENSF_17_Hashtable_traitsILb1ELb0ELb1EEEEC2IPKSD_EET_SU_mRKSK_RKSL_RKSM_RKSI_RKSG_RKSE_
FNDA:0,_ZNSt10_HashtableINSt7__cxx1112basic_stringIcSt11char_traitsIcESaIcEEESt4pairIKS5_St6vectorIN9assembler11OperandTypeESaISA_EEESaISD_ENSt8__detail10_Select1stESt8equal_toIS5_ESt4hashIS5_ENSF_18_Mod_range_hashingENSF_20_Default_ranged_hashENSF_20_Prime_rehash_policyENSF_17_Hashtable_traitsILb1ELb0ELb1EEEEC2IPKSD_EET_SU_mRKSK_RKSL_RKSM_RKSI_RKSG_RKSE_
FN:1383,_ZNSt10_HashtableINSt7__cxx1112basic_stringIcSt11char_traitsIcESaIcEEESt4pairIKS5_St5arrayIiLm4EEESaISA_ENSt8__detail10_Select1stESt8equal_toIS5_ESt4hashIS5_ENSC_18_Mod_range_hashingENSC_20_Default_ranged_hashENSC_20_Prime_rehash_policyENSC_17_Hashtable_traitsILb1ELb0ELb1EEEED2Ev
FNDA:0,_ZNSt10_HashtableINSt7__cxx1112basic_stringIcSt11char_traitsIcESaIcEEESt4pairIKS5_St5arrayIiLm4EEESaISA_ENSt8__detail10_Select1stESt8equal_toIS5_ESt4hashIS5_ENSC_18_Mod_range_hashingENSC_20_Default_ranged_hashENSC_20_Prime_rehash_policyENSC_17_Hashtable_traitsILb1ELb0ELb1EEEED2Ev
FN:1383,_ZNSt10_HashtableINSt7__cxx1112basic_stringIcSt11char_traitsIcESaIcEEESt4pairIKS5_iESaIS8_ENSt8__detail10_Select1stESt8equal_toIS5_ESt4hashIS5_ENSA_18_Mod_range_hashingENSA_20_Default_ranged_hashENSA_20_Prime_rehash_policyENSA_17_Hashtable_traitsILb1ELb0ELb1EEEED2Ev
FNDA:0,_ZNSt10_HashtableINSt7__cxx1112basic_stringIcSt11char_traitsIcESaIcEEESt4pairIKS5_iESaIS8_ENSt8__detail10_Select1stESt8equal_toIS5_ESt4hashIS5_ENSA_18_Mod_range_hashingENSA_20_Default_ranged_hashENSA_20_Prime_rehash_policyENSA_17_Hashtable_traitsILb1ELb0ELb1EEEED2Ev
FN:1383,_ZNSt10_HashtableINSt7__cxx1112basic_stringIcSt11char_traitsIcESaIcEEESt4pairIKS5_St6vectorIN9assembler11OperandTypeESaISA_EEESaISD_ENSt8__detail10_Select1stESt8equal_toIS5_ESt4hashIS5_ENSF_18_Mod_range_hashingENSF_20_Default_ranged_hashENSF_20_Prime_rehash_policyENSF_17_Hashtable_traitsILb1ELb0ELb1EEEED2Ev
FNDA:0,_ZNSt10_HashtableINSt7__cxx1112basic_stringIcSt11char_traitsIcESaIcEEESt4pairIKS5_St6vectorIN9assembler11OperandTypeESaISA_EEESaISD_ENSt8__detail10_Select1stESt8equal_toIS5_ESt4hashIS5_ENSF_18_Mod_range_hashingENSF_20_Default_ranged_hashENSF_20_Prime_rehash_policyENSF_17_Hashtable_traitsILb1ELb0ELb1EEEED2Ev
FN:1463,_ZNKSt10_HashtableINSt7__cxx1112basic_stringIcSt11char_traitsIcESaIcEEESt4pairIKS5_iESaIS8_ENSt8__detail10_Select1stESt8equal_toIS5_ESt4hashIS5_ENSA_18_Mod_range_hashingENSA_20_Default_ranged_hashENSA_20_Prime_rehash_policyENSA_17_Hashtable_traitsILb1ELb0ELb1EEEE4findERS7_
FNDA:24,_ZNKSt10_HashtableINSt7__cxx1112basic_stringIcSt11char_traitsIcESaIcEEESt4pairIKS5_iESaIS8_ENSt8__detail10_Select1stESt8equal_toIS5_ESt4hashIS5_ENSA_18_Mod_range_hashingENSA_20_Default_ranged_hashENSA_20_Prime_rehash_policyENSA_17_Hashtable_traitsILb1ELb0ELb1EEEE4findERS7_
FN:1567,_ZNKSt10_HashtableINSt7__cxx1112basic_stringIcSt11char_traitsIcESaIcEEESt4pairIKS5_St6vectorIN9assembler11OperandTypeESaISA_EEESaISD_ENSt8__detail10_Select1stESt8equal_toIS5_ESt4hashIS5_ENSF_18_Mod_range_hashingENSF_20_Default_ranged_hashENSF_20_Prime_rehash_policyENSF_17_Hashtable_traitsILb1ELb0ELb1EEEE19_M_find_before_nodeEmRS7_m
FNDA:0,_ZNKSt10_HashtableINSt7__cxx1112basic_stringIcSt11char_traitsIcESaIcEEESt4pairIKS5_St6vectorIN9assembler11OperandTypeESaISA_EEESaISD_ENSt8__detail10_Select1stESt8equal_toIS5_ESt4hashIS5_ENSF_18_Mod_range_hashingENSF_20_Default_ranged_hashENSF_20_Prime_rehash_policyENSF_17_Hashtable_traitsILb1ELb0ELb1EEEE19_M_find_before_nodeEmRS7_m
FN:1567,_ZNKSt10_HashtableINSt7__cxx1112basic_stringIcSt11char_traitsIcESaIcEEESt4pairIKS5_St5arrayIiLm4EEESaISA_ENSt8__detail10_Select1stESt8equal_toIS5_ESt4hashIS5_ENSC_18_Mod_range_hashingENSC_20_Default_ranged_hashENSC_20_Prime_rehash_policyENSC_17_Hashtable_traitsILb1ELb0ELb1EEEE19_M_find_before_nodeEmRS7_m
FNDA:0,_ZNKSt10_HashtableINSt7__cxx1112basic_stringIcSt11char_traitsIcESaIcEEESt4pairIKS5_St5arrayIiLm4EEESaISA_ENSt8__detail10_Select1stESt8equal_toIS5_ESt4hashIS5_ENSC_18_Mod_range_hashingENSC_20_Default_ranged_hashENSC_20_Prime_rehash_policyENSC_17_Hashtable_traitsILb1ELb0ELb1EEEE19_M_find_before_nodeEmRS7_m
FN:1567,_ZNKSt10_HashtableINSt7__cxx1112basic_stringIcSt11char_traitsIcESaIcEEESt4pairIKS5_iESaIS8_ENSt8__detail10_Select1stESt8equal_toIS5_ESt4hashIS5_ENSA_18_Mod_range_hashingENSA_20_Default_ranged_hashENSA_20_Prime_rehash_policyENSA_17_Hashtable_traitsILb1ELb0ELb1EEEE19_M_find_before_nodeEmRS7_m
FNDA:0,_ZNKSt10_HashtableINSt7__cxx1112basic_stringIcSt11char_traitsIcESaIcEEESt4pairIKS5_iESaIS8_ENSt8__detail10_Select1stESt8equal_toIS5_ESt4hashIS5_ENSA_18_Mod_range_hashingENSA_20_Default_ranged_hashENSA_20_Prime_rehash_policyENSA_17_Hashtable_traitsILb1ELb0ELb1EEEE19_M_find_before_nodeEmRS7_m
FN:1595,_ZNSt10_HashtableINSt7__cxx1112basic_stringIcSt11char_traitsIcESaIcEEESt4pairIKS5_St5arrayIiLm4EEESaISA_ENSt8__detail10_Select1stESt8equal_toIS5_ESt4hashIS5_ENSC_18_Mod_range_hashingENSC_20_Default_ranged_hashENSC_20_Prime_rehash_policyENSC_17_Hashtable_traitsILb1ELb0ELb1EEEE22_M_insert_bucket_beginEmPNSC_10_Hash_nodeISA_Lb1EEE
FNDA:0,_ZNSt10_HashtableINSt7__cxx1112basic_stringIcSt11char_traitsIcESaIcEEESt4pairIKS5_St5arrayIiLm4EEESaISA_ENSt8__detail10_Select1stESt8equal_toIS5_ESt4hashIS5_ENSC_18_Mod_range_hashingENSC_20_Default_ranged_hashENSC_20_Prime_rehash_policyENSC_17_Hashtable_traitsILb1ELb0ELb1EEEE22_M_insert_bucket_beginEmPNSC_10_Hash_nodeISA_Lb1EEE
FN:1595,_ZNSt10_HashtableINSt7__cxx1112basic_stringIcSt11char_traitsIcESaIcEEESt4pairIKS5_iESaIS8_ENSt8__detail10_Select1stESt8equal_toIS5_ESt4hashIS5_ENSA_18_Mod_range_hashingENSA_20_Default_ranged_hashENSA_20_Prime_rehash_policyENSA_17_Hashtable_traitsILb1ELb0ELb1EEEE22_M_insert_bucket_beginEmPNSA_10_Hash_nodeIS8_Lb1EEE
FNDA:0,_ZNSt10_HashtableINSt7__cxx1112basic_stringIcSt11char_traitsIcESaIcEEESt4pairIKS5_iESaIS8_ENSt8__detail10_Select1stESt8equal_toIS5_ESt4hashIS5_ENSA_18_Mod_range_hashingENSA_20_Default_ranged_hashENSA_20_Prime_rehash_policyENSA_17_Hashtable_traitsILb1ELb0ELb1EEEE22_M_insert_bucket_beginEmPNSA_10_Hash_nodeIS8_Lb1EEE
FN:1595,_ZNSt10_HashtableINSt7__cxx1112basic_stringIcSt11char_traitsIcESaIcEEESt4pairIKS5_St6vectorIN9assembler11OperandTypeESaISA_EEESaISD_ENSt8__detail10_Select1stESt8equal_toIS5_ESt4hashIS5_ENSF_18_Mod_range_hashingENSF_20_Default_ranged_hashENSF_20_Prime_rehash_policyENSF_17_Hashtable_traitsILb1ELb0ELb1EEEE22_M_insert_bucket_beginEmPNSF_10_Hash_nodeISD_Lb1EEE
FNDA:0,_ZNSt10_HashtableINSt7__cxx1112basic_stringIcSt11char_traitsIcESaIcEEESt4pairIKS5_St6vectorIN9assembler11OperandTypeESaISA_EEESaISD_ENSt8__detail10_Select1stESt8equal_toIS5_ESt4hashIS5_ENSF_18_Mod_range_hashingENSF_20_Default_ranged_hashENSF_20_Prime_rehash_policyENSF_17_Hashtable_traitsILb1ELb0ELb1EEEE22_M_insert_bucket_beginEmPNSF_10_Hash_nodeISD_Lb1EEE
FN:1733,_ZNSt10_HashtableINSt7__cxx1112basic_stringIcSt11char_traitsIcESaIcEEESt4pairIKS5_iESaIS8_ENSt8__detail10_Select1stESt8equal_toIS5_ESt4hashIS5_ENSA_18_Mod_range_hashingENSA_20_Default_ranged_hashENSA_20_Prime_rehash_policyENSA_17_Hashtable_traitsILb1ELb0ELb1EEEE21_M_insert_unique_nodeEmmPNSA_10_Hash_nodeIS8_Lb1EEEm
FNDA:0,_ZNSt10_HashtableINSt7__cxx1112basic_stringIcSt11char_traitsIcESaIcEEESt4pairIKS5_iESaIS8_ENSt8__detail10_Select1stESt8equal_toIS5_ESt4hashIS5_ENSA_18_Mod_range_hashingENSA_20_Default_ranged_hashENSA_20_Prime_rehash_policyENSA_17_Hashtable_traitsILb1ELb0ELb1EEEE21_M_insert_unique_nodeEmmPNSA_10_Hash_nodeIS8_Lb1EEEm
FN:1733,_ZNSt10_HashtableINSt7__cxx1112basic_stringIcSt11char_traitsIcESaIcEEESt4pairIKS5_St6vectorIN9assembler11OperandTypeESaISA_EEESaISD_ENSt8__detail10_Select1stESt8equal_toIS5_ESt4hashIS5_ENSF_18_Mod_range_hashingENSF_20_Default_ranged_hashENSF_20_Prime_rehash_policyENSF_17_Hashtable_traitsILb1ELb0ELb1EEEE21_M_insert_unique_nodeEmmPNSF_10_Hash_nodeISD_Lb1EEEm
FNDA:0,_ZNSt10_HashtableINSt7__cxx1112basic_stringIcSt11char_traitsIcESaIcEEESt4pairIKS5_St6vectorIN9assembler11OperandTypeESaISA_EEESaISD_ENSt8__detail10_Select1stESt8equal_toIS5_ESt4hashIS5_ENSF_18_Mod_range_hashingENSF_20_Default_ranged_hashENSF_20_Prime_rehash_policyENSF_17_Hashtable_traitsILb1ELb0ELb1EEEE21_M_insert_unique_nodeEmmPNSF_10_Hash_nodeISD_Lb1EEEm
FN:1733,_ZNSt10_HashtableINSt7__cxx1112basic_stringIcSt11char_traitsIcESaIcEEESt4pairIKS5_St5arrayIiLm4EEESaISA_ENSt8__detail10_Select1stESt8equal_toIS5_ESt4hashIS5_ENSC_18_Mod_range_hashingENSC_20_Default_ranged_hashENSC_20_Prime_rehash_policyENSC_17_Hashtable_traitsILb1ELb0ELb1EEEE21_M_insert_unique_nodeEmmPNSC_10_Hash_nodeISA_Lb1EEEm
FNDA:0,_ZNSt10_HashtableINSt7__cxx1112basic_stringIcSt11char_traitsIcESaIcEEESt4pairIKS5_St5arrayIiLm4EEESaISA_ENSt8__detail10_Select1stESt8equal_toIS5_ESt4hashIS5_ENSC_18_Mod_range_hashingENSC_20_Default_ranged_hashENSC_20_Prime_rehash_policyENSC_17_Hashtable_traitsILb1ELb0ELb1EEEE21_M_insert_unique_nodeEmmPNSC_10_Hash_nodeISA_Lb1EEEm
FN:1838,_ZNSt10_HashtableINSt7__cxx1112basic_stringIcSt11char_traitsIcESaIcEEESt4pairIKS5_iESaIS8_ENSt8__detail10_Select1stESt8equal_toIS5_ESt4hashIS5_ENSA_18_Mod_range_hashingENSA_20_Default_ranged_hashENSA_20_Prime_rehash_policyENSA_17_Hashtable_traitsILb1ELb0ELb1EEEE9_M_insertIRKS8_NSA_10_AllocNodeISaINSA_10_Hash_nodeIS8_Lb1EEEEEEEES6_INSA_14_Node_iteratorIS8_Lb0ELb1EEEbEOT_RKT0_St17integral_constantIbLb1EEm
FNDA:0,_ZNSt10_HashtableINSt7__cxx1112basic_stringIcSt11char_traitsIcESaIcEEESt4pairIKS5_iESaIS8_ENSt8__detail10_Select1stESt8equal_toIS5_ESt4hashIS5_ENSA_18_Mod_range_hashingENSA_20_Default_ranged_hashENSA_20_Prime_rehash_policyENSA_17_Hashtable_traitsILb1ELb0ELb1EEEE9_M_insertIRKS8_NSA_10_AllocNodeISaINSA_10_Hash_nodeIS8_Lb1EEEEEEEES6_INSA_14_Node_iteratorIS8_Lb0ELb1EEEbEOT_RKT0_St17integral_constantIbLb1EEm
FN:1838,_ZNSt10_HashtableINSt7__cxx1112basic_stringIcSt11char_traitsIcESaIcEEESt4pairIKS5_St6vectorIN9assembler11OperandTypeESaISA_EEESaISD_ENSt8__detail10_Select1stESt8equal_toIS5_ESt4hashIS5_ENSF_18_Mod_range_hashingENSF_20_Default_ranged_hashENSF_20_Prime_rehash_policyENSF_17_Hashtable_traitsILb1ELb0ELb1EEEE9_M_insertIRKSD_NSF_10_AllocNodeISaINSF_10_Hash_nodeISD_Lb1EEEEEEEES6_INSF_14_Node_iteratorISD_Lb0ELb1EEEbEOT_RKT0_St17integral_constantIbLb1EEm
FNDA:0,_ZNSt10_HashtableINSt7__cxx1112basic_stringIcSt11char_traitsIcESaIcEEESt4pairIKS5_St6vectorIN9assembler11OperandTypeESaISA_EEESaISD_ENSt8__detail10_Select1stESt8equal_toIS5_ESt4hashIS5_ENSF_18_Mod_range_hashingENSF_20_Default_ranged_hashENSF_20_Prime_rehash_policyENSF_17_Hashtable_traitsILb1ELb0ELb1EEEE9_M_insertIRKSD_NSF_10_AllocNodeISaINSF_10_Hash_nodeISD_Lb1EEEEEEEES6_INSF_14_Node_iteratorISD_Lb0ELb1EEEbEOT_RKT0_St17integral_constantIbLb1EEm
FN:1838,_ZNSt10_HashtableINSt7__cxx1112basic_stringIcSt11char_traitsIcESaIcEEESt4pairIKS5_St5arrayIiLm4EEESaISA_ENSt8__detail10_Select1stESt8equal_toIS5_ESt4hashIS5_ENSC_18_Mod_range_hashingENSC_20_Default_ranged_hashENSC_20_Prime_rehash_policyENSC_17_Hashtable_traitsILb1ELb0ELb1EEEE9_M_insertIRKSA_NSC_10_AllocNodeISaINSC_10_Hash_nodeISA_Lb1EEEEEEEES6_INSC_14_Node_iteratorISA_Lb0ELb1EEEbEOT_RKT0_St17integral_constantIbLb1EEm
FNDA:0,_ZNSt10_HashtableINSt7__cxx1112basic_stringIcSt11char_traitsIcESaIcEEESt4pairIKS5_St5arrayIiLm4EEESaISA_ENSt8__detail10_Select1stESt8equal_toIS5_ESt4hashIS5_ENSC_18_Mod_range_hashingENSC_20_Default_ranged_hashENSC_20_Prime_rehash_policyENSC_17_Hashtable_traitsILb1ELb0ELb1EEEE9_M_insertIRKSA_NSC_10_AllocNodeISaINSC_10_Hash_nodeISA_Lb1EEEEEEEES6_INSC_14_Node_iteratorISA_Lb0ELb1EEEbEOT_RKT0_St17integral_constantIbLb1EEm
FN:2059,_ZNSt10_HashtableINSt7__cxx1112basic_stringIcSt11char_traitsIcESaIcEEESt4pairIKS5_St5arrayIiLm4EEESaISA_ENSt8__detail10_Select1stESt8equal_toIS5_ESt4hashIS5_ENSC_18_Mod_range_hashingENSC_20_Default_ranged_hashENSC_20_Prime_rehash_policyENSC_17_Hashtable_traitsILb1ELb0ELb1EEEE5clearEv
FNDA:0,_ZNSt10_HashtableINSt7__cxx1112basic_stringIcSt11char_traitsIcESaIcEEESt4pairIKS5_St5arrayIiLm4EEESaISA_ENSt8__detail10_Select1stESt8equal_toIS5_ESt4hashIS5_ENSC_18_Mod_range_hashingENSC_20_Default_ranged_hashENSC_20_Prime_rehash_policyENSC_17_Hashtable_traitsILb1ELb0ELb1EEEE5clearEv
FN:2059,_ZNSt10_HashtableINSt7__cxx1112basic_stringIcSt11char_traitsIcESaIcEEESt4pairIKS5_iESaIS8_ENSt8__detail10_Select1stESt8equal_toIS5_ESt4hashIS5_ENSA_18_Mod_range_hashingENSA_20_Default_ranged_hashENSA_20_Prime_rehash_policyENSA_17_Hashtable_traitsILb1ELb0ELb1EEEE5clearEv
FNDA:0,_ZNSt10_HashtableINSt7__cxx1112basic_stringIcSt11char_traitsIcESaIcEEESt4pairIKS5_iESaIS8_ENSt8__detail10_Select1stESt8equal_toIS5_ESt4hashIS5_ENSA_18_Mod_range_hashingENSA_20_Default_ranged_hashENSA_20_Prime_rehash_policyENSA_17_Hashtable_traitsILb1ELb0ELb1EEEE5clearEv
FN:2059,_ZNSt10_HashtableINSt7__cxx1112basic_stringIcSt11char_traitsIcESaIcEEESt4pairIKS5_St6vectorIN9assembler11OperandTypeESaISA_EEESaISD_ENSt8__detail10_Select1stESt8equal_toIS5_ESt4hashIS5_ENSF_18_Mod_range_hashingENSF_20_Default_ranged_hashENSF_20_Prime_rehash_policyENSF_17_Hashtable_traitsILb1ELb0ELb1EEEE5clearEv
FNDA:0,_ZNSt10_HashtableINSt7__cxx1112basic_stringIcSt11char_traitsIcESaIcEEESt4pairIKS5_St6vectorIN9assembler11OperandTypeESaISA_EEESaISD_ENSt8__detail10_Select1stESt8equal_toIS5_ESt4hashIS5_ENSF_18_Mod_range_hashingENSF_20_Default_ranged_hashENSF_20_Prime_rehash_policyENSF_17_Hashtable_traitsILb1ELb0ELb1EEEE5clearEv
FN:2096,_ZNSt10_HashtableINSt7__cxx1112basic_stringIcSt11char_traitsIcESaIcEEESt4pairIKS5_St5arrayIiLm4EEESaISA_ENSt8__detail10_Select1stESt8equal_toIS5_ESt4hashIS5_ENSC_18_Mod_range_hashingENSC_20_Default_ranged_hashENSC_20_Prime_rehash_policyENSC_17_Hashtable_traitsILb1ELb0ELb1EEEE9_M_rehashEmRKm
FNDA:0,_ZNSt10_HashtableINSt7__cxx1112basic_stringIcSt11char_traitsIcESaIcEEESt4pairIKS5_St5arrayIiLm4EEESaISA_ENSt8__detail10_Select1stESt8equal_toIS5_ESt4hashIS5_ENSC_18_Mod_range_hashingENSC_20_Default_ranged_hashENSC_20_Prime_rehash_policyENSC_17_Hashtable_traitsILb1ELb0ELb1EEEE9_M_rehashEmRKm
FN:2096,_ZNSt10_HashtableINSt7__cxx1112basic_stringIcSt11char_traitsIcESaIcEEESt4pairIKS5_St6vectorIN9assembler11OperandTypeESaISA_EEESaISD_ENSt8__detail10_Select1stESt8equal_toIS5_ESt4hashIS5_ENSF_18_Mod_range_hashingENSF_20_Default_ranged_hashENSF_20_Prime_rehash_policyENSF_17_Hashtable_traitsILb1ELb0ELb1EEEE9_M_rehashEmRKm
FNDA:0,_ZNSt10_HashtableINSt7__cxx1112basic_stringIcSt11char_traitsIcESaIcEEESt4pairIKS5_St6vectorIN9assembler11OperandTypeESaISA_EEESaISD_ENSt8__detail10_Select1stESt8equal_toIS5_ESt4hashIS5_ENSF_18_Mod_range_hashingENSF_20_Default_ranged_hashENSF_20_Prime_rehash_policyENSF_17_Hashtable_traitsILb1ELb0ELb1EEEE9_M_rehashEmRKm
FN:2096,_ZNSt10_HashtableINSt7__cxx1112basic_stringIcSt11char_traitsIcESaIcEEESt4pairIKS5_iESaIS8_ENSt8__detail10_Select1stESt8equal_toIS5_ESt4hashIS5_ENSA_18_Mod_range_hashingENSA_20_Default_ranged_hashENSA_20_Prime_rehash_policyENSA_17_Hashtable_traitsILb1ELb0ELb1EEEE9_M_rehashEmRKm
FNDA:0,_ZNSt10_HashtableINSt7__cxx1112basic_stringIcSt11char_traitsIcESaIcEEESt4pairIKS5_iESaIS8_ENSt8__detail10_Select1stESt8equal_toIS5_ESt4hashIS5_ENSA_18_Mod_range_hashingENSA_20_Default_ranged_hashENSA_20_Prime_rehash_policyENSA_17_Hashtable_traitsILb1ELb0ELb1EEEE9_M_rehashEmRKm
FN:2119,_ZNSt10_HashtableINSt7__cxx1112basic_stringIcSt11char_traitsIcESaIcEEESt4pairIKS5_iESaIS8_ENSt8__detail10_Select1stESt8equal_toIS5_ESt4hashIS5_ENSA_18_Mod_range_hashingENSA_20_Default_ranged_hashENSA_20_Prime_rehash_policyENSA_17_Hashtable_traitsILb1ELb0ELb1EEEE13_M_rehash_auxEmSt17integral_constantIbLb1EE
FNDA:0,_ZNSt10_HashtableINSt7__cxx1112basic_stringIcSt11char_traitsIcESaIcEEESt4pairIKS5_iESaIS8_ENSt8__detail10_Select1stESt8equal_toIS5_ESt4hashIS5_ENSA_18_Mod_range_hashingENSA_20_Default_ranged_hashENSA_20_Prime_rehash_policyENSA_17_Hashtable_traitsILb1ELb0ELb1EEEE13_M_rehash_auxEmSt17integral_constantIbLb1EE
FN:2119,_ZNSt10_HashtableINSt7__cxx1112basic_stringIcSt11char_traitsIcESaIcEEESt4pairIKS5_St6vectorIN9assembler11OperandTypeESaISA_EEESaISD_ENSt8__detail10_Select1stESt8equal_toIS5_ESt4hashIS5_ENSF_18_Mod_range_hashingENSF_20_Default_ranged_hashENSF_20_Prime_rehash_policyENSF_17_Hashtable_traitsILb1ELb0ELb1EEEE13_M_rehash_auxEmSt17integral_constantIbLb1EE
FNDA:0,_ZNSt10_HashtableINSt7__cxx1112basic_stringIcSt11char_traitsIcESaIcEEESt4pairIKS5_St6vectorIN9assembler11OperandTypeESaISA_EEESaISD_ENSt8__detail10_Select1stESt8equal_toIS5_ESt4hashIS5_ENSF_18_Mod_range_hashingENSF_20_Default_ranged_hashENSF_20_Prime_rehash_policyENSF_17_Hashtable_traitsILb1ELb0ELb1EEEE13_M_rehash_auxEmSt17integral_constantIbLb1EE
FN:2119,_ZNSt10_HashtableINSt7__cxx1112basic_stringIcSt11char_traitsIcESaIcEEESt4pairIKS5_St5arrayIiLm4EEESaISA_ENSt8__detail10_Select1stESt8equal_toIS5_ESt4hashIS5_ENSC_18_Mod_range_hashingENSC_20_Default_ranged_hashENSC_20_Prime_rehash_policyENSC_17_Hashtable_traitsILb1ELb0ELb1EEEE13_M_rehash_auxEmSt17integral_constantIbLb1EE
FNDA:0,_ZNSt10_HashtableINSt7__cxx1112basic_stringIcSt11char_traitsIcESaIcEEESt4pairIKS5_St5arrayIiLm4EEESaISA_ENSt8__detail10_Select1stESt8equal_toIS5_ESt4hashIS5_ENSC_18_Mod_range_hashingENSC_20_Default_ranged_hashENSC_20_Prime_rehash_policyENSC_17_Hashtable_traitsILb1ELb0ELb1EEEE13_M_rehash_auxEmSt17integral_constantIbLb1EE
DA:342,0
DA:343,0
DA:342,0
DA:343,0
DA:342,0
DA:343,0
DA:353,0
DA:355,0
DA:357,0
DA:358,0
DA:361,0
DA:353,0
DA:355,0
DA:357,0
DA:358,0
DA:361,0
DA:353,0
DA:355,0
DA:357,0
DA:358,0
DA:361,0
DA:365,0
DA:367,0
DA:368,0
DA:370,0
DA:365,0
DA:367,0
DA:368,0
DA:370,0
DA:365,0
DA:367,0
DA:368,0
DA:370,0
DA:374,0
DA:375,0
DA:374,0
DA:375,0
DA:374,0
DA:375,0
DA:383,0
DA:384,0
DA:383,0
DA:384,0
DA:383,0
DA:384,0
DA:405,0
DA:409,0
DA:410,0
DA:405,0
DA:409,0
DA:410,0
DA:405,0
DA:409,0
DA:410,0
DA:492,0
DA:498,0
DA:499,0
DA:492,0
DA:498,0
DA:499,0
DA:492,0
DA:498,0
DA:499,0
DA:548,26
DA:549,26
DA:671,0
DA:672,0
DA:671,0
DA:672,0
DA:671,0
DA:672,0
DA:675,0
DA:676,0
DA:675,0
DA:676,0
DA:675,0
DA:676,0
DA:684,0
DA:687,0
DA:688,0
DA:689,0
DA:690,0
DA:684,0
DA:687,0
DA:688,0
DA:689,0
DA:690,0
DA:684,0
DA:687,0
DA:688,0
DA:689,0
DA:690,0
DA:1004,0
DA:1011,0
DA:1013,0
DA:1014,0
DA:1016,0
DA:1019,0
DA:1021,0
DA:1022,0
DA:1025,0
DA:1026,0
DA:1027,0
DA:1004,0
DA:1011,0
DA:1013,0
DA:1014,0
DA:1016,0
DA:1019,0
DA:1021,0
DA:1022,0
DA:1025,0
DA:1026,0
DA:1027,0
DA:1004,0
DA:1011,0
DA:1013,0
DA:1014,0
DA:1016,0
DA:1019,0
DA:1021,0
DA:1022,0
DA:1025,0
DA:1026,0
DA:1027,0
DA:1383,0
DA:1387,0
DA:1388,0
DA:1389,0
DA:1383,0
DA:1387,0
DA:1388,0
DA:1389,0
DA:1383,0
DA:1387,0
DA:1388,0
DA:1389,0
DA:1463,24
DA:1468,24
DA:1469,24
DA:1470,24
DA:1471,24
DA:1567,0
DA:1573,0
DA:1574,0
DA:1575,0
DA:1577,0
DA:1578,0
DA:1580,0
DA:1581,0
DA:1583,0
DA:1584,0
DA:1585,0
DA:1587,0
DA:1567,0
DA:1573,0
DA:1574,0
DA:1575,0
DA:1577,0
DA:1578,0
DA:1580,0
DA:1581,0
DA:1583,0
DA:1584,0
DA:1585,0
DA:1587,0
DA:1567,0
DA:1573,0
DA:1574,0
DA:1575,0
DA:1577,0
DA:1578,0
DA:1580,0
DA:1581,0
DA:1583,0
DA:1584,0
DA:1585,0
DA:1587,0
DA:1595,0
DA:1599,0
DA:1603,0
DA:1604,0
DA:1611,0
DA:1612,0
DA:1613,0
DA:1616,0
DA:1617,0
DA:1619,0
DA:1595,0
DA:1599,0
DA:1603,0
DA:1604,0
DA:1611,0
DA:1612,0
DA:1613,0
DA:1616,0
DA:1617,0
DA:1619,0
DA:1595,0
DA:1599,0
DA:1603,0
DA:1604,0
DA:1611,0
DA:1612,0
DA:1613,0
DA:1616,0
DA:1617,0
DA:1619,0
DA:1733,0
DA:1739,0
DA:1740,0
DA:1746,0
DA:1748,0
DA:1749,0
DA:1752,0
DA:1755,0
DA:1756,0
DA:1757,0
DA:1759,0
DA:1761,0
DA:1762,0
DA:1733,0
DA:1739,0
DA:1740,0
DA:1746,0
DA:1748,0
DA:1749,0
DA:1752,0
DA:1755,0
DA:1756,0
DA:1757,0
DA:1759,0
DA:1761,0
DA:1762,0
DA:1733,0
DA:1739,0
DA:1740,0
DA:1746,0
DA:1748,0
DA:1749,0
DA:1752,0
DA:1755,0
DA:1756,0
DA:1757,0
DA:1759,0
DA:1761,0
DA:1762,0
DA:1838,0
DA:1844,0
DA:1845,0
DA:1846,0
DA:1848,0
DA:1849,0
DA:1850,0
DA:1852,0
DA:1853,0
DA:1838,0
DA:1844,0
DA:1845,0
DA:1846,0
DA:1848,0
DA:1849,0
DA:1850,0
DA:1852,0
DA:1853,0
DA:1838,0
DA:1844,0
DA:1845,0
DA:1846,0
DA:1848,0
DA:1849,0
DA:1850,0
DA:1852,0
DA:1853,0
DA:2059,0
DA:2063,0
DA:2064,0
DA:2065,0
DA:2066,0
DA:2067,0
DA:2059,0
DA:2063,0
DA:2064,0
DA:2065,0
DA:2066,0
DA:2067,0
DA:2059,0
DA:2063,0
DA:2064,0
DA:2065,0
DA:2066,0
DA:2067,0
DA:2096,0
DA:2102,0
DA:2104,0
DA:2108,0
DA:2109,0
DA:2111,0
DA:2096,0
DA:2102,0
DA:2104,0
DA:2108,0
DA:2109,0
DA:2111,0
DA:2096,0
DA:2102,0
DA:2104,0
DA:2108,0
DA:2109,0
DA:2111,0
DA:2119,0
DA:2123,0
DA:2124,0
DA:2125,0
DA:2126,0
DA:2127,0
DA:2129,0
DA:2130,0
DA:2131,0
DA:2133,0
DA:2134,0
DA:2135,0
DA:2136,0
DA:2137,0
DA:2138,0
DA:2142,0
DA:2143,0
DA:2145,0
DA:2148,0
DA:2149,0
DA:2150,0
DA:2151,0
DA:2119,0
DA:2123,0
DA:2124,0
DA:2125,0
DA:2126,0
DA:2127,0
DA:2129,0
DA:2130,0
DA:2131,0
DA:2133,0
DA:2134,0
DA:2135,0
DA:2136,0
DA:2137,0
DA:2138,0
DA:2142,0
DA:2143,0
DA:2145,0
DA:2148,0
DA:2149,0
DA:2150,0
DA:2151,0
DA:2119,0
DA:2123,0
DA:2124,0
DA:2125,0
DA:2126,0
DA:2127,0
DA:2129,0
DA:2130,0
DA:2131,0
DA:2133,0
DA:2134,0
DA:2135,0
DA:2136,0
DA:2137,0
DA:2138,0
DA:2142,0
DA:2143,0
DA:2145,0
DA:2148,0
DA:2149,0
DA:2150,0
DA:2151,0
end_of_record
SF:/usr/include/c++/9/ext/new_allocator.h
FN:80,_ZN9__gnu_cxx13new_allocatorISt4pairIKNSt7__cxx1112basic_stringIcSt11char_traitsIcESaIcEEESt5arrayIiLm4EEEEC2Ev
FNDA:0,_ZN9__gnu_cxx13new_allocatorISt4pairIKNSt7__cxx1112basic_stringIcSt11char_traitsIcESaIcEEESt5arrayIiLm4EEEEC2Ev
FN:80,_ZN9__gnu_cxx13new_allocatorIiEC2Ev
FNDA:0,_ZN9__gnu_cxx13new_allocatorIiEC2Ev
FN:80,_ZN9__gnu_cxx13new_allocatorINSt7__cxx1112basic_stringIcSt11char_traitsIcESaIcEEEEC2Ev
FNDA:0,_ZN9__gnu_cxx13new_allocatorINSt7__cxx1112basic_stringIcSt11char_traitsIcESaIcEEEEC2Ev
FN:80,_ZN9__gnu_cxx13new_allocatorINSt8__detail10_Hash_nodeISt4pairIKNSt7__cxx1112basic_stringIcSt11char_traitsIcESaIcEEEiELb1EEEEC2Ev
FNDA:0,_ZN9__gnu_cxx13new_allocatorINSt8__detail10_Hash_nodeISt4pairIKNSt7__cxx1112basic_stringIcSt11char_traitsIcESaIcEEEiELb1EEEEC2Ev
FN:80,_ZN9__gnu_cxx13new_allocatorIPNSt8__detail15_Hash_node_baseEEC2Ev
FNDA:0,_ZN9__gnu_cxx13new_allocatorIPNSt8__detail15_Hash_node_baseEEC2Ev
FN:80,_ZN9__gnu_cxx13new_allocatorINSt8__detail10_Hash_nodeISt4pairIKNSt7__cxx1112basic_stringIcSt11char_traitsIcESaIcEEESt6vectorIN9assembler11OperandTypeESaISD_EEELb1EEEEC2Ev
FNDA:0,_ZN9__gnu_cxx13new_allocatorINSt8__detail10_Hash_nodeISt4pairIKNSt7__cxx1112basic_stringIcSt11char_traitsIcESaIcEEESt6vectorIN9assembler11OperandTypeESaISD_EEELb1EEEEC2Ev
FN:80,_ZN9__gnu_cxx13new_allocatorINSt8__detail10_Hash_nodeISt4pairIKNSt7__cxx1112basic_stringIcSt11char_traitsIcESaIcEEESt5arrayIiLm4EEELb1EEEEC2Ev
FNDA:0,_ZN9__gnu_cxx13new_allocatorINSt8__detail10_Hash_nodeISt4pairIKNSt7__cxx1112basic_stringIcSt11char_traitsIcESaIcEEESt5arrayIiLm4EEELb1EEEEC2Ev
FN:80,_ZN9__gnu_cxx13new_allocatorISt4pairIKNSt7__cxx1112basic_stringIcSt11char_traitsIcESaIcEEESt6vectorIN9assembler11OperandTypeESaISB_EEEEC2Ev
FNDA:0,_ZN9__gnu_cxx13new_allocatorISt4pairIKNSt7__cxx1112basic_stringIcSt11char_traitsIcESaIcEEESt6vectorIN9assembler11OperandTypeESaISB_EEEEC2Ev
FN:80,_ZN9__gnu_cxx13new_allocatorIN9assembler11OperandTypeEEC2Ev
FNDA:0,_ZN9__gnu_cxx13new_allocatorIN9assembler11OperandTypeEEC2Ev
FN:80,_ZN9__gnu_cxx13new_allocatorIcEC2Ev
FNDA:0,_ZN9__gnu_cxx13new_allocatorIcEC2Ev
FN:80,_ZN9__gnu_cxx13new_allocatorISt4pairIKNSt7__cxx1112basic_stringIcSt11char_traitsIcESaIcEEEiEEC2Ev
FNDA:0,_ZN9__gnu_cxx13new_allocatorISt4pairIKNSt7__cxx1112basic_stringIcSt11char_traitsIcESaIcEEEiEEC2Ev
FN:83,_ZN9__gnu_cxx13new_allocatorINSt8__detail10_Hash_nodeISt4pairIKNSt7__cxx1112basic_stringIcSt11char_traitsIcESaIcEEESt6vectorIN9assembler11OperandTypeESaISD_EEELb1EEEEC2ERKSI_
FNDA:0,_ZN9__gnu_cxx13new_allocatorINSt8__detail10_Hash_nodeISt4pairIKNSt7__cxx1112basic_stringIcSt11char_traitsIcESaIcEEESt6vectorIN9assembler11OperandTypeESaISD_EEELb1EEEEC2ERKSI_
FN:83,_ZN9__gnu_cxx13new_allocatorIcEC2ERKS1_
FNDA:0,_ZN9__gnu_cxx13new_allocatorIcEC2ERKS1_
FN:83,_ZN9__gnu_cxx13new_allocatorIN9assembler11OperandTypeEEC2ERKS3_
FNDA:0,_ZN9__gnu_cxx13new_allocatorIN9assembler11OperandTypeEEC2ERKS3_
FN:83,_ZN9__gnu_cxx13new_allocatorINSt8__detail10_Hash_nodeISt4pairIKNSt7__cxx1112basic_stringIcSt11char_traitsIcESaIcEEESt5arrayIiLm4EEELb1EEEEC2ERKSF_
FNDA:0,_ZN9__gnu_cxx13new_allocatorINSt8__detail10_Hash_nodeISt4pairIKNSt7__cxx1112basic_stringIcSt11char_traitsIcESaIcEEESt5arrayIiLm4EEELb1EEEEC2ERKSF_
FN:83,_ZN9__gnu_cxx13new_allocatorINSt8__detail10_Hash_nodeISt4pairIKNSt7__cxx1112basic_stringIcSt11char_traitsIcESaIcEEEiELb1EEEEC2ERKSD_
FNDA:0,_ZN9__gnu_cxx13new_allocatorINSt8__detail10_Hash_nodeISt4pairIKNSt7__cxx1112basic_stringIcSt11char_traitsIcESaIcEEEiELb1EEEEC2ERKSD_
FN:89,_ZN9__gnu_cxx13new_allocatorIiED2Ev
FNDA:0,_ZN9__gnu_cxx13new_allocatorIiED2Ev
FN:89,_ZN9__gnu_cxx13new_allocatorIcED2Ev
FNDA:0,_ZN9__gnu_cxx13new_allocatorIcED2Ev
FN:89,_ZN9__gnu_cxx13new_allocatorINSt8__detail10_Hash_nodeISt4pairIKNSt7__cxx1112basic_stringIcSt11char_traitsIcESaIcEEESt5arrayIiLm4EEELb1EEEED2Ev
FNDA:0,_ZN9__gnu_cxx13new_allocatorINSt8__detail10_Hash_nodeISt4pairIKNSt7__cxx1112basic_stringIcSt11char_traitsIcESaIcEEESt5arrayIiLm4EEELb1EEEED2Ev
FN:89,_ZN9__gnu_cxx13new_allocatorINSt8__detail10_Hash_nodeISt4pairIKNSt7__cxx1112basic_stringIcSt11char_traitsIcESaIcEEESt6vectorIN9assembler11OperandTypeESaISD_EEELb1EEEED2Ev
FNDA:0,_ZN9__gnu_cxx13new_allocatorINSt8__detail10_Hash_nodeISt4pairIKNSt7__cxx1112basic_stringIcSt11char_traitsIcESaIcEEESt6vectorIN9assembler11OperandTypeESaISD_EEELb1EEEED2Ev
FN:89,_ZN9__gnu_cxx13new_allocatorINSt8__detail10_Hash_nodeISt4pairIKNSt7__cxx1112basic_stringIcSt11char_traitsIcESaIcEEEiELb1EEEED2Ev
FNDA:0,_ZN9__gnu_cxx13new_allocatorINSt8__detail10_Hash_nodeISt4pairIKNSt7__cxx1112basic_stringIcSt11char_traitsIcESaIcEEEiELb1EEEED2Ev
FN:89,_ZN9__gnu_cxx13new_allocatorINSt7__cxx1112basic_stringIcSt11char_traitsIcESaIcEEEED2Ev
FNDA:0,_ZN9__gnu_cxx13new_allocatorINSt7__cxx1112basic_stringIcSt11char_traitsIcESaIcEEEED2Ev
FN:89,_ZN9__gnu_cxx13new_allocatorISt4pairIKNSt7__cxx1112basic_stringIcSt11char_traitsIcESaIcEEESt5arrayIiLm4EEEED2Ev
FNDA:0,_ZN9__gnu_cxx13new_allocatorISt4pairIKNSt7__cxx1112basic_stringIcSt11char_traitsIcESaIcEEESt5arrayIiLm4EEEED2Ev
FN:89,_ZN9__gnu_cxx13new_allocatorIPNSt8__detail15_Hash_node_baseEED2Ev
FNDA:0,_ZN9__gnu_cxx13new_allocatorIPNSt8__detail15_Hash_node_baseEED2Ev
FN:89,_ZN9__gnu_cxx13new_allocatorIN9assembler11OperandTypeEED2Ev
FNDA:0,_ZN9__gnu_cxx13new_allocatorIN9assembler11OperandTypeEED2Ev
FN:89,_ZN9__gnu_cxx13new_allocatorISt4pairIKNSt7__cxx1112basic_stringIcSt11char_traitsIcESaIcEEEiEED2Ev
FNDA:0,_ZN9__gnu_cxx13new_allocatorISt4pairIKNSt7__cxx1112basic_stringIcSt11char_traitsIcESaIcEEEiEED2Ev
FN:89,_ZN9__gnu_cxx13new_allocatorISt4pairIKNSt7__cxx1112basic_stringIcSt11char_traitsIcESaIcEEESt6vectorIN9assembler11OperandTypeESaISB_EEEED2Ev
FNDA:0,_ZN9__gnu_cxx13new_allocatorISt4pairIKNSt7__cxx1112basic_stringIcSt11char_traitsIcESaIcEEESt6vectorIN9assembler11OperandTypeESaISB_EEEED2Ev
FN:102,_ZN9__gnu_cxx13new_allocatorINSt8__detail10_Hash_nodeISt4pairIKNSt7__cxx1112basic_stringIcSt11char_traitsIcESaIcEEESt5arrayIiLm4EEELb1EEEE8allocateEmPKv
FNDA:0,_ZN9__gnu_cxx13new_allocatorINSt8__detail10_Hash_nodeISt4pairIKNSt7__cxx1112basic_stringIcSt11char_traitsIcESaIcEEESt5arrayIiLm4EEELb1EEEE8allocateEmPKv
FN:102,_ZN9__gnu_cxx13new_allocatorINSt8__detail10_Hash_nodeISt4pairIKNSt7__cxx1112basic_stringIcSt11char_traitsIcESaIcEEEiELb1EEEE8allocateEmPKv
FNDA:0,_ZN9__gnu_cxx13new_allocatorINSt8__detail10_Hash_nodeISt4pairIKNSt7__cxx1112basic_stringIcSt11char_traitsIcESaIcEEEiELb1EEEE8allocateEmPKv
FN:102,_ZN9__gnu_cxx13new_allocatorIPNSt8__detail15_Hash_node_baseEE8allocateEmPKv
FNDA:0,_ZN9__gnu_cxx13new_allocatorIPNSt8__detail15_Hash_node_baseEE8allocateEmPKv
FN:102,_ZN9__gnu_cxx13new_allocatorIiE8allocateEmPKv
FNDA:0,_ZN9__gnu_cxx13new_allocatorIiE8allocateEmPKv
FN:102,_ZN9__gnu_cxx13new_allocatorINSt7__cxx1112basic_stringIcSt11char_traitsIcESaIcEEEE8allocateEmPKv
FNDA:0,_ZN9__gnu_cxx13new_allocatorINSt7__cxx1112basic_stringIcSt11char_traitsIcESaIcEEEE8allocateEmPKv
FN:102,_ZN9__gnu_cxx13new_allocatorINSt8__detail10_Hash_nodeISt4pairIKNSt7__cxx1112basic_stringIcSt11char_traitsIcESaIcEEESt6vectorIN9assembler11OperandTypeESaISD_EEELb1EEEE8allocateEmPKv
FNDA:0,_ZN9__gnu_cxx13new_allocatorINSt8__detail10_Hash_nodeISt4pairIKNSt7__cxx1112basic_stringIcSt11char_traitsIcESaIcEEESt6vectorIN9assembler11OperandTypeESaISD_EEELb1EEEE8allocateEmPKv
FN:102,_ZN9__gnu_cxx13new_allocatorIN9assembler11OperandTypeEE8allocateEmPKv
FNDA:0,_ZN9__gnu_cxx13new_allocatorIN9assembler11OperandTypeEE8allocateEmPKv
FN:119,_ZN9__gnu_cxx13new_allocatorINSt8__detail10_Hash_nodeISt4pairIKNSt7__cxx1112basic_stringIcSt11char_traitsIcESaIcEEESt6vectorIN9assembler11OperandTypeESaISD_EEELb1EEEE10deallocateEPSH_m
FNDA:0,_ZN9__gnu_cxx13new_allocatorINSt8__detail10_Hash_nodeISt4pairIKNSt7__cxx1112basic_stringIcSt11char_traitsIcESaIcEEESt6vectorIN9assembler11OperandTypeESaISD_EEELb1EEEE10deallocateEPSH_m
FN:119,_ZN9__gnu_cxx13new_allocatorIiE10deallocateEPim
FNDA:0,_ZN9__gnu_cxx13new_allocatorIiE10deallocateEPim
FN:119,_ZN9__gnu_cxx13new_allocatorINSt7__cxx1112basic_stringIcSt11char_traitsIcESaIcEEEE10deallocateEPS6_m
FNDA:0,_ZN9__gnu_cxx13new_allocatorINSt7__cxx1112basic_stringIcSt11char_traitsIcESaIcEEEE10deallocateEPS6_m
FN:119,_ZN9__gnu_cxx13new_allocatorINSt8__detail10_Hash_nodeISt4pairIKNSt7__cxx1112basic_stringIcSt11char_traitsIcESaIcEEESt5arrayIiLm4EEELb1EEEE10deallocateEPSE_m
FNDA:0,_ZN9__gnu_cxx13new_allocatorINSt8__detail10_Hash_nodeISt4pairIKNSt7__cxx1112basic_stringIcSt11char_traitsIcESaIcEEESt5arrayIiLm4EEELb1EEEE10deallocateEPSE_m
FN:119,_ZN9__gnu_cxx13new_allocatorIN9assembler11OperandTypeEE10deallocateEPS2_m
FNDA:0,_ZN9__gnu_cxx13new_allocatorIN9assembler11OperandTypeEE10deallocateEPS2_m
FN:119,_ZN9__gnu_cxx13new_allocatorIPNSt8__detail15_Hash_node_baseEE10deallocateEPS3_m
FNDA:0,_ZN9__gnu_cxx13new_allocatorIPNSt8__detail15_Hash_node_baseEE10deallocateEPS3_m
FN:119,_ZN9__gnu_cxx13new_allocatorINSt8__detail10_Hash_nodeISt4pairIKNSt7__cxx1112basic_stringIcSt11char_traitsIcESaIcEEEiELb1EEEE10deallocateEPSC_m
FNDA:0,_ZN9__gnu_cxx13new_allocatorINSt8__detail10_Hash_nodeISt4pairIKNSt7__cxx1112basic_stringIcSt11char_traitsIcESaIcEEEiELb1EEEE10deallocateEPSC_m
FN:132,_ZNK9__gnu_cxx13new_allocatorIiE8max_sizeEv
FNDA:0,_ZNK9__gnu_cxx13new_allocatorIiE8max_sizeEv
FN:132,_ZNK9__gnu_cxx13new_allocatorINSt8__detail10_Hash_nodeISt4pairIKNSt7__cxx1112basic_stringIcSt11char_traitsIcESaIcEEESt5arrayIiLm4EEELb1EEEE8max_sizeEv
FNDA:0,_ZNK9__gnu_cxx13new_allocatorINSt8__detail10_Hash_nodeISt4pairIKNSt7__cxx1112basic_stringIcSt11char_traitsIcESaIcEEESt5arrayIiLm4EEELb1EEEE8max_sizeEv
FN:132,_ZNK9__gnu_cxx13new_allocatorINSt7__cxx1112basic_stringIcSt11char_traitsIcESaIcEEEE8max_sizeEv
FNDA:0,_ZNK9__gnu_cxx13new_allocatorINSt7__cxx1112basic_stringIcSt11char_traitsIcESaIcEEEE8max_sizeEv
FN:132,_ZNK9__gnu_cxx13new_allocatorIN9assembler11OperandTypeEE8max_sizeEv
FNDA:0,_ZNK9__gnu_cxx13new_allocatorIN9assembler11OperandTypeEE8max_sizeEv
FN:132,_ZNK9__gnu_cxx13new_allocatorIPNSt8__detail15_Hash_node_baseEE8max_sizeEv
FNDA:0,_ZNK9__gnu_cxx13new_allocatorIPNSt8__detail15_Hash_node_baseEE8max_sizeEv
FN:132,_ZNK9__gnu_cxx13new_allocatorINSt8__detail10_Hash_nodeISt4pairIKNSt7__cxx1112basic_stringIcSt11char_traitsIcESaIcEEEiELb1EEEE8max_sizeEv
FNDA:0,_ZNK9__gnu_cxx13new_allocatorINSt8__detail10_Hash_nodeISt4pairIKNSt7__cxx1112basic_stringIcSt11char_traitsIcESaIcEEEiELb1EEEE8max_sizeEv
FN:132,_ZNK9__gnu_cxx13new_allocatorINSt8__detail10_Hash_nodeISt4pairIKNSt7__cxx1112basic_stringIcSt11char_traitsIcESaIcEEESt6vectorIN9assembler11OperandTypeESaISD_EEELb1EEEE8max_sizeEv
FNDA:0,_ZNK9__gnu_cxx13new_allocatorINSt8__detail10_Hash_nodeISt4pairIKNSt7__cxx1112basic_stringIcSt11char_traitsIcESaIcEEESt6vectorIN9assembler11OperandTypeESaISD_EEELb1EEEE8max_sizeEv
FN:144,_ZN9__gnu_cxx13new_allocatorINSt7__cxx1112basic_stringIcSt11char_traitsIcESaIcEEEE9constructIS6_JS6_EEEvPT_DpOT0_
FNDA:0,_ZN9__gnu_cxx13new_allocatorINSt7__cxx1112basic_stringIcSt11char_traitsIcESaIcEEEE9constructIS6_JS6_EEEvPT_DpOT0_
FN:144,_ZN9__gnu_cxx13new_allocatorIiE9constructIiJiEEEvPT_DpOT0_
FNDA:49,_ZN9__gnu_cxx13new_allocatorIiE9constructIiJiEEEvPT_DpOT0_
FN:144,_ZN9__gnu_cxx13new_allocatorINSt8__detail10_Hash_nodeISt4pairIKNSt7__cxx1112basic_stringIcSt11char_traitsIcESaIcEEEiELb1EEEE9constructISB_JRKSB_EEEvPT_DpOT0_
FNDA:0,_ZN9__gnu_cxx13new_allocatorINSt8__detail10_Hash_nodeISt4pairIKNSt7__cxx1112basic_stringIcSt11char_traitsIcESaIcEEEiELb1EEEE9constructISB_JRKSB_EEEvPT_DpOT0_
FN:144,_ZN9__gnu_cxx13new_allocatorINSt8__detail10_Hash_nodeISt4pairIKNSt7__cxx1112basic_stringIcSt11char_traitsIcESaIcEEESt6vectorIN9assembler11OperandTypeESaISD_EEELb1EEEE9constructISG_JRKSG_EEEvPT_DpOT0_
FNDA:0,_ZN9__gnu_cxx13new_allocatorINSt8__detail10_Hash_nodeISt4pairIKNSt7__cxx1112basic_stringIcSt11char_traitsIcESaIcEEESt6vectorIN9assembler11OperandTypeESaISD_EEELb1EEEE9constructISG_JRKSG_EEEvPT_DpOT0_
FN:144,_ZN9__gnu_cxx13new_allocatorINSt8__detail10_Hash_nodeISt4pairIKNSt7__cxx1112basic_stringIcSt11char_traitsIcESaIcEEESt5arrayIiLm4EEELb1EEEE9constructISD_JRKSD_EEEvPT_DpOT0_
FNDA:0,_ZN9__gnu_cxx13new_allocatorINSt8__detail10_Hash_nodeISt4pairIKNSt7__cxx1112basic_stringIcSt11char_traitsIcESaIcEEESt5arrayIiLm4EEELb1EEEE9constructISD_JRKSD_EEEvPT_DpOT0_
FN:150,_ZN9__gnu_cxx13new_allocatorINSt7__cxx1112basic_stringIcSt11char_traitsIcESaIcEEEE7destroyIS6_EEvPT_
FNDA:0,_ZN9__gnu_cxx13new_allocatorINSt7__cxx1112basic_stringIcSt11char_traitsIcESaIcEEEE7destroyIS6_EEvPT_
FN:150,_ZN9__gnu_cxx13new_allocatorIiE7destroyIiEEvPT_
FNDA:0,_ZN9__gnu_cxx13new_allocatorIiE7destroyIiEEvPT_
FN:150,_ZN9__gnu_cxx13new_allocatorINSt8__detail10_Hash_nodeISt4pairIKNSt7__cxx1112basic_stringIcSt11char_traitsIcESaIcEEEiELb1EEEE7destroyISB_EEvPT_
FNDA:0,_ZN9__gnu_cxx13new_allocatorINSt8__detail10_Hash_nodeISt4pairIKNSt7__cxx1112basic_stringIcSt11char_traitsIcESaIcEEEiELb1EEEE7destroyISB_EEvPT_
FN:150,_ZN9__gnu_cxx13new_allocatorINSt8__detail10_Hash_nodeISt4pairIKNSt7__cxx1112basic_stringIcSt11char_traitsIcESaIcEEESt6vectorIN9assembler11OperandTypeESaISD_EEELb1EEEE7destroyISG_EEvPT_
FNDA:0,_ZN9__gnu_cxx13new_allocatorINSt8__detail10_Hash_nodeISt4pairIKNSt7__cxx1112basic_stringIcSt11char_traitsIcESaIcEEESt6vectorIN9assembler11OperandTypeESaISD_EEELb1EEEE7destroyISG_EEvPT_
FN:150,_ZN9__gnu_cxx13new_allocatorINSt8__detail10_Hash_nodeISt4pairIKNSt7__cxx1112basic_stringIcSt11char_traitsIcESaIcEEESt5arrayIiLm4EEELb1EEEE7destroyISD_EEvPT_
FNDA:0,_ZN9__gnu_cxx13new_allocatorINSt8__detail10_Hash_nodeISt4pairIKNSt7__cxx1112basic_stringIcSt11char_traitsIcESaIcEEESt5arrayIiLm4EEELb1EEEE7destroyISD_EEvPT_
DA:80,0
DA:80,0
DA:80,0
DA:80,0
DA:80,0
DA:80,0
DA:80,0
DA:80,0
DA:80,0
DA:80,0
DA:80,0
DA:83,0
DA:83,0
DA:83,0
DA:83,0
DA:83,0
DA:89,0
DA:89,0
DA:89,0
DA:89,0
DA:89,0
DA:89,0
DA:89,0
DA:89,0
DA:89,0
DA:89,0
DA:89,0
DA:102,0
DA:104,0
DA:105,0
DA:114,0
DA:102,0
DA:104,0
DA:105,0
DA:114,0
DA:102,0
DA:104,0
DA:105,0
DA:114,0
DA:102,0
DA:104,0
DA:105,0
DA:114,0
DA:102,0
DA:104,0
DA:105,0
DA:114,0
DA:102,0
DA:104,0
DA:105,0
DA:114,0
DA:102,0
DA:104,0
DA:105,0
DA:114,0
DA:119,0
DA:128,0
DA:129,0
DA:119,0
DA:128,0
DA:129,0
DA:119,0
DA:128,0
DA:129,0
DA:119,0
DA:128,0
DA:129,0
DA:119,0
DA:128,0
DA:129,0
DA:119,0
DA:128,0
DA:129,0
DA:119,0
DA:128,0
DA:129,0
DA:132,0
DA:135,0
DA:132,0
DA:135,0
DA:132,0
DA:135,0
DA:132,0
DA:135,0
DA:132,0
DA:135,0
DA:132,0
DA:135,0
DA:132,0
DA:135,0
DA:144,0
DA:146,0
DA:144,0
DA:146,0
DA:144,0
DA:146,0
DA:144,49
DA:146,49
DA:144,0
DA:146,0
DA:150,0
DA:152,0
DA:150,0
DA:152,0
DA:150,0
DA:152,0
DA:150,0
DA:152,0
DA:150,0
DA:152,0
end_of_record
SF:/home/idra/Sync/EPQ/src/assembler/assembler.hpp
end_of_record
SF:/usr/include/c++/9/bits/cpp_type_traits.h
FN:428,_ZSt12__miter_baseIPiET_S1_
FNDA:0,_ZSt12__miter_baseIPiET_S1_
FN:428,_ZSt12__miter_baseIPKN9assembler11OperandTypeEET_S4_
FNDA:0,_ZSt12__miter_baseIPKN9assembler11OperandTypeEET_S4_
FN:428,_ZSt12__miter_baseIN9__gnu_cxx17__normal_iteratorIPKN9assembler11OperandTypeESt6vectorIS3_SaIS3_EEEEET_SA_
FNDA:0,_ZSt12__miter_baseIN9__gnu_cxx17__normal_iteratorIPKN9assembler11OperandTypeESt6vectorIS3_SaIS3_EEEEET_SA_
DA:428,0
DA:429,0
DA:428,0
DA:429,0
DA:428,0
DA:429,0
end_of_record
SF:/usr/include/c++/9/utility
FN:174,_ZNSt10__pair_getILm0EE5__getIKNSt7__cxx1112basic_stringIcSt11char_traitsIcESaIcEEESt5arrayIiLm4EEEERT_RSt4pairISB_T0_E
FNDA:0,_ZNSt10__pair_getILm0EE5__getIKNSt7__cxx1112basic_stringIcSt11char_traitsIcESaIcEEESt5arrayIiLm4EEEERT_RSt4pairISB_T0_E
FN:174,_ZNSt10__pair_getILm0EE5__getIKNSt7__cxx1112basic_stringIcSt11char_traitsIcESaIcEEESt6vectorIN9assembler11OperandTypeESaISB_EEEERT_RSt4pairISE_T0_E
FNDA:0,_ZNSt10__pair_getILm0EE5__getIKNSt7__cxx1112basic_stringIcSt11char_traitsIcESaIcEEESt6vectorIN9assembler11OperandTypeESaISB_EEEERT_RSt4pairISE_T0_E
FN:174,_ZNSt10__pair_getILm0EE5__getIKNSt7__cxx1112basic_stringIcSt11char_traitsIcESaIcEEEiEERT_RSt4pairIS9_T0_E
FNDA:0,_ZNSt10__pair_getILm0EE5__getIKNSt7__cxx1112basic_stringIcSt11char_traitsIcESaIcEEEiEERT_RSt4pairIS9_T0_E
FN:184,_ZNSt10__pair_getILm0EE11__const_getIKNSt7__cxx1112basic_stringIcSt11char_traitsIcESaIcEEESt5arrayIiLm4EEEERKT_RKSt4pairISB_T0_E
FNDA:0,_ZNSt10__pair_getILm0EE11__const_getIKNSt7__cxx1112basic_stringIcSt11char_traitsIcESaIcEEESt5arrayIiLm4EEEERKT_RKSt4pairISB_T0_E
FN:184,_ZNSt10__pair_getILm0EE11__const_getIKNSt7__cxx1112basic_stringIcSt11char_traitsIcESaIcEEESt6vectorIN9assembler11OperandTypeESaISB_EEEERKT_RKSt4pairISE_T0_E
FNDA:0,_ZNSt10__pair_getILm0EE11__const_getIKNSt7__cxx1112basic_stringIcSt11char_traitsIcESaIcEEESt6vectorIN9assembler11OperandTypeESaISB_EEEERKT_RKSt4pairISE_T0_E
FN:184,_ZNSt10__pair_getILm0EE11__const_getIKNSt7__cxx1112basic_stringIcSt11char_traitsIcESaIcEEEiEERKT_RKSt4pairIS9_T0_E
FNDA:0,_ZNSt10__pair_getILm0EE11__const_getIKNSt7__cxx1112basic_stringIcSt11char_traitsIcESaIcEEEiEERKT_RKSt4pairIS9_T0_E
FN:219,_ZSt3getILm0EKNSt7__cxx1112basic_stringIcSt11char_traitsIcESaIcEEESt5arrayIiLm4EEERNSt13tuple_elementIXT_ESt4pairIT0_T1_EE4typeERSD_
FNDA:0,_ZSt3getILm0EKNSt7__cxx1112basic_stringIcSt11char_traitsIcESaIcEEESt5arrayIiLm4EEERNSt13tuple_elementIXT_ESt4pairIT0_T1_EE4typeERSD_
FN:219,_ZSt3getILm0EKNSt7__cxx1112basic_stringIcSt11char_traitsIcESaIcEEESt6vectorIN9assembler11OperandTypeESaIS9_EEERNSt13tuple_elementIXT_ESt4pairIT0_T1_EE4typeERSG_
FNDA:0,_ZSt3getILm0EKNSt7__cxx1112basic_stringIcSt11char_traitsIcESaIcEEESt6vectorIN9assembler11OperandTypeESaIS9_EEERNSt13tuple_elementIXT_ESt4pairIT0_T1_EE4typeERSG_
FN:219,_ZSt3getILm0EKNSt7__cxx1112basic_stringIcSt11char_traitsIcESaIcEEEiERNSt13tuple_elementIXT_ESt4pairIT0_T1_EE4typeERSB_
FNDA:0,_ZSt3getILm0EKNSt7__cxx1112basic_stringIcSt11char_traitsIcESaIcEEEiERNSt13tuple_elementIXT_ESt4pairIT0_T1_EE4typeERSB_
FN:229,_ZSt3getILm0EKNSt7__cxx1112basic_stringIcSt11char_traitsIcESaIcEEESt5arrayIiLm4EEERKNSt13tuple_elementIXT_ESt4pairIT0_T1_EE4typeERKSD_
FNDA:0,_ZSt3getILm0EKNSt7__cxx1112basic_stringIcSt11char_traitsIcESaIcEEESt5arrayIiLm4EEERKNSt13tuple_elementIXT_ESt4pairIT0_T1_EE4typeERKSD_
FN:229,_ZSt3getILm0EKNSt7__cxx1112basic_stringIcSt11char_traitsIcESaIcEEESt6vectorIN9assembler11OperandTypeESaIS9_EEERKNSt13tuple_elementIXT_ESt4pairIT0_T1_EE4typeERKSG_
FNDA:0,_ZSt3getILm0EKNSt7__cxx1112basic_stringIcSt11char_traitsIcESaIcEEESt6vectorIN9assembler11OperandTypeESaIS9_EEERKNSt13tuple_elementIXT_ESt4pairIT0_T1_EE4typeERKSG_
FN:229,_ZSt3getILm0EKNSt7__cxx1112basic_stringIcSt11char_traitsIcESaIcEEEiERKNSt13tuple_elementIXT_ESt4pairIT0_T1_EE4typeERKSB_
FNDA:0,_ZSt3getILm0EKNSt7__cxx1112basic_stringIcSt11char_traitsIcESaIcEEEiERKNSt13tuple_elementIXT_ESt4pairIT0_T1_EE4typeERKSB_
DA:174,0
DA:175,0
DA:174,0
DA:175,0
DA:174,0
DA:175,0
DA:184,0
DA:185,0
DA:184,0
DA:185,0
DA:184,0
DA:185,0
DA:219,0
DA:220,0
DA:219,0
DA:220,0
DA:219,0
DA:220,0
DA:229,0
DA:230,0
DA:229,0
DA:230,0
DA:229,0
DA:230,0
end_of_record
SF:/usr/include/c++/9/bits/char_traits.h
FN:315,_ZNSt11char_traitsIcE7compareEPKcS2_m
FNDA:0,_ZNSt11char_traitsIcE7compareEPKcS2_m
FN:336,_ZNSt11char_traitsIcE6lengthEPKc
FNDA:0,_ZNSt11char_traitsIcE6lengthEPKc
FN:368,_ZNSt11char_traitsIcE4copyEPcPKcm
FNDA:0,_ZNSt11char_traitsIcE4copyEPcPKcm
DA:315,0
DA:317,0
DA:318,0
DA:332,0
DA:336,0
DA:342,0
DA:368,0
DA:370,0
DA:371,0
DA:372,0
end_of_record
SF:/usr/include/c++/9/bits/stl_iterator.h
FN:803,_ZN9__gnu_cxx17__normal_iteratorIPKNSt7__cxx1112basic_stringIcSt11char_traitsIcESaIcEEESt6vectorIS6_SaIS6_EEEC2ERKS8_
FNDA:0,_ZN9__gnu_cxx17__normal_iteratorIPKNSt7__cxx1112basic_stringIcSt11char_traitsIcESaIcEEESt6vectorIS6_SaIS6_EEEC2ERKS8_
FN:803,_ZN9__gnu_cxx17__normal_iteratorIPKiSt6vectorIiSaIiEEEC2ERKS2_
FNDA:0,_ZN9__gnu_cxx17__normal_iteratorIPKiSt6vectorIiSaIiEEEC2ERKS2_
FN:803,_ZN9__gnu_cxx17__normal_iteratorIPiSt6vectorIiSaIiEEEC2ERKS1_
FNDA:0,_ZN9__gnu_cxx17__normal_iteratorIPiSt6vectorIiSaIiEEEC2ERKS1_
FN:803,_ZN9__gnu_cxx17__normal_iteratorIPNSt7__cxx1112basic_stringIcSt11char_traitsIcESaIcEEESt6vectorIS6_SaIS6_EEEC2ERKS7_
FNDA:0,_ZN9__gnu_cxx17__normal_iteratorIPNSt7__cxx1112basic_stringIcSt11char_traitsIcESaIcEEESt6vectorIS6_SaIS6_EEEC2ERKS7_
FN:803,_ZN9__gnu_cxx17__normal_iteratorIPKN9assembler11OperandTypeESt6vectorIS2_SaIS2_EEEC2ERKS4_
FNDA:0,_ZN9__gnu_cxx17__normal_iteratorIPKN9assembler11OperandTypeESt6vectorIS2_SaIS2_EEEC2ERKS4_
FN:816,_ZNK9__gnu_cxx17__normal_iteratorIPKNSt7__cxx1112basic_stringIcSt11char_traitsIcESaIcEEESt6vectorIS6_SaIS6_EEEdeEv
FNDA:0,_ZNK9__gnu_cxx17__normal_iteratorIPKNSt7__cxx1112basic_stringIcSt11char_traitsIcESaIcEEESt6vectorIS6_SaIS6_EEEdeEv
FN:816,_ZNK9__gnu_cxx17__normal_iteratorIPKiSt6vectorIiSaIiEEEdeEv
FNDA:0,_ZNK9__gnu_cxx17__normal_iteratorIPKiSt6vectorIiSaIiEEEdeEv
FN:824,_ZN9__gnu_cxx17__normal_iteratorIPKNSt7__cxx1112basic_stringIcSt11char_traitsIcESaIcEEESt6vectorIS6_SaIS6_EEEppEv
FNDA:0,_ZN9__gnu_cxx17__normal_iteratorIPKNSt7__cxx1112basic_stringIcSt11char_traitsIcESaIcEEESt6vectorIS6_SaIS6_EEEppEv
FN:824,_ZN9__gnu_cxx17__normal_iteratorIPKiSt6vectorIiSaIiEEEppEv
FNDA:0,_ZN9__gnu_cxx17__normal_iteratorIPKiSt6vectorIiSaIiEEEppEv
FN:868,_ZNK9__gnu_cxx17__normal_iteratorIPKN9assembler11OperandTypeESt6vectorIS2_SaIS2_EEE4baseEv
FNDA:0,_ZNK9__gnu_cxx17__normal_iteratorIPKN9assembler11OperandTypeESt6vectorIS2_SaIS2_EEE4baseEv
FN:868,_ZNK9__gnu_cxx17__normal_iteratorIPKNSt7__cxx1112basic_stringIcSt11char_traitsIcESaIcEEESt6vectorIS6_SaIS6_EEE4baseEv
FNDA:0,_ZNK9__gnu_cxx17__normal_iteratorIPKNSt7__cxx1112basic_stringIcSt11char_traitsIcESaIcEEESt6vectorIS6_SaIS6_EEE4baseEv
FN:868,_ZNK9__gnu_cxx17__normal_iteratorIPiSt6vectorIiSaIiEEE4baseEv
FNDA:0,_ZNK9__gnu_cxx17__normal_iteratorIPiSt6vectorIiSaIiEEE4baseEv
FN:868,_ZNK9__gnu_cxx17__normal_iteratorIPNSt7__cxx1112basic_stringIcSt11char_traitsIcESaIcEEESt6vectorIS6_SaIS6_EEE4baseEv
FNDA:0,_ZNK9__gnu_cxx17__normal_iteratorIPNSt7__cxx1112basic_stringIcSt11char_traitsIcESaIcEEESt6vectorIS6_SaIS6_EEE4baseEv
FN:868,_ZNK9__gnu_cxx17__normal_iteratorIPKiSt6vectorIiSaIiEEE4baseEv
FNDA:0,_ZNK9__gnu_cxx17__normal_iteratorIPKiSt6vectorIiSaIiEEE4baseEv
FN:904,_ZN9__gnu_cxxneIPKNSt7__cxx1112basic_stringIcSt11char_traitsIcESaIcEEESt6vectorIS6_SaIS6_EEEEbRKNS_17__normal_iteratorIT_T0_EESH_
FNDA:0,_ZN9__gnu_cxxneIPKNSt7__cxx1112basic_stringIcSt11char_traitsIcESaIcEEESt6vectorIS6_SaIS6_EEEEbRKNS_17__normal_iteratorIT_T0_EESH_
FN:904,_ZN9__gnu_cxxneIPKiSt6vectorIiSaIiEEEEbRKNS_17__normal_iteratorIT_T0_EESB_
FNDA:0,_ZN9__gnu_cxxneIPKiSt6vectorIiSaIiEEEEbRKNS_17__normal_iteratorIT_T0_EESB_
FN:986,_ZN9__gnu_cxxmiIPNSt7__cxx1112basic_stringIcSt11char_traitsIcESaIcEEESt6vectorIS6_SaIS6_EEEENS_17__normal_iteratorIT_T0_E15difference_typeERKSE_SH_
FNDA:0,_ZN9__gnu_cxxmiIPNSt7__cxx1112basic_stringIcSt11char_traitsIcESaIcEEESt6vectorIS6_SaIS6_EEEENS_17__normal_iteratorIT_T0_E15difference_typeERKSE_SH_
FN:986,_ZN9__gnu_cxxmiIPiSt6vectorIiSaIiEEEENS_17__normal_iteratorIT_T0_E15difference_typeERKS8_SB_
FNDA:0,_ZN9__gnu_cxxmiIPiSt6vectorIiSaIiEEEENS_17__normal_iteratorIT_T0_E15difference_typeERKS8_SB_
FN:1007,_ZSt12__niter_baseIPKN9assembler11OperandTypeESt6vectorIS1_SaIS1_EEET_N9__gnu_cxx17__normal_iteratorIS7_T0_EE
FNDA:0,_ZSt12__niter_baseIPKN9assembler11OperandTypeESt6vectorIS1_SaIS1_EEET_N9__gnu_cxx17__normal_iteratorIS7_T0_EE
FN:1054,_ZNSt13move_iteratorIPNSt7__cxx1112basic_stringIcSt11char_traitsIcESaIcEEEEC2ES6_
FNDA:0,_ZNSt13move_iteratorIPNSt7__cxx1112basic_stringIcSt11char_traitsIcESaIcEEEEC2ES6_
FN:1054,_ZNSt13move_iteratorIPiEC2ES0_
FNDA:0,_ZNSt13move_iteratorIPiEC2ES0_
FN:1063,_ZNKSt13move_iteratorIPiE4baseEv
FNDA:0,_ZNKSt13move_iteratorIPiE4baseEv
FN:1063,_ZNKSt13move_iteratorIPNSt7__cxx1112basic_stringIcSt11char_traitsIcESaIcEEEE4baseEv
FNDA:0,_ZNKSt13move_iteratorIPNSt7__cxx1112basic_stringIcSt11char_traitsIcESaIcEEEE4baseEv
FN:1067,_ZNKSt13move_iteratorIPNSt7__cxx1112basic_stringIcSt11char_traitsIcESaIcEEEEdeEv
FNDA:0,_ZNKSt13move_iteratorIPNSt7__cxx1112basic_stringIcSt11char_traitsIcESaIcEEEEdeEv
FN:1075,_ZNSt13move_iteratorIPNSt7__cxx1112basic_stringIcSt11char_traitsIcESaIcEEEEppEv
FNDA:0,_ZNSt13move_iteratorIPNSt7__cxx1112basic_stringIcSt11char_traitsIcESaIcEEEEppEv
FN:1142,_ZSteqIPNSt7__cxx1112basic_stringIcSt11char_traitsIcESaIcEEEEbRKSt13move_iteratorIT_ESB_
FNDA:0,_ZSteqIPNSt7__cxx1112basic_stringIcSt11char_traitsIcESaIcEEEEbRKSt13move_iteratorIT_ESB_
FN:1154,_ZStneIPNSt7__cxx1112basic_stringIcSt11char_traitsIcESaIcEEEEbRKSt13move_iteratorIT_ESB_
FNDA:0,_ZStneIPNSt7__cxx1112basic_stringIcSt11char_traitsIcESaIcEEEEbRKSt13move_iteratorIT_ESB_
FN:1239,_ZSt32__make_move_if_noexcept_iteratorINSt7__cxx1112basic_stringIcSt11char_traitsIcESaIcEEESt13move_iteratorIPS5_EET0_PT_
FNDA:0,_ZSt32__make_move_if_noexcept_iteratorINSt7__cxx1112basic_stringIcSt11char_traitsIcESaIcEEESt13move_iteratorIPS5_EET0_PT_
FN:1239,_ZSt32__make_move_if_noexcept_iteratorIiSt13move_iteratorIPiEET0_PT_
FNDA:0,_ZSt32__make_move_if_noexcept_iteratorIiSt13move_iteratorIPiEET0_PT_
FN:1259,_ZSt12__miter_baseIPiEDTcl12__miter_basecldtfp_4baseEEESt13move_iteratorIT_E
FNDA:0,_ZSt12__miter_baseIPiEDTcl12__miter_basecldtfp_4baseEEESt13move_iteratorIT_E
DA:803,0
DA:804,0
DA:803,0
DA:804,0
DA:803,0
DA:804,0
DA:803,0
DA:804,0
DA:803,0
DA:804,0
DA:816,0
DA:817,0
DA:816,0
DA:817,0
DA:824,0
DA:826,0
DA:827,0
DA:824,0
DA:826,0
DA:827,0
DA:868,0
DA:869,0
DA:868,0
DA:869,0
DA:868,0
DA:869,0
DA:868,0
DA:869,0
DA:868,0
DA:869,0
DA:904,0
DA:907,0
DA:904,0
DA:907,0
DA:986,0
DA:989,0
DA:986,0
DA:989,0
DA:1007,0
DA:1009,0
DA:1054,0
DA:1055,0
DA:1054,0
DA:1055,0
DA:1063,0
DA:1064,0
DA:1063,0
DA:1064,0
DA:1067,0
DA:1068,0
DA:1075,0
DA:1077,0
DA:1078,0
DA:1142,0
DA:1144,0
DA:1154,0
DA:1156,0
DA:1239,0
DA:1240,0
DA:1239,0
DA:1240,0
DA:1259,0
DA:1261,0
end_of_record
SF:/usr/include/c++/9/initializer_list
FN:71,_ZNKSt16initializer_listISt4pairIKNSt7__cxx1112basic_stringIcSt11char_traitsIcESaIcEEESt5arrayIiLm4EEEE4sizeEv
FNDA:0,_ZNKSt16initializer_listISt4pairIKNSt7__cxx1112basic_stringIcSt11char_traitsIcESaIcEEESt5arrayIiLm4EEEE4sizeEv
FN:71,_ZNKSt16initializer_listISt4pairIKNSt7__cxx1112basic_stringIcSt11char_traitsIcESaIcEEESt6vectorIN9assembler11OperandTypeESaISA_EEEE4sizeEv
FNDA:0,_ZNKSt16initializer_listISt4pairIKNSt7__cxx1112basic_stringIcSt11char_traitsIcESaIcEEESt6vectorIN9assembler11OperandTypeESaISA_EEEE4sizeEv
FN:71,_ZNKSt16initializer_listISt4pairIKNSt7__cxx1112basic_stringIcSt11char_traitsIcESaIcEEEiEE4sizeEv
FNDA:0,_ZNKSt16initializer_listISt4pairIKNSt7__cxx1112basic_stringIcSt11char_traitsIcESaIcEEEiEE4sizeEv
FN:71,_ZNKSt16initializer_listIN9assembler11OperandTypeEE4sizeEv
FNDA:0,_ZNKSt16initializer_listIN9assembler11OperandTypeEE4sizeEv
FN:75,_ZNKSt16initializer_listISt4pairIKNSt7__cxx1112basic_stringIcSt11char_traitsIcESaIcEEESt5arrayIiLm4EEEE5beginEv
FNDA:0,_ZNKSt16initializer_listISt4pairIKNSt7__cxx1112basic_stringIcSt11char_traitsIcESaIcEEESt5arrayIiLm4EEEE5beginEv
FN:75,_ZNKSt16initializer_listISt4pairIKNSt7__cxx1112basic_stringIcSt11char_traitsIcESaIcEEESt6vectorIN9assembler11OperandTypeESaISA_EEEE5beginEv
FNDA:0,_ZNKSt16initializer_listISt4pairIKNSt7__cxx1112basic_stringIcSt11char_traitsIcESaIcEEESt6vectorIN9assembler11OperandTypeESaISA_EEEE5beginEv
FN:75,_ZNKSt16initializer_listISt4pairIKNSt7__cxx1112basic_stringIcSt11char_traitsIcESaIcEEEiEE5beginEv
FNDA:0,_ZNKSt16initializer_listISt4pairIKNSt7__cxx1112basic_stringIcSt11char_traitsIcESaIcEEEiEE5beginEv
FN:75,_ZNKSt16initializer_listIN9assembler11OperandTypeEE5beginEv
FNDA:0,_ZNKSt16initializer_listIN9assembler11OperandTypeEE5beginEv
FN:79,_ZNKSt16initializer_listISt4pairIKNSt7__cxx1112basic_stringIcSt11char_traitsIcESaIcEEESt5arrayIiLm4EEEE3endEv
FNDA:0,_ZNKSt16initializer_listISt4pairIKNSt7__cxx1112basic_stringIcSt11char_traitsIcESaIcEEESt5arrayIiLm4EEEE3endEv
FN:79,_ZNKSt16initializer_listISt4pairIKNSt7__cxx1112basic_stringIcSt11char_traitsIcESaIcEEESt6vectorIN9assembler11OperandTypeESaISA_EEEE3endEv
FNDA:0,_ZNKSt16initializer_listISt4pairIKNSt7__cxx1112basic_stringIcSt11char_traitsIcESaIcEEESt6vectorIN9assembler11OperandTypeESaISA_EEEE3endEv
FN:79,_ZNKSt16initializer_listISt4pairIKNSt7__cxx1112basic_stringIcSt11char_traitsIcESaIcEEEiEE3endEv
FNDA:0,_ZNKSt16initializer_listISt4pairIKNSt7__cxx1112basic_stringIcSt11char_traitsIcESaIcEEEiEE3endEv
FN:79,_ZNKSt16initializer_listIN9assembler11OperandTypeEE3endEv
FNDA:0,_ZNKSt16initializer_listIN9assembler11OperandTypeEE3endEv
DA:71,0
DA:71,0
DA:71,0
DA:71,0
DA:75,0
DA:75,0
DA:75,0
DA:75,0
DA:79,0
DA:79,0
DA:79,0
DA:79,0
end_of_record
SF:/usr/include/c++/9/bits/stl_uninitialized.h
FN:76,_ZNSt20__uninitialized_copyILb0EE13__uninit_copyISt13move_iteratorIPNSt7__cxx1112basic_stringIcSt11char_traitsIcESaIcEEEES9_EET0_T_SC_SB_
FNDA:0,_ZNSt20__uninitialized_copyILb0EE13__uninit_copyISt13move_iteratorIPNSt7__cxx1112basic_stringIcSt11char_traitsIcESaIcEEEES9_EET0_T_SC_SB_
FN:99,_ZNSt20__uninitialized_copyILb1EE13__uninit_copyISt13move_iteratorIPiES3_EET0_T_S6_S5_
FNDA:0,_ZNSt20__uninitialized_copyILb1EE13__uninit_copyISt13move_iteratorIPiES3_EET0_T_S6_S5_
FN:99,_ZNSt20__uninitialized_copyILb1EE13__uninit_copyIPKN9assembler11OperandTypeEPS3_EET0_T_S8_S7_
FNDA:0,_ZNSt20__uninitialized_copyILb1EE13__uninit_copyIPKN9assembler11OperandTypeEPS3_EET0_T_S8_S7_
FN:99,_ZNSt20__uninitialized_copyILb1EE13__uninit_copyIN9__gnu_cxx17__normal_iteratorIPKN9assembler11OperandTypeESt6vectorIS5_SaIS5_EEEEPS5_EET0_T_SE_SD_
FNDA:0,_ZNSt20__uninitialized_copyILb1EE13__uninit_copyIN9__gnu_cxx17__normal_iteratorIPKN9assembler11OperandTypeESt6vectorIS5_SaIS5_EEEEPS5_EET0_T_SE_SD_
FN:115,_ZSt18uninitialized_copyISt13move_iteratorIPNSt7__cxx1112basic_stringIcSt11char_traitsIcESaIcEEEES7_ET0_T_SA_S9_
FNDA:0,_ZSt18uninitialized_copyISt13move_iteratorIPNSt7__cxx1112basic_stringIcSt11char_traitsIcESaIcEEEES7_ET0_T_SA_S9_
FN:115,_ZSt18uninitialized_copyIN9__gnu_cxx17__normal_iteratorIPKN9assembler11OperandTypeESt6vectorIS3_SaIS3_EEEEPS3_ET0_T_SC_SB_
FNDA:0,_ZSt18uninitialized_copyIN9__gnu_cxx17__normal_iteratorIPKN9assembler11OperandTypeESt6vectorIS3_SaIS3_EEEEPS3_ET0_T_SC_SB_
FN:115,_ZSt18uninitialized_copyISt13move_iteratorIPiES1_ET0_T_S4_S3_
FNDA:0,_ZSt18uninitialized_copyISt13move_iteratorIPiES1_ET0_T_S4_S3_
FN:115,_ZSt18uninitialized_copyIPKN9assembler11OperandTypeEPS1_ET0_T_S6_S5_
FNDA:0,_ZSt18uninitialized_copyIPKN9assembler11OperandTypeEPS1_ET0_T_S6_S5_
FN:305,_ZSt22__uninitialized_copy_aIN9__gnu_cxx17__normal_iteratorIPKN9assembler11OperandTypeESt6vectorIS3_SaIS3_EEEEPS3_S3_ET0_T_SC_SB_RSaIT1_E
FNDA:0,_ZSt22__uninitialized_copy_aIN9__gnu_cxx17__normal_iteratorIPKN9assembler11OperandTypeESt6vectorIS3_SaIS3_EEEEPS3_S3_ET0_T_SC_SB_RSaIT1_E
FN:305,_ZSt22__uninitialized_copy_aIPKN9assembler11OperandTypeEPS1_S1_ET0_T_S6_S5_RSaIT1_E
FNDA:0,_ZSt22__uninitialized_copy_aIPKN9assembler11OperandTypeEPS1_S1_ET0_T_S6_S5_RSaIT1_E
FN:305,_ZSt22__uninitialized_copy_aISt13move_iteratorIPiES1_iET0_T_S4_S3_RSaIT1_E
FNDA:0,_ZSt22__uninitialized_copy_aISt13move_iteratorIPiES1_iET0_T_S4_S3_RSaIT1_E
FN:305,_ZSt22__uninitialized_copy_aISt13move_iteratorIPNSt7__cxx1112basic_stringIcSt11char_traitsIcESaIcEEEES7_S6_ET0_T_SA_S9_RSaIT1_E
FNDA:0,_ZSt22__uninitialized_copy_aISt13move_iteratorIPNSt7__cxx1112basic_stringIcSt11char_traitsIcESaIcEEEES7_S6_ET0_T_SA_S9_RSaIT1_E
FN:323,_ZSt34__uninitialized_move_if_noexcept_aIPNSt7__cxx1112basic_stringIcSt11char_traitsIcESaIcEEES6_SaIS5_EET0_T_S9_S8_RT1_
FNDA:0,_ZSt34__uninitialized_move_if_noexcept_aIPNSt7__cxx1112basic_stringIcSt11char_traitsIcESaIcEEES6_SaIS5_EET0_T_S9_S8_RT1_
FN:323,_ZSt34__uninitialized_move_if_noexcept_aIPiS0_SaIiEET0_T_S3_S2_RT1_
FNDA:0,_ZSt34__uninitialized_move_if_noexcept_aIPiS0_SaIiEET0_T_S3_S2_RT1_
FN:905,_ZSt19__relocate_object_aINSt7__cxx1112basic_stringIcSt11char_traitsIcESaIcEEES5_SaIS5_EEvPT_PT0_RT1_
FNDA:0,_ZSt19__relocate_object_aINSt7__cxx1112basic_stringIcSt11char_traitsIcESaIcEEES5_SaIS5_EEvPT_PT0_RT1_
FN:924,_ZSt14__relocate_a_1IiiENSt9enable_ifIXsrSt24__is_bitwise_relocatableIT_vE5valueEPS2_E4typeES4_S4_S4_RSaIT0_E
FNDA:19,_ZSt14__relocate_a_1IiiENSt9enable_ifIXsrSt24__is_bitwise_relocatableIT_vE5valueEPS2_E4typeES4_S4_S4_RSaIT0_E
FN:936,_ZSt14__relocate_a_1IPNSt7__cxx1112basic_stringIcSt11char_traitsIcESaIcEEES6_SaIS5_EET0_T_S9_S8_RT1_
FNDA:0,_ZSt14__relocate_a_1IPNSt7__cxx1112basic_stringIcSt11char_traitsIcESaIcEEES6_SaIS5_EET0_T_S9_S8_RT1_
FN:958,_ZSt12__relocate_aIPiS0_SaIiEET0_T_S3_S2_RT1_
FNDA:19,_ZSt12__relocate_aIPiS0_SaIiEET0_T_S3_S2_RT1_
FN:958,_ZSt12__relocate_aIPNSt7__cxx1112basic_stringIcSt11char_traitsIcESaIcEEES6_SaIS5_EET0_T_S9_S8_RT1_
FNDA:0,_ZSt12__relocate_aIPNSt7__cxx1112basic_stringIcSt11char_traitsIcESaIcEEES6_SaIS5_EET0_T_S9_S8_RT1_
DA:76,0
DA:79,0
DA:82,0
DA:83,0
DA:84,0
DA:86,0
DA:88,0
DA:89,0
DA:99,0
DA:101,0
DA:99,0
DA:101,0
DA:99,0
DA:101,0
DA:115,0
DA:134,0
DA:140,0
DA:115,0
DA:134,0
DA:140,0
DA:115,0
DA:134,0
DA:140,0
DA:115,0
DA:134,0
DA:140,0
DA:305,0
DA:307,0
DA:305,0
DA:307,0
DA:305,0
DA:307,0
DA:305,0
DA:307,0
DA:323,0
DA:329,0
DA:330,0
DA:323,0
DA:329,0
DA:330,0
DA:905,0
DA:912,0
DA:913,0
DA:914,0
DA:924,19
DA:927,19
DA:928,19
DA:929,0
DA:930,19
DA:936,0
DA:948,0
DA:949,0
DA:950,0
DA:952,0
DA:958,0
DA:964,0
DA:966,0
DA:958,19
DA:964,19
DA:966,19
end_of_record
SF:/home/idra/Sync/EPQ/src/assembler/assembler.cpp
FN:13,_ZN9assembler6Detail22IsValidInstructionSizeEi
FNDA:27,_ZN9assembler6Detail22IsValidInstructionSizeEi
FN:18,_ZN9assembler6Detail13IsValidOpcodeERKNSt7__cxx1112basic_stringIcSt11char_traitsIcESaIcEEE
FNDA:24,_ZN9assembler6Detail13IsValidOpcodeERKNSt7__cxx1112basic_stringIcSt11char_traitsIcESaIcEEE
FN:22,_ZN9assembler6Detail14IsValidOperandERKiNS_11OperandTypeE
FNDA:48,_ZN9assembler6Detail14IsValidOperandERKiNS_11OperandTypeE
FN:39,_ZN9assembler6Detail23IsArithmeticInstructionERKNSt7__cxx1112basic_stringIcSt11char_traitsIcESaIcEEE
FNDA:15,_ZN9assembler6Detail23IsArithmeticInstructionERKNSt7__cxx1112basic_stringIcSt11char_traitsIcESaIcEEE
FN:43,_ZN9assembler6Detail16GetFourthOperandERKNSt7__cxx1112basic_stringIcSt11char_traitsIcESaIcEEE
FNDA:4,_ZN9assembler6Detail16GetFourthOperandERKNSt7__cxx1112basic_stringIcSt11char_traitsIcESaIcEEE
FN:53,_ZN9assembler6Detail13HandleOperandERSt6vectorINSt7__cxx1112basic_stringIcSt11char_traitsIcESaIcEEESaIS7_EERKS7_i
FNDA:88,_ZN9assembler6Detail13HandleOperandERSt6vectorINSt7__cxx1112basic_stringIcSt11char_traitsIcESaIcEEESaIS7_EERKS7_i
FN:57,_ZN9assembler6Detail17GetOperandStringsERKNSt7__cxx1112basic_stringIcSt11char_traitsIcESaIcEEE
FNDA:22,_ZN9assembler6Detail17GetOperandStringsERKNSt7__cxx1112basic_stringIcSt11char_traitsIcESaIcEEE
FN:66,_ZN9assembler6Detail17OperandCountValidERKNSt7__cxx1112basic_stringIcSt11char_traitsIcESaIcEEERKSt6vectorIS6_SaIS6_EE
FNDA:22,_ZN9assembler6Detail17OperandCountValidERKNSt7__cxx1112basic_stringIcSt11char_traitsIcESaIcEEERKSt6vectorIS6_SaIS6_EE
FN:70,_ZN9assembler6Detail18OperandsAsIntegersERKSt6vectorINSt7__cxx1112basic_stringIcSt11char_traitsIcESaIcEEESaIS7_EE
FNDA:20,_ZN9assembler6Detail18OperandsAsIntegersERKSt6vectorINSt7__cxx1112basic_stringIcSt11char_traitsIcESaIcEEESaIS7_EE
FN:79,_ZN9assembler6Detail16OperandsAsBinaryB5cxx11ERKSt6vectorIiSaIiEE
FNDA:16,_ZN9assembler6Detail16OperandsAsBinaryB5cxx11ERKSt6vectorIiSaIiEE
FN:88,_ZN9assembler6Detail13OperandsValidERKNSt7__cxx1112basic_stringIcSt11char_traitsIcESaIcEEERKSt6vectorIiSaIiEE
FNDA:20,_ZN9assembler6Detail13OperandsValidERKNSt7__cxx1112basic_stringIcSt11char_traitsIcESaIcEEERKSt6vectorIiSaIiEE
FN:97,_ZN9assembler6Detail16BuildMachineCodeERKNSt7__cxx1112basic_stringIcSt11char_traitsIcESaIcEEERKSt6vectorIS6_SaIS6_EE
FNDA:16,_ZN9assembler6Detail16BuildMachineCodeERKNSt7__cxx1112basic_stringIcSt11char_traitsIcESaIcEEERKSt6vectorIS6_SaIS6_EE
FN:130,_ZN9assembler8AssembleERKNSt7__cxx1112basic_stringIcSt11char_traitsIcESaIcEEE
FNDA:27,_ZN9assembler8AssembleERKNSt7__cxx1112basic_stringIcSt11char_traitsIcESaIcEEE
DA:13,27
DA:14,26
DA:15,53
DA:18,24
DA:19,24
DA:22,48
DA:23,48
DA:24,2
DA:27,46
DA:28,42
DA:31,4
DA:32,4
DA:36,0
DA:39,15
DA:40,15
DA:43,4
DA:44,4
DA:45,3
DA:46,2
DA:47,1
DA:50,0
DA:53,88
DA:54,88
DA:55,88
DA:57,22
DA:58,22
DA:59,22
DA:60,22
DA:61,22
DA:62,22
DA:63,22
DA:66,22
DA:67,22
DA:70,20
DA:71,20
DA:72,20
DA:73,69
DA:74,49
DA:76,20
DA:79,16
DA:80,16
DA:81,16
DA:82,57
DA:83,41
DA:85,16
DA:88,20
DA:89,64
DA:90,48
DA:91,4
DA:94,16
DA:97,16
DA:99,16
DA:100,32
DA:101,16
DA:104,80
DA:105,64
DA:106,64
DA:110,64
DA:111,41
DA:112,41
DA:116,23
DA:117,15
DA:118,4
DA:119,4
DA:123,19
DA:126,32
DA:130,27
DA:132,27
DA:133,3
DA:134,3
DA:138,48
DA:139,24
DA:140,2
DA:141,2
DA:145,44
DA:146,22
DA:147,2
DA:148,2
DA:152,40
DA:153,20
DA:154,4
DA:155,4
DA:159,32
DA:161,16
end_of_record
SF:/usr/include/c++/9/bits/functional_hash.h
FN:195,_ZNSt10_Hash_impl4hashEPKvmm
FNDA:0,_ZNSt10_Hash_impl4hashEPKvmm
DA:195,0
DA:197,0
end_of_record
SF:/usr/include/c++/9/bits/stl_vector.h
FN:94,_ZNSt12_Vector_baseIN9assembler11OperandTypeESaIS1_EE17_Vector_impl_dataC2Ev
FNDA:0,_ZNSt12_Vector_baseIN9assembler11OperandTypeESaIS1_EE17_Vector_impl_dataC2Ev
FN:94,_ZNSt12_Vector_baseINSt7__cxx1112basic_stringIcSt11char_traitsIcESaIcEEESaIS5_EE17_Vector_impl_dataC2Ev
FNDA:0,_ZNSt12_Vector_baseINSt7__cxx1112basic_stringIcSt11char_traitsIcESaIcEEESaIS5_EE17_Vector_impl_dataC2Ev
FN:94,_ZNSt12_Vector_baseIiSaIiEE17_Vector_impl_dataC2Ev
FNDA:0,_ZNSt12_Vector_baseIiSaIiEE17_Vector_impl_dataC2Ev
FN:128,_ZNSt12_Vector_baseIN9assembler11OperandTypeESaIS1_EE12_Vector_implC2Ev
FNDA:0,_ZNSt12_Vector_baseIN9assembler11OperandTypeESaIS1_EE12_Vector_implC2Ev
FN:128,_ZNSt12_Vector_baseINSt7__cxx1112basic_stringIcSt11char_traitsIcESaIcEEESaIS5_EE12_Vector_implC2Ev
FNDA:0,_ZNSt12_Vector_baseINSt7__cxx1112basic_stringIcSt11char_traitsIcESaIcEEESaIS5_EE12_Vector_implC2Ev
FN:128,_ZNSt12_Vector_baseIiSaIiEE12_Vector_implC2Ev
FNDA:20,_ZNSt12_Vector_baseIiSaIiEE12_Vector_implC2Ev
FN:133,_ZNSt12_Vector_baseIN9assembler11OperandTypeESaIS1_EE12_Vector_implC2ERKS2_
FNDA:0,_ZNSt12_Vector_baseIN9assembler11OperandTypeESaIS1_EE12_Vector_implC2ERKS2_
FN:273,_ZNSt12_Vector_baseIN9assembler11OperandTypeESaIS1_EE19_M_get_Tp_allocatorEv
FNDA:0,_ZNSt12_Vector_baseIN9assembler11OperandTypeESaIS1_EE19_M_get_Tp_allocatorEv
FN:273,_ZNSt12_Vector_baseINSt7__cxx1112basic_stringIcSt11char_traitsIcESaIcEEESaIS5_EE19_M_get_Tp_allocatorEv
FNDA:0,_ZNSt12_Vector_baseINSt7__cxx1112basic_stringIcSt11char_traitsIcESaIcEEESaIS5_EE19_M_get_Tp_allocatorEv
FN:273,_ZNSt12_Vector_baseIiSaIiEE19_M_get_Tp_allocatorEv
FNDA:0,_ZNSt12_Vector_baseIiSaIiEE19_M_get_Tp_allocatorEv
FN:277,_ZNKSt12_Vector_baseINSt7__cxx1112basic_stringIcSt11char_traitsIcESaIcEEESaIS5_EE19_M_get_Tp_allocatorEv
FNDA:0,_ZNKSt12_Vector_baseINSt7__cxx1112basic_stringIcSt11char_traitsIcESaIcEEESaIS5_EE19_M_get_Tp_allocatorEv
FN:277,_ZNKSt12_Vector_baseIiSaIiEE19_M_get_Tp_allocatorEv
FNDA:0,_ZNKSt12_Vector_baseIiSaIiEE19_M_get_Tp_allocatorEv
FN:277,_ZNKSt12_Vector_baseIN9assembler11OperandTypeESaIS1_EE19_M_get_Tp_allocatorEv
FNDA:0,_ZNKSt12_Vector_baseIN9assembler11OperandTypeESaIS1_EE19_M_get_Tp_allocatorEv
FN:285,_ZNSt12_Vector_baseIN9assembler11OperandTypeESaIS1_EEC2Ev
FNDA:0,_ZNSt12_Vector_baseIN9assembler11OperandTypeESaIS1_EEC2Ev
FN:285,_ZNSt12_Vector_baseINSt7__cxx1112basic_stringIcSt11char_traitsIcESaIcEEESaIS5_EEC2Ev
FNDA:0,_ZNSt12_Vector_baseINSt7__cxx1112basic_stringIcSt11char_traitsIcESaIcEEESaIS5_EEC2Ev
FN:285,_ZNSt12_Vector_baseIiSaIiEEC2Ev
FNDA:20,_ZNSt12_Vector_baseIiSaIiEEC2Ev
FN:290,_ZNSt12_Vector_baseIN9assembler11OperandTypeESaIS1_EEC2ERKS2_
FNDA:0,_ZNSt12_Vector_baseIN9assembler11OperandTypeESaIS1_EEC2ERKS2_
FN:300,_ZNSt12_Vector_baseIN9assembler11OperandTypeESaIS1_EEC2EmRKS2_
FNDA:0,_ZNSt12_Vector_baseIN9assembler11OperandTypeESaIS1_EEC2EmRKS2_
FN:330,_ZNSt12_Vector_baseINSt7__cxx1112basic_stringIcSt11char_traitsIcESaIcEEESaIS5_EED2Ev
FNDA:0,_ZNSt12_Vector_baseINSt7__cxx1112basic_stringIcSt11char_traitsIcESaIcEEESaIS5_EED2Ev
FN:330,_ZNSt12_Vector_baseIiSaIiEED2Ev
FNDA:0,_ZNSt12_Vector_baseIiSaIiEED2Ev
FN:330,_ZNSt12_Vector_baseIN9assembler11OperandTypeESaIS1_EED2Ev
FNDA:0,_ZNSt12_Vector_baseIN9assembler11OperandTypeESaIS1_EED2Ev
FN:340,_ZNSt12_Vector_baseIN9assembler11OperandTypeESaIS1_EE11_M_allocateEm
FNDA:0,_ZNSt12_Vector_baseIN9assembler11OperandTypeESaIS1_EE11_M_allocateEm
FN:340,_ZNSt12_Vector_baseINSt7__cxx1112basic_stringIcSt11char_traitsIcESaIcEEESaIS5_EE11_M_allocateEm
FNDA:0,_ZNSt12_Vector_baseINSt7__cxx1112basic_stringIcSt11char_traitsIcESaIcEEESaIS5_EE11_M_allocateEm
FN:340,_ZNSt12_Vector_baseIiSaIiEE11_M_allocateEm
FNDA:0,_ZNSt12_Vector_baseIiSaIiEE11_M_allocateEm
FN:347,_ZNSt12_Vector_baseINSt7__cxx1112basic_stringIcSt11char_traitsIcESaIcEEESaIS5_EE13_M_deallocateEPS5_m
FNDA:0,_ZNSt12_Vector_baseINSt7__cxx1112basic_stringIcSt11char_traitsIcESaIcEEESaIS5_EE13_M_deallocateEPS5_m
FN:347,_ZNSt12_Vector_baseIiSaIiEE13_M_deallocateEPim
FNDA:0,_ZNSt12_Vector_baseIiSaIiEE13_M_deallocateEPim
FN:347,_ZNSt12_Vector_baseIN9assembler11OperandTypeESaIS1_EE13_M_deallocateEPS1_m
FNDA:0,_ZNSt12_Vector_baseIN9assembler11OperandTypeESaIS1_EE13_M_deallocateEPS1_m
FN:356,_ZNSt12_Vector_baseIN9assembler11OperandTypeESaIS1_EE17_M_create_storageEm
FNDA:0,_ZNSt12_Vector_baseIN9assembler11OperandTypeESaIS1_EE17_M_create_storageEm
FN:428,_ZNSt6vectorINSt7__cxx1112basic_stringIcSt11char_traitsIcESaIcEEESaIS5_EE19_S_nothrow_relocateESt17integral_constantIbLb1EE
FNDA:0,_ZNSt6vectorINSt7__cxx1112basic_stringIcSt11char_traitsIcESaIcEEESaIS5_EE19_S_nothrow_relocateESt17integral_constantIbLb1EE
FN:428,_ZNSt6vectorIiSaIiEE19_S_nothrow_relocateESt17integral_constantIbLb1EE
FNDA:19,_ZNSt6vectorIiSaIiEE19_S_nothrow_relocateESt17integral_constantIbLb1EE
FN:441,_ZNSt6vectorINSt7__cxx1112basic_stringIcSt11char_traitsIcESaIcEEESaIS5_EE15_S_use_relocateEv
FNDA:0,_ZNSt6vectorINSt7__cxx1112basic_stringIcSt11char_traitsIcESaIcEEESaIS5_EE15_S_use_relocateEv
FN:441,_ZNSt6vectorIiSaIiEE15_S_use_relocateEv
FNDA:19,_ZNSt6vectorIiSaIiEE15_S_use_relocateEv
FN:450,_ZNSt6vectorINSt7__cxx1112basic_stringIcSt11char_traitsIcESaIcEEESaIS5_EE14_S_do_relocateEPS5_S8_S8_RS6_St17integral_constantIbLb1EE
FNDA:0,_ZNSt6vectorINSt7__cxx1112basic_stringIcSt11char_traitsIcESaIcEEESaIS5_EE14_S_do_relocateEPS5_S8_S8_RS6_St17integral_constantIbLb1EE
FN:450,_ZNSt6vectorIiSaIiEE14_S_do_relocateEPiS2_S2_RS0_St17integral_constantIbLb1EE
FNDA:19,_ZNSt6vectorIiSaIiEE14_S_do_relocateEPiS2_S2_RS0_St17integral_constantIbLb1EE
FN:462,_ZNSt6vectorINSt7__cxx1112basic_stringIcSt11char_traitsIcESaIcEEESaIS5_EE11_S_relocateEPS5_S8_S8_RS6_
FNDA:0,_ZNSt6vectorINSt7__cxx1112basic_stringIcSt11char_traitsIcESaIcEEESaIS5_EE11_S_relocateEPS5_S8_S8_RS6_
FN:462,_ZNSt6vectorIiSaIiEE11_S_relocateEPiS2_S2_RS0_
FNDA:19,_ZNSt6vectorIiSaIiEE11_S_relocateEPiS2_S2_RS0_
FN:484,_ZNSt6vectorIN9assembler11OperandTypeESaIS1_EEC2Ev
FNDA:0,_ZNSt6vectorIN9assembler11OperandTypeESaIS1_EEC2Ev
FN:484,_ZNSt6vectorIiSaIiEEC2Ev
FNDA:20,_ZNSt6vectorIiSaIiEEC2Ev
FN:484,_ZNSt6vectorINSt7__cxx1112basic_stringIcSt11char_traitsIcESaIcEEESaIS5_EEC2Ev
FNDA:0,_ZNSt6vectorINSt7__cxx1112basic_stringIcSt11char_traitsIcESaIcEEESaIS5_EEC2Ev
FN:550,_ZNSt6vectorIN9assembler11OperandTypeESaIS1_EEC2ERKS3_
FNDA:0,_ZNSt6vectorIN9assembler11OperandTypeESaIS1_EEC2ERKS3_
FN:622,_ZNSt6vectorIN9assembler11OperandTypeESaIS1_EEC2ESt16initializer_listIS1_ERKS2_
FNDA:0,_ZNSt6vectorIN9assembler11OperandTypeESaIS1_EEC2ESt16initializer_listIS1_ERKS2_
FN:675,_ZNSt6vectorIiSaIiEED2Ev
FNDA:0,_ZNSt6vectorIiSaIiEED2Ev
FN:675,_ZNSt6vectorINSt7__cxx1112basic_stringIcSt11char_traitsIcESaIcEEESaIS5_EED2Ev
FNDA:0,_ZNSt6vectorINSt7__cxx1112basic_stringIcSt11char_traitsIcESaIcEEESaIS5_EED2Ev
FN:675,_ZNSt6vectorIN9assembler11OperandTypeESaIS1_EED2Ev
FNDA:0,_ZNSt6vectorIN9assembler11OperandTypeESaIS1_EED2Ev
FN:808,_ZNSt6vectorINSt7__cxx1112basic_stringIcSt11char_traitsIcESaIcEEESaIS5_EE5beginEv
FNDA:0,_ZNSt6vectorINSt7__cxx1112basic_stringIcSt11char_traitsIcESaIcEEESaIS5_EE5beginEv
FN:808,_ZNSt6vectorIiSaIiEE5beginEv
FNDA:0,_ZNSt6vectorIiSaIiEE5beginEv
FN:817,_ZNKSt6vectorIiSaIiEE5beginEv
FNDA:0,_ZNKSt6vectorIiSaIiEE5beginEv
FN:817,_ZNKSt6vectorIN9assembler11OperandTypeESaIS1_EE5beginEv
FNDA:0,_ZNKSt6vectorIN9assembler11OperandTypeESaIS1_EE5beginEv
FN:817,_ZNKSt6vectorINSt7__cxx1112basic_stringIcSt11char_traitsIcESaIcEEESaIS5_EE5beginEv
FNDA:0,_ZNKSt6vectorINSt7__cxx1112basic_stringIcSt11char_traitsIcESaIcEEESaIS5_EE5beginEv
FN:826,_ZNSt6vectorIiSaIiEE3endEv
FNDA:0,_ZNSt6vectorIiSaIiEE3endEv
FN:826,_ZNSt6vectorINSt7__cxx1112basic_stringIcSt11char_traitsIcESaIcEEESaIS5_EE3endEv
FNDA:0,_ZNSt6vectorINSt7__cxx1112basic_stringIcSt11char_traitsIcESaIcEEESaIS5_EE3endEv
FN:835,_ZNKSt6vectorIN9assembler11OperandTypeESaIS1_EE3endEv
FNDA:0,_ZNKSt6vectorIN9assembler11OperandTypeESaIS1_EE3endEv
FN:835,_ZNKSt6vectorIiSaIiEE3endEv
FNDA:0,_ZNKSt6vectorIiSaIiEE3endEv
FN:835,_ZNKSt6vectorINSt7__cxx1112basic_stringIcSt11char_traitsIcESaIcEEESaIS5_EE3endEv
FNDA:0,_ZNKSt6vectorINSt7__cxx1112basic_stringIcSt11char_traitsIcESaIcEEESaIS5_EE3endEv
FN:915,_ZNKSt6vectorINSt7__cxx1112basic_stringIcSt11char_traitsIcESaIcEEESaIS5_EE4sizeEv
FNDA:0,_ZNKSt6vectorINSt7__cxx1112basic_stringIcSt11char_traitsIcESaIcEEESaIS5_EE4sizeEv
FN:915,_ZNKSt6vectorIN9assembler11OperandTypeESaIS1_EE4sizeEv
FNDA:0,_ZNKSt6vectorIN9assembler11OperandTypeESaIS1_EE4sizeEv
FN:915,_ZNKSt6vectorIiSaIiEE4sizeEv
FNDA:0,_ZNKSt6vectorIiSaIiEE4sizeEv
FN:920,_ZNKSt6vectorIiSaIiEE8max_sizeEv
FNDA:20,_ZNKSt6vectorIiSaIiEE8max_sizeEv
FN:920,_ZNKSt6vectorINSt7__cxx1112basic_stringIcSt11char_traitsIcESaIcEEESaIS5_EE8max_sizeEv
FNDA:0,_ZNKSt6vectorINSt7__cxx1112basic_stringIcSt11char_traitsIcESaIcEEESaIS5_EE8max_sizeEv
FN:995,_ZNKSt6vectorIiSaIiEE8capacityEv
FNDA:20,_ZNKSt6vectorIiSaIiEE8capacityEv
FN:995,_ZNKSt6vectorINSt7__cxx1112basic_stringIcSt11char_traitsIcESaIcEEESaIS5_EE8capacityEv
FNDA:16,_ZNKSt6vectorINSt7__cxx1112basic_stringIcSt11char_traitsIcESaIcEEESaIS5_EE8capacityEv
FN:1058,_ZNKSt6vectorINSt7__cxx1112basic_stringIcSt11char_traitsIcESaIcEEESaIS5_EEixEm
FNDA:41,_ZNKSt6vectorINSt7__cxx1112basic_stringIcSt11char_traitsIcESaIcEEESaIS5_EEixEm
FN:1058,_ZNKSt6vectorIiSaIiEEixEm
FNDA:0,_ZNKSt6vectorIiSaIiEEixEm
FN:1058,_ZNKSt6vectorIN9assembler11OperandTypeESaIS1_EEixEm
FNDA:48,_ZNKSt6vectorIN9assembler11OperandTypeESaIS1_EEixEm
FN:1067,_ZNKSt6vectorIiSaIiEE14_M_range_checkEm
FNDA:0,_ZNKSt6vectorIiSaIiEE14_M_range_checkEm
FN:1067,_ZNKSt6vectorIN9assembler11OperandTypeESaIS1_EE14_M_range_checkEm
FNDA:48,_ZNKSt6vectorIN9assembler11OperandTypeESaIS1_EE14_M_range_checkEm
FN:1067,_ZNKSt6vectorINSt7__cxx1112basic_stringIcSt11char_traitsIcESaIcEEESaIS5_EE14_M_range_checkEm
FNDA:41,_ZNKSt6vectorINSt7__cxx1112basic_stringIcSt11char_traitsIcESaIcEEESaIS5_EE14_M_range_checkEm
FN:1107,_ZNKSt6vectorIiSaIiEE2atEm
FNDA:0,_ZNKSt6vectorIiSaIiEE2atEm
FN:1107,_ZNKSt6vectorIN9assembler11OperandTypeESaIS1_EE2atEm
FNDA:48,_ZNKSt6vectorIN9assembler11OperandTypeESaIS1_EE2atEm
FN:1107,_ZNKSt6vectorINSt7__cxx1112basic_stringIcSt11char_traitsIcESaIcEEESaIS5_EE2atEm
FNDA:41,_ZNKSt6vectorINSt7__cxx1112basic_stringIcSt11char_traitsIcESaIcEEESaIS5_EE2atEm
FN:1200,_ZNSt6vectorIiSaIiEE9push_backEOi
FNDA:49,_ZNSt6vectorIiSaIiEE9push_backEOi
FN:1200,_ZNSt6vectorINSt7__cxx1112basic_stringIcSt11char_traitsIcESaIcEEESaIS5_EE9push_backEOS5_
FNDA:95,_ZNSt6vectorINSt7__cxx1112basic_stringIcSt11char_traitsIcESaIcEEESaIS5_EE9push_backEOS5_
FN:1505,_ZNSt6vectorIiSaIiEE20_M_allocate_and_copyISt13move_iteratorIPiEEES4_mT_S6_
FNDA:0,_ZNSt6vectorIiSaIiEE20_M_allocate_and_copyISt13move_iteratorIPiEEES4_mT_S6_
FN:1505,_ZNSt6vectorINSt7__cxx1112basic_stringIcSt11char_traitsIcESaIcEEESaIS5_EE20_M_allocate_and_copyISt13move_iteratorIPS5_EEESA_mT_SC_
FNDA:0,_ZNSt6vectorINSt7__cxx1112basic_stringIcSt11char_traitsIcESaIcEEESaIS5_EE20_M_allocate_and_copyISt13move_iteratorIPS5_EEESA_mT_SC_
FN:1574,_ZNSt6vectorIN9assembler11OperandTypeESaIS1_EE19_M_range_initializeIPKS1_EEvT_S7_St20forward_iterator_tag
FNDA:0,_ZNSt6vectorIN9assembler11OperandTypeESaIS1_EE19_M_range_initializeIPKS1_EEvT_S7_St20forward_iterator_tag
FN:1753,_ZNKSt6vectorINSt7__cxx1112basic_stringIcSt11char_traitsIcESaIcEEESaIS5_EE12_M_check_lenEmPKc
FNDA:0,_ZNKSt6vectorINSt7__cxx1112basic_stringIcSt11char_traitsIcESaIcEEESaIS5_EE12_M_check_lenEmPKc
FN:1753,_ZNKSt6vectorIiSaIiEE12_M_check_lenEmPKc
FNDA:0,_ZNKSt6vectorIiSaIiEE12_M_check_lenEmPKc
FN:1764,_ZNSt6vectorIN9assembler11OperandTypeESaIS1_EE17_S_check_init_lenEmRKS2_
FNDA:0,_ZNSt6vectorIN9assembler11OperandTypeESaIS1_EE17_S_check_init_lenEmRKS2_
FN:1773,_ZNSt6vectorIN9assembler11OperandTypeESaIS1_EE11_S_max_sizeERKS2_
FNDA:0,_ZNSt6vectorIN9assembler11OperandTypeESaIS1_EE11_S_max_sizeERKS2_
FN:1773,_ZNSt6vectorIiSaIiEE11_S_max_sizeERKS0_
FNDA:0,_ZNSt6vectorIiSaIiEE11_S_max_sizeERKS0_
FN:1773,_ZNSt6vectorINSt7__cxx1112basic_stringIcSt11char_traitsIcESaIcEEESaIS5_EE11_S_max_sizeERKS6_
FNDA:0,_ZNSt6vectorINSt7__cxx1112basic_stringIcSt11char_traitsIcESaIcEEESaIS5_EE11_S_max_sizeERKS6_
DA:94,0
DA:95,0
DA:96,0
DA:94,0
DA:95,0
DA:96,0
DA:94,0
DA:95,0
DA:96,0
DA:128,20
DA:130,20
DA:131,20
DA:128,0
DA:130,0
DA:131,0
DA:128,0
DA:130,0
DA:131,0
DA:133,0
DA:134,0
DA:135,0
DA:273,0
DA:274,0
DA:273,0
DA:274,0
DA:273,0
DA:274,0
DA:277,0
DA:278,0
DA:277,0
DA:278,0
DA:277,0
DA:278,0
DA:285,20
DA:285,0
DA:285,0
DA:290,0
DA:291,0
DA:300,0
DA:301,0
DA:302,0
DA:330,0
DA:332,0
DA:333,0
DA:334,0
DA:330,0
DA:332,0
DA:333,0
DA:334,0
DA:330,0
DA:332,0
DA:333,0
DA:334,0
DA:340,0
DA:343,0
DA:340,0
DA:343,0
DA:340,0
DA:343,0
DA:347,0
DA:350,0
DA:351,0
DA:352,0
DA:347,0
DA:350,0
DA:351,0
DA:352,0
DA:347,0
DA:350,0
DA:351,0
DA:352,0
DA:356,0
DA:358,0
DA:359,0
DA:360,0
DA:361,0
DA:428,0
DA:433,0
DA:428,19
DA:433,19
DA:441,0
DA:446,0
DA:441,19
DA:446,19
DA:450,0
DA:453,0
DA:450,19
DA:453,19
DA:462,0
DA:466,0
DA:462,19
DA:466,19
DA:484,20
DA:484,0
DA:484,0
DA:550,0
DA:552,0
DA:554,0
DA:555,0
DA:557,0
DA:558,0
DA:622,0
DA:624,0
DA:626,0
DA:628,0
DA:675,0
DA:677,0
DA:678,0
DA:680,0
DA:675,0
DA:677,0
DA:678,0
DA:680,0
DA:675,0
DA:677,0
DA:678,0
DA:680,0
DA:808,0
DA:809,0
DA:808,0
DA:809,0
DA:817,0
DA:818,0
DA:817,0
DA:818,0
DA:817,0
DA:818,0
DA:826,0
DA:827,0
DA:826,0
DA:827,0
DA:835,0
DA:836,0
DA:835,0
DA:836,0
DA:835,0
DA:836,0
DA:915,0
DA:916,0
DA:915,0
DA:916,0
DA:915,0
DA:916,0
DA:920,0
DA:921,0
DA:920,20
DA:921,20
DA:995,16
DA:996,16
DA:997,16
DA:995,20
DA:996,20
DA:997,20
DA:1058,41
DA:1061,41
DA:1058,48
DA:1061,48
DA:1058,0
DA:1061,0
DA:1067,41
DA:1069,41
DA:1070,0
DA:1074,41
DA:1067,48
DA:1069,48
DA:1070,0
DA:1074,48
DA:1067,0
DA:1069,0
DA:1070,0
DA:1074,0
DA:1107,41
DA:1109,41
DA:1110,41
DA:1107,48
DA:1109,48
DA:1110,48
DA:1107,0
DA:1109,0
DA:1110,0
DA:1200,49
DA:1201,49
DA:1200,95
DA:1201,95
DA:1505,0
DA:1508,0
DA:1511,0
DA:1512,0
DA:1513,0
DA:1515,0
DA:1517,0
DA:1518,0
DA:1505,0
DA:1508,0
DA:1511,0
DA:1512,0
DA:1513,0
DA:1515,0
DA:1517,0
DA:1518,0
DA:1574,0
DA:1577,0
DA:1578,0
DA:1579,0
DA:1580,0
DA:1581,0
DA:1582,0
DA:1584,0
DA:1585,0
DA:1753,0
DA:1755,0
DA:1756,0
DA:1758,0
DA:1759,0
DA:1753,0
DA:1755,0
DA:1756,0
DA:1758,0
DA:1759,0
DA:1764,0
DA:1766,0
DA:1767,0
DA:1769,0
DA:1773,0
DA:1778,0
DA:1780,0
DA:1781,0
DA:1773,0
DA:1778,0
DA:1780,0
DA:1781,0
DA:1773,0
DA:1778,0
DA:1780,0
DA:1781,0
end_of_record
SF:/usr/include/c++/9/bits/alloc_traits.h
FN:442,_ZNSt16allocator_traitsISaINSt8__detail10_Hash_nodeISt4pairIKNSt7__cxx1112basic_stringIcSt11char_traitsIcESaIcEEESt5arrayIiLm4EEELb1EEEEE8allocateERSE_m
FNDA:0,_ZNSt16allocator_traitsISaINSt8__detail10_Hash_nodeISt4pairIKNSt7__cxx1112basic_stringIcSt11char_traitsIcESaIcEEESt5arrayIiLm4EEELb1EEEEE8allocateERSE_m
FN:442,_ZNSt16allocator_traitsISaINSt8__detail10_Hash_nodeISt4pairIKNSt7__cxx1112basic_stringIcSt11char_traitsIcESaIcEEESt6vectorIN9assembler11OperandTypeESaISC_EEELb1EEEEE8allocateERSH_m
FNDA:0,_ZNSt16allocator_traitsISaINSt8__detail10_Hash_nodeISt4pairIKNSt7__cxx1112basic_stringIcSt11char_traitsIcESaIcEEESt6vectorIN9assembler11OperandTypeESaISC_EEELb1EEEEE8allocateERSH_m
FN:442,_ZNSt16allocator_traitsISaINSt8__detail10_Hash_nodeISt4pairIKNSt7__cxx1112basic_stringIcSt11char_traitsIcESaIcEEEiELb1EEEEE8allocateERSC_m
FNDA:0,_ZNSt16allocator_traitsISaINSt8__detail10_Hash_nodeISt4pairIKNSt7__cxx1112basic_stringIcSt11char_traitsIcESaIcEEEiELb1EEEEE8allocateERSC_m
FN:442,_ZNSt16allocator_traitsISaIiEE8allocateERS0_m
FNDA:0,_ZNSt16allocator_traitsISaIiEE8allocateERS0_m
FN:442,_ZNSt16allocator_traitsISaINSt7__cxx1112basic_stringIcSt11char_traitsIcESaIcEEEEE8allocateERS6_m
FNDA:0,_ZNSt16allocator_traitsISaINSt7__cxx1112basic_stringIcSt11char_traitsIcESaIcEEEEE8allocateERS6_m
FN:442,_ZNSt16allocator_traitsISaIN9assembler11OperandTypeEEE8allocateERS2_m
FNDA:0,_ZNSt16allocator_traitsISaIN9assembler11OperandTypeEEE8allocateERS2_m
FN:442,_ZNSt16allocator_traitsISaIPNSt8__detail15_Hash_node_baseEEE8allocateERS3_m
FNDA:0,_ZNSt16allocator_traitsISaIPNSt8__detail15_Hash_node_baseEEE8allocateERS3_m
FN:468,_ZNSt16allocator_traitsISaIN9assembler11OperandTypeEEE10deallocateERS2_PS1_m
FNDA:0,_ZNSt16allocator_traitsISaIN9assembler11OperandTypeEEE10deallocateERS2_PS1_m
FN:468,_ZNSt16allocator_traitsISaINSt7__cxx1112basic_stringIcSt11char_traitsIcESaIcEEEEE10deallocateERS6_PS5_m
FNDA:0,_ZNSt16allocator_traitsISaINSt7__cxx1112basic_stringIcSt11char_traitsIcESaIcEEEEE10deallocateERS6_PS5_m
FN:468,_ZNSt16allocator_traitsISaIiEE10deallocateERS0_Pim
FNDA:0,_ZNSt16allocator_traitsISaIiEE10deallocateERS0_Pim
FN:468,_ZNSt16allocator_traitsISaIPNSt8__detail15_Hash_node_baseEEE10deallocateERS3_PS2_m
FNDA:0,_ZNSt16allocator_traitsISaIPNSt8__detail15_Hash_node_baseEEE10deallocateERS3_PS2_m
FN:468,_ZNSt16allocator_traitsISaINSt8__detail10_Hash_nodeISt4pairIKNSt7__cxx1112basic_stringIcSt11char_traitsIcESaIcEEEiELb1EEEEE10deallocateERSC_PSB_m
FNDA:0,_ZNSt16allocator_traitsISaINSt8__detail10_Hash_nodeISt4pairIKNSt7__cxx1112basic_stringIcSt11char_traitsIcESaIcEEEiELb1EEEEE10deallocateERSC_PSB_m
FN:468,_ZNSt16allocator_traitsISaINSt8__detail10_Hash_nodeISt4pairIKNSt7__cxx1112basic_stringIcSt11char_traitsIcESaIcEEESt6vectorIN9assembler11OperandTypeESaISC_EEELb1EEEEE10deallocateERSH_PSG_m
FNDA:0,_ZNSt16allocator_traitsISaINSt8__detail10_Hash_nodeISt4pairIKNSt7__cxx1112basic_stringIcSt11char_traitsIcESaIcEEESt6vectorIN9assembler11OperandTypeESaISC_EEELb1EEEEE10deallocateERSH_PSG_m
FN:468,_ZNSt16allocator_traitsISaINSt8__detail10_Hash_nodeISt4pairIKNSt7__cxx1112basic_stringIcSt11char_traitsIcESaIcEEESt5arrayIiLm4EEELb1EEEEE10deallocateERSE_PSD_m
FNDA:0,_ZNSt16allocator_traitsISaINSt8__detail10_Hash_nodeISt4pairIKNSt7__cxx1112basic_stringIcSt11char_traitsIcESaIcEEESt5arrayIiLm4EEELb1EEEEE10deallocateERSE_PSD_m
FN:481,_ZNSt16allocator_traitsISaINSt8__detail10_Hash_nodeISt4pairIKNSt7__cxx1112basic_stringIcSt11char_traitsIcESaIcEEESt5arrayIiLm4EEELb1EEEEE9constructISC_JRKSC_EEEvRSE_PT_DpOT0_
FNDA:0,_ZNSt16allocator_traitsISaINSt8__detail10_Hash_nodeISt4pairIKNSt7__cxx1112basic_stringIcSt11char_traitsIcESaIcEEESt5arrayIiLm4EEELb1EEEEE9constructISC_JRKSC_EEEvRSE_PT_DpOT0_
FN:481,_ZNSt16allocator_traitsISaINSt7__cxx1112basic_stringIcSt11char_traitsIcESaIcEEEEE9constructIS5_JS5_EEEvRS6_PT_DpOT0_
FNDA:0,_ZNSt16allocator_traitsISaINSt7__cxx1112basic_stringIcSt11char_traitsIcESaIcEEEEE9constructIS5_JS5_EEEvRS6_PT_DpOT0_
FN:481,_ZNSt16allocator_traitsISaINSt8__detail10_Hash_nodeISt4pairIKNSt7__cxx1112basic_stringIcSt11char_traitsIcESaIcEEESt6vectorIN9assembler11OperandTypeESaISC_EEELb1EEEEE9constructISF_JRKSF_EEEvRSH_PT_DpOT0_
FNDA:0,_ZNSt16allocator_traitsISaINSt8__detail10_Hash_nodeISt4pairIKNSt7__cxx1112basic_stringIcSt11char_traitsIcESaIcEEESt6vectorIN9assembler11OperandTypeESaISC_EEELb1EEEEE9constructISF_JRKSF_EEEvRSH_PT_DpOT0_
FN:481,_ZNSt16allocator_traitsISaINSt8__detail10_Hash_nodeISt4pairIKNSt7__cxx1112basic_stringIcSt11char_traitsIcESaIcEEEiELb1EEEEE9constructISA_JRKSA_EEEvRSC_PT_DpOT0_
FNDA:0,_ZNSt16allocator_traitsISaINSt8__detail10_Hash_nodeISt4pairIKNSt7__cxx1112basic_stringIcSt11char_traitsIcESaIcEEEiELb1EEEEE9constructISA_JRKSA_EEEvRSC_PT_DpOT0_
FN:481,_ZNSt16allocator_traitsISaIiEE9constructIiJiEEEvRS0_PT_DpOT0_
FNDA:49,_ZNSt16allocator_traitsISaIiEE9constructIiJiEEEvRS0_PT_DpOT0_
FN:494,_ZNSt16allocator_traitsISaINSt8__detail10_Hash_nodeISt4pairIKNSt7__cxx1112basic_stringIcSt11char_traitsIcESaIcEEESt6vectorIN9assembler11OperandTypeESaISC_EEELb1EEEEE7destroyISF_EEvRSH_PT_
FNDA:0,_ZNSt16allocator_traitsISaINSt8__detail10_Hash_nodeISt4pairIKNSt7__cxx1112basic_stringIcSt11char_traitsIcESaIcEEESt6vectorIN9assembler11OperandTypeESaISC_EEELb1EEEEE7destroyISF_EEvRSH_PT_
FN:494,_ZNSt16allocator_traitsISaINSt8__detail10_Hash_nodeISt4pairIKNSt7__cxx1112basic_stringIcSt11char_traitsIcESaIcEEESt5arrayIiLm4EEELb1EEEEE7destroyISC_EEvRSE_PT_
FNDA:0,_ZNSt16allocator_traitsISaINSt8__detail10_Hash_nodeISt4pairIKNSt7__cxx1112basic_stringIcSt11char_traitsIcESaIcEEESt5arrayIiLm4EEELb1EEEEE7destroyISC_EEvRSE_PT_
FN:494,_ZNSt16allocator_traitsISaINSt8__detail10_Hash_nodeISt4pairIKNSt7__cxx1112basic_stringIcSt11char_traitsIcESaIcEEEiELb1EEEEE7destroyISA_EEvRSC_PT_
FNDA:0,_ZNSt16allocator_traitsISaINSt8__detail10_Hash_nodeISt4pairIKNSt7__cxx1112basic_stringIcSt11char_traitsIcESaIcEEEiELb1EEEEE7destroyISA_EEvRSC_PT_
FN:494,_ZNSt16allocator_traitsISaIiEE7destroyIiEEvRS0_PT_
FNDA:0,_ZNSt16allocator_traitsISaIiEE7destroyIiEEvRS0_PT_
FN:494,_ZNSt16allocator_traitsISaINSt7__cxx1112basic_stringIcSt11char_traitsIcESaIcEEEEE7destroyIS5_EEvRS6_PT_
FNDA:0,_ZNSt16allocator_traitsISaINSt7__cxx1112basic_stringIcSt11char_traitsIcESaIcEEEEE7destroyIS5_EEvRS6_PT_
FN:504,_ZNSt16allocator_traitsISaIN9assembler11OperandTypeEEE8max_sizeERKS2_
FNDA:0,_ZNSt16allocator_traitsISaIN9assembler11OperandTypeEEE8max_sizeERKS2_
FN:504,_ZNSt16allocator_traitsISaIiEE8max_sizeERKS0_
FNDA:0,_ZNSt16allocator_traitsISaIiEE8max_sizeERKS0_
FN:504,_ZNSt16allocator_traitsISaINSt7__cxx1112basic_stringIcSt11char_traitsIcESaIcEEEEE8max_sizeERKS6_
FNDA:0,_ZNSt16allocator_traitsISaINSt7__cxx1112basic_stringIcSt11char_traitsIcESaIcEEEEE8max_sizeERKS6_
FN:513,_ZNSt16allocator_traitsISaIcEE37select_on_container_copy_constructionERKS0_
FNDA:0,_ZNSt16allocator_traitsISaIcEE37select_on_container_copy_constructionERKS0_
FN:513,_ZNSt16allocator_traitsISaIN9assembler11OperandTypeEEE37select_on_container_copy_constructionERKS2_
FNDA:0,_ZNSt16allocator_traitsISaIN9assembler11OperandTypeEEE37select_on_container_copy_constructionERKS2_
DA:442,0
DA:443,0
DA:442,0
DA:443,0
DA:442,0
DA:443,0
DA:442,0
DA:443,0
DA:442,0
DA:443,0
DA:442,0
DA:443,0
DA:442,0
DA:443,0
DA:468,0
DA:469,0
DA:468,0
DA:469,0
DA:468,0
DA:469,0
DA:468,0
DA:469,0
DA:468,0
DA:469,0
DA:468,0
DA:469,0
DA:468,0
DA:469,0
DA:481,0
DA:483,0
DA:481,0
DA:483,0
DA:481,0
DA:483,0
DA:481,49
DA:483,49
DA:481,0
DA:483,0
DA:494,0
DA:496,0
DA:494,0
DA:496,0
DA:494,0
DA:496,0
DA:494,0
DA:496,0
DA:494,0
DA:496,0
DA:504,0
DA:505,0
DA:504,0
DA:505,0
DA:504,0
DA:505,0
DA:513,0
DA:514,0
DA:513,0
DA:514,0
end_of_record
SF:/usr/include/c++/9/bits/unordered_map.h
FN:227,_ZNSt13unordered_mapINSt7__cxx1112basic_stringIcSt11char_traitsIcESaIcEEESt5arrayIiLm4EESt4hashIS5_ESt8equal_toIS5_ESaISt4pairIKS5_S7_EEEC2ESt16initializer_listISE_EmRKS9_RKSB_RKSF_
FNDA:0,_ZNSt13unordered_mapINSt7__cxx1112basic_stringIcSt11char_traitsIcESaIcEEESt5arrayIiLm4EESt4hashIS5_ESt8equal_toIS5_ESaISt4pairIKS5_S7_EEEC2ESt16initializer_listISE_EmRKS9_RKSB_RKSF_
FN:227,_ZNSt13unordered_mapINSt7__cxx1112basic_stringIcSt11char_traitsIcESaIcEEESt6vectorIN9assembler11OperandTypeESaIS8_EESt4hashIS5_ESt8equal_toIS5_ESaISt4pairIKS5_SA_EEEC2ESt16initializer_listISH_EmRKSC_RKSE_RKSI_
FNDA:0,_ZNSt13unordered_mapINSt7__cxx1112basic_stringIcSt11char_traitsIcESaIcEEESt6vectorIN9assembler11OperandTypeESaIS8_EESt4hashIS5_ESt8equal_toIS5_ESaISt4pairIKS5_SA_EEEC2ESt16initializer_listISH_EmRKSC_RKSE_RKSI_
FN:227,_ZNSt13unordered_mapINSt7__cxx1112basic_stringIcSt11char_traitsIcESaIcEEEiSt4hashIS5_ESt8equal_toIS5_ESaISt4pairIKS5_iEEEC2ESt16initializer_listISC_EmRKS7_RKS9_RKSD_
FNDA:0,_ZNSt13unordered_mapINSt7__cxx1112basic_stringIcSt11char_traitsIcESaIcEEEiSt4hashIS5_ESt8equal_toIS5_ESaISt4pairIKS5_iEEEC2ESt16initializer_listISC_EmRKS7_RKS9_RKSD_
FN:356,_ZNKSt13unordered_mapINSt7__cxx1112basic_stringIcSt11char_traitsIcESaIcEEEiSt4hashIS5_ESt8equal_toIS5_ESaISt4pairIKS5_iEEE3endEv
FNDA:24,_ZNKSt13unordered_mapINSt7__cxx1112basic_stringIcSt11char_traitsIcESaIcEEEiSt4hashIS5_ESt8equal_toIS5_ESaISt4pairIKS5_iEEE3endEv
FN:925,_ZNKSt13unordered_mapINSt7__cxx1112basic_stringIcSt11char_traitsIcESaIcEEEiSt4hashIS5_ESt8equal_toIS5_ESaISt4pairIKS5_iEEE4findERSB_
FNDA:24,_ZNKSt13unordered_mapINSt7__cxx1112basic_stringIcSt11char_traitsIcESaIcEEEiSt4hashIS5_ESt8equal_toIS5_ESaISt4pairIKS5_iEEE4findERSB_
FN:1006,_ZNKSt13unordered_mapINSt7__cxx1112basic_stringIcSt11char_traitsIcESaIcEEESt5arrayIiLm4EESt4hashIS5_ESt8equal_toIS5_ESaISt4pairIKS5_S7_EEE2atERSD_
FNDA:64,_ZNKSt13unordered_mapINSt7__cxx1112basic_stringIcSt11char_traitsIcESaIcEEESt5arrayIiLm4EESt4hashIS5_ESt8equal_toIS5_ESaISt4pairIKS5_S7_EEE2atERSD_
FN:1006,_ZNKSt13unordered_mapINSt7__cxx1112basic_stringIcSt11char_traitsIcESaIcEEEiSt4hashIS5_ESt8equal_toIS5_ESaISt4pairIKS5_iEEE2atERSB_
FNDA:16,_ZNKSt13unordered_mapINSt7__cxx1112basic_stringIcSt11char_traitsIcESaIcEEEiSt4hashIS5_ESt8equal_toIS5_ESaISt4pairIKS5_iEEE2atERSB_
FN:1006,_ZNKSt13unordered_mapINSt7__cxx1112basic_stringIcSt11char_traitsIcESaIcEEESt6vectorIN9assembler11OperandTypeESaIS8_EESt4hashIS5_ESt8equal_toIS5_ESaISt4pairIKS5_SA_EEE2atERSG_
FNDA:70,_ZNKSt13unordered_mapINSt7__cxx1112basic_stringIcSt11char_traitsIcESaIcEEESt6vectorIN9assembler11OperandTypeESaIS8_EESt4hashIS5_ESt8equal_toIS5_ESaISt4pairIKS5_SA_EEE2atERSG_
DA:227,0
DA:232,0
DA:233,0
DA:227,0
DA:232,0
DA:233,0
DA:227,0
DA:232,0
DA:233,0
DA:356,24
DA:357,24
DA:925,24
DA:926,24
DA:1006,64
DA:1007,64
DA:1006,16
DA:1007,16
DA:1006,70
DA:1007,70
end_of_record
SF:/usr/include/c++/9/ext/type_traits.h
FN:152,_ZN9__gnu_cxx17__is_null_pointerIcEEbPT_
FNDA:0,_ZN9__gnu_cxx17__is_null_pointerIcEEbPT_
FN:152,_ZN9__gnu_cxx17__is_null_pointerIKcEEbPT_
FNDA:0,_ZN9__gnu_cxx17__is_null_pointerIKcEEbPT_
DA:152,0
DA:153,0
DA:152,0
DA:153,0
end_of_record
SF:/usr/include/c++/9/bits/basic_string.h
FN:247,_ZNSt7__cxx1112basic_stringIcSt11char_traitsIcESaIcEE16_M_construct_auxIPcEEvT_S7_St12__false_type
FNDA:0,_ZNSt7__cxx1112basic_stringIcSt11char_traitsIcESaIcEE16_M_construct_auxIPcEEvT_S7_St12__false_type
FN:247,_ZNSt7__cxx1112basic_stringIcSt11char_traitsIcESaIcEE16_M_construct_auxIPKcEEvT_S8_St12__false_type
FNDA:0,_ZNSt7__cxx1112basic_stringIcSt11char_traitsIcESaIcEE16_M_construct_auxIPKcEEvT_S8_St12__false_type
FN:267,_ZNSt7__cxx1112basic_stringIcSt11char_traitsIcESaIcEE12_M_constructIPcEEvT_S7_
FNDA:0,_ZNSt7__cxx1112basic_stringIcSt11char_traitsIcESaIcEE12_M_constructIPcEEvT_S7_
FN:267,_ZNSt7__cxx1112basic_stringIcSt11char_traitsIcESaIcEE12_M_constructIPKcEEvT_S8_
FNDA:0,_ZNSt7__cxx1112basic_stringIcSt11char_traitsIcESaIcEE12_M_constructIPKcEEvT_S8_
FN:6152,_ZSteqIcEN9__gnu_cxx11__enable_ifIXsrSt9__is_charIT_E7__valueEbE6__typeERKNSt7__cxx1112basic_stringIS3_St11char_traitsIS3_ESaIS3_EEESE_
FNDA:0,_ZSteqIcEN9__gnu_cxx11__enable_ifIXsrSt9__is_charIT_E7__valueEbE6__typeERKNSt7__cxx1112basic_stringIS3_St11char_traitsIS3_ESaIS3_EEESE_
FN:6178,_ZSteqIcSt11char_traitsIcESaIcEEbRKNSt7__cxx1112basic_stringIT_T0_T1_EEPKS5_
FNDA:72,_ZSteqIcSt11char_traitsIcESaIcEEbRKNSt7__cxx1112basic_stringIT_T0_T1_EEPKS5_
FN:6506,_ZNSt7__cxx114stoiERKNS_12basic_stringIcSt11char_traitsIcESaIcEEEPmi
FNDA:49,_ZNSt7__cxx114stoiERKNS_12basic_stringIcSt11char_traitsIcESaIcEEEPmi
FN:6737,_ZNKSt4hashINSt7__cxx1112basic_stringIcSt11char_traitsIcESaIcEEEEclERKS5_
FNDA:0,_ZNKSt4hashINSt7__cxx1112basic_stringIcSt11char_traitsIcESaIcEEEEclERKS5_
DA:247,0
DA:251,0
DA:252,0
DA:247,0
DA:251,0
DA:252,0
DA:267,0
DA:270,0
DA:271,0
DA:267,0
DA:270,0
DA:271,0
DA:6152,0
DA:6154,0
DA:6155,0
DA:6156,0
DA:6178,72
DA:6180,72
DA:6506,49
DA:6507,49
DA:6508,49
DA:6737,0
DA:6738,0
end_of_record
SF:/usr/include/c++/9/bits/allocator.h
FN:137,_ZNSaISt4pairIKNSt7__cxx1112basic_stringIcSt11char_traitsIcESaIcEEEiEEC2Ev
FNDA:0,_ZNSaISt4pairIKNSt7__cxx1112basic_stringIcSt11char_traitsIcESaIcEEEiEEC2Ev
FN:137,_ZNSaIN9assembler11OperandTypeEEC2Ev
FNDA:0,_ZNSaIN9assembler11OperandTypeEEC2Ev
FN:137,_ZNSaISt4pairIKNSt7__cxx1112basic_stringIcSt11char_traitsIcESaIcEEESt6vectorIN9assembler11OperandTypeESaIS9_EEEEC2Ev
FNDA:0,_ZNSaISt4pairIKNSt7__cxx1112basic_stringIcSt11char_traitsIcESaIcEEESt6vectorIN9assembler11OperandTypeESaIS9_EEEEC2Ev
FN:137,_ZNSaISt4pairIKNSt7__cxx1112basic_stringIcSt11char_traitsIcESaIcEEESt5arrayIiLm4EEEEC2Ev
FNDA:0,_ZNSaISt4pairIKNSt7__cxx1112basic_stringIcSt11char_traitsIcESaIcEEESt5arrayIiLm4EEEEC2Ev
FN:137,_ZNSaINSt7__cxx1112basic_stringIcSt11char_traitsIcESaIcEEEEC2Ev
FNDA:0,_ZNSaINSt7__cxx1112basic_stringIcSt11char_traitsIcESaIcEEEEC2Ev
FN:137,_ZNSaIiEC2Ev
FNDA:0,_ZNSaIiEC2Ev
FN:140,_ZNSaINSt8__detail10_Hash_nodeISt4pairIKNSt7__cxx1112basic_stringIcSt11char_traitsIcESaIcEEESt6vectorIN9assembler11OperandTypeESaISB_EEELb1EEEEC2ERKSG_
FNDA:0,_ZNSaINSt8__detail10_Hash_nodeISt4pairIKNSt7__cxx1112basic_stringIcSt11char_traitsIcESaIcEEESt6vectorIN9assembler11OperandTypeESaISB_EEELb1EEEEC2ERKSG_
FN:140,_ZNSaIN9assembler11OperandTypeEEC2ERKS1_
FNDA:0,_ZNSaIN9assembler11OperandTypeEEC2ERKS1_
FN:140,_ZNSaINSt8__detail10_Hash_nodeISt4pairIKNSt7__cxx1112basic_stringIcSt11char_traitsIcESaIcEEESt5arrayIiLm4EEELb1EEEEC2ERKSD_
FNDA:0,_ZNSaINSt8__detail10_Hash_nodeISt4pairIKNSt7__cxx1112basic_stringIcSt11char_traitsIcESaIcEEESt5arrayIiLm4EEELb1EEEEC2ERKSD_
FN:140,_ZNSaINSt8__detail10_Hash_nodeISt4pairIKNSt7__cxx1112basic_stringIcSt11char_traitsIcESaIcEEEiELb1EEEEC2ERKSB_
FNDA:0,_ZNSaINSt8__detail10_Hash_nodeISt4pairIKNSt7__cxx1112basic_stringIcSt11char_traitsIcESaIcEEEiELb1EEEEC2ERKSB_
FN:150,_ZNSaINSt8__detail10_Hash_nodeISt4pairIKNSt7__cxx1112basic_stringIcSt11char_traitsIcESaIcEEEiELb1EEEEC2IS9_EERKSaIT_E
FNDA:0,_ZNSaINSt8__detail10_Hash_nodeISt4pairIKNSt7__cxx1112basic_stringIcSt11char_traitsIcESaIcEEEiELb1EEEEC2IS9_EERKSaIT_E
FN:150,_ZNSaIPNSt8__detail15_Hash_node_baseEEC2INS_10_Hash_nodeISt4pairIKNSt7__cxx1112basic_stringIcSt11char_traitsIcESaIcEEESt5arrayIiLm4EEELb1EEEEERKSaIT_E
FNDA:0,_ZNSaIPNSt8__detail15_Hash_node_baseEEC2INS_10_Hash_nodeISt4pairIKNSt7__cxx1112basic_stringIcSt11char_traitsIcESaIcEEESt5arrayIiLm4EEELb1EEEEERKSaIT_E
FN:150,_ZNSaINSt8__detail10_Hash_nodeISt4pairIKNSt7__cxx1112basic_stringIcSt11char_traitsIcESaIcEEESt5arrayIiLm4EEELb1EEEEC2ISB_EERKSaIT_E
FNDA:0,_ZNSaINSt8__detail10_Hash_nodeISt4pairIKNSt7__cxx1112basic_stringIcSt11char_traitsIcESaIcEEESt5arrayIiLm4EEELb1EEEEC2ISB_EERKSaIT_E
FN:150,_ZNSaIPNSt8__detail15_Hash_node_baseEEC2INS_10_Hash_nodeISt4pairIKNSt7__cxx1112basic_stringIcSt11char_traitsIcESaIcEEESt6vectorIN9assembler11OperandTypeESaISF_EEELb1EEEEERKSaIT_E
FNDA:0,_ZNSaIPNSt8__detail15_Hash_node_baseEEC2INS_10_Hash_nodeISt4pairIKNSt7__cxx1112basic_stringIcSt11char_traitsIcESaIcEEESt6vectorIN9assembler11OperandTypeESaISF_EEELb1EEEEERKSaIT_E
FN:150,_ZNSaINSt8__detail10_Hash_nodeISt4pairIKNSt7__cxx1112basic_stringIcSt11char_traitsIcESaIcEEESt6vectorIN9assembler11OperandTypeESaISB_EEELb1EEEEC2ISE_EERKSaIT_E
FNDA:0,_ZNSaINSt8__detail10_Hash_nodeISt4pairIKNSt7__cxx1112basic_stringIcSt11char_traitsIcESaIcEEESt6vectorIN9assembler11OperandTypeESaISB_EEELb1EEEEC2ISE_EERKSaIT_E
FN:150,_ZNSaIPNSt8__detail15_Hash_node_baseEEC2INS_10_Hash_nodeISt4pairIKNSt7__cxx1112basic_stringIcSt11char_traitsIcESaIcEEEiELb1EEEEERKSaIT_E
FNDA:0,_ZNSaIPNSt8__detail15_Hash_node_baseEEC2INS_10_Hash_nodeISt4pairIKNSt7__cxx1112basic_stringIcSt11char_traitsIcESaIcEEEiELb1EEEEERKSaIT_E
FN:152,_ZNSaINSt8__detail10_Hash_nodeISt4pairIKNSt7__cxx1112basic_stringIcSt11char_traitsIcESaIcEEESt5arrayIiLm4EEELb1EEEED2Ev
FNDA:0,_ZNSaINSt8__detail10_Hash_nodeISt4pairIKNSt7__cxx1112basic_stringIcSt11char_traitsIcESaIcEEESt5arrayIiLm4EEELb1EEEED2Ev
FN:152,_ZNSaINSt8__detail10_Hash_nodeISt4pairIKNSt7__cxx1112basic_stringIcSt11char_traitsIcESaIcEEESt6vectorIN9assembler11OperandTypeESaISB_EEELb1EEEED2Ev
FNDA:0,_ZNSaINSt8__detail10_Hash_nodeISt4pairIKNSt7__cxx1112basic_stringIcSt11char_traitsIcESaIcEEESt6vectorIN9assembler11OperandTypeESaISB_EEELb1EEEED2Ev
FN:152,_ZNSaINSt8__detail10_Hash_nodeISt4pairIKNSt7__cxx1112basic_stringIcSt11char_traitsIcESaIcEEEiELb1EEEED2Ev
FNDA:0,_ZNSaINSt8__detail10_Hash_nodeISt4pairIKNSt7__cxx1112basic_stringIcSt11char_traitsIcESaIcEEEiELb1EEEED2Ev
FN:152,_ZNSaIiED2Ev
FNDA:0,_ZNSaIiED2Ev
FN:152,_ZNSaINSt7__cxx1112basic_stringIcSt11char_traitsIcESaIcEEEED2Ev
FNDA:0,_ZNSaINSt7__cxx1112basic_stringIcSt11char_traitsIcESaIcEEEED2Ev
FN:152,_ZNSaISt4pairIKNSt7__cxx1112basic_stringIcSt11char_traitsIcESaIcEEESt5arrayIiLm4EEEED2Ev
FNDA:0,_ZNSaISt4pairIKNSt7__cxx1112basic_stringIcSt11char_traitsIcESaIcEEESt5arrayIiLm4EEEED2Ev
FN:152,_ZNSaISt4pairIKNSt7__cxx1112basic_stringIcSt11char_traitsIcESaIcEEESt6vectorIN9assembler11OperandTypeESaIS9_EEEED2Ev
FNDA:0,_ZNSaISt4pairIKNSt7__cxx1112basic_stringIcSt11char_traitsIcESaIcEEESt6vectorIN9assembler11OperandTypeESaIS9_EEEED2Ev
FN:152,_ZNSaIPNSt8__detail15_Hash_node_baseEED2Ev
FNDA:0,_ZNSaIPNSt8__detail15_Hash_node_baseEED2Ev
FN:152,_ZNSaIN9assembler11OperandTypeEED2Ev
FNDA:0,_ZNSaIN9assembler11OperandTypeEED2Ev
FN:152,_ZNSaISt4pairIKNSt7__cxx1112basic_stringIcSt11char_traitsIcESaIcEEEiEED2Ev
FNDA:0,_ZNSaISt4pairIKNSt7__cxx1112basic_stringIcSt11char_traitsIcESaIcEEEiEED2Ev
DA:137,0
DA:137,0
DA:137,0
DA:137,0
DA:137,0
DA:137,0
DA:140,0
DA:141,0
DA:140,0
DA:141,0
DA:140,0
DA:141,0
DA:140,0
DA:141,0
DA:150,0
DA:150,0
DA:150,0
DA:150,0
DA:150,0
DA:150,0
DA:152,0
DA:152,0
DA:152,0
DA:152,0
DA:152,0
DA:152,0
DA:152,0
DA:152,0
DA:152,0
DA:152,0
end_of_record
SF:/usr/include/c++/9/bits/ptr_traits.h
FN:146,_ZNSt14pointer_traitsIPNSt8__detail10_Hash_nodeISt4pairIKNSt7__cxx1112basic_stringIcSt11char_traitsIcESaIcEEESt5arrayIiLm4EEELb1EEEE10pointer_toERSD_
FNDA:0,_ZNSt14pointer_traitsIPNSt8__detail10_Hash_nodeISt4pairIKNSt7__cxx1112basic_stringIcSt11char_traitsIcESaIcEEESt5arrayIiLm4EEELb1EEEE10pointer_toERSD_
FN:146,_ZNSt14pointer_traitsIPNSt8__detail10_Hash_nodeISt4pairIKNSt7__cxx1112basic_stringIcSt11char_traitsIcESaIcEEESt6vectorIN9assembler11OperandTypeESaISC_EEELb1EEEE10pointer_toERSG_
FNDA:0,_ZNSt14pointer_traitsIPNSt8__detail10_Hash_nodeISt4pairIKNSt7__cxx1112basic_stringIcSt11char_traitsIcESaIcEEESt6vectorIN9assembler11OperandTypeESaISC_EEELb1EEEE10pointer_toERSG_
FN:146,_ZNSt14pointer_traitsIPNSt8__detail10_Hash_nodeISt4pairIKNSt7__cxx1112basic_stringIcSt11char_traitsIcESaIcEEEiELb1EEEE10pointer_toERSB_
FNDA:0,_ZNSt14pointer_traitsIPNSt8__detail10_Hash_nodeISt4pairIKNSt7__cxx1112basic_stringIcSt11char_traitsIcESaIcEEEiELb1EEEE10pointer_toERSB_
FN:146,_ZNSt14pointer_traitsIPPNSt8__detail15_Hash_node_baseEE10pointer_toERS2_
FNDA:0,_ZNSt14pointer_traitsIPPNSt8__detail15_Hash_node_baseEE10pointer_toERS2_
FN:156,_ZSt12__to_addressINSt8__detail10_Hash_nodeISt4pairIKNSt7__cxx1112basic_stringIcSt11char_traitsIcESaIcEEESt5arrayIiLm4EEELb1EEEEPT_SF_
FNDA:0,_ZSt12__to_addressINSt8__detail10_Hash_nodeISt4pairIKNSt7__cxx1112basic_stringIcSt11char_traitsIcESaIcEEESt5arrayIiLm4EEELb1EEEEPT_SF_
FN:156,_ZSt12__to_addressINSt8__detail10_Hash_nodeISt4pairIKNSt7__cxx1112basic_stringIcSt11char_traitsIcESaIcEEESt6vectorIN9assembler11OperandTypeESaISC_EEELb1EEEEPT_SI_
FNDA:0,_ZSt12__to_addressINSt8__detail10_Hash_nodeISt4pairIKNSt7__cxx1112basic_stringIcSt11char_traitsIcESaIcEEESt6vectorIN9assembler11OperandTypeESaISC_EEELb1EEEEPT_SI_
FN:156,_ZSt12__to_addressINSt8__detail10_Hash_nodeISt4pairIKNSt7__cxx1112basic_stringIcSt11char_traitsIcESaIcEEEiELb1EEEEPT_SD_
FNDA:0,_ZSt12__to_addressINSt8__detail10_Hash_nodeISt4pairIKNSt7__cxx1112basic_stringIcSt11char_traitsIcESaIcEEEiELb1EEEEPT_SD_
FN:156,_ZSt12__to_addressIPNSt8__detail15_Hash_node_baseEEPT_S4_
FNDA:0,_ZSt12__to_addressIPNSt8__detail15_Hash_node_baseEEPT_S4_
DA:146,0
DA:147,0
DA:146,0
DA:147,0
DA:146,0
DA:147,0
DA:146,0
DA:147,0
DA:156,0
DA:159,0
DA:156,0
DA:159,0
DA:156,0
DA:159,0
DA:156,0
DA:159,0
end_of_record
SF:/usr/include/c++/9/bits/stl_algobase.h
FN:198,_ZSt3minImERKT_S2_S2_
FNDA:0,_ZSt3minImERKT_S2_S2_
FN:222,_ZSt3maxImERKT_S2_S2_
FNDA:0,_ZSt3maxImERKT_S2_S2_
FN:280,_ZSt12__niter_baseIPKN9assembler11OperandTypeEET_S4_
FNDA:0,_ZSt12__niter_baseIPKN9assembler11OperandTypeEET_S4_
FN:280,_ZSt12__niter_baseIPiET_S1_
FNDA:0,_ZSt12__niter_baseIPiET_S1_
FN:280,_ZSt12__niter_baseIPN9assembler11OperandTypeEET_S3_
FNDA:0,_ZSt12__niter_baseIPN9assembler11OperandTypeEET_S3_
FN:280,_ZSt12__niter_baseIPNSt7__cxx1112basic_stringIcSt11char_traitsIcESaIcEEEET_S7_
FNDA:0,_ZSt12__niter_baseIPNSt7__cxx1112basic_stringIcSt11char_traitsIcESaIcEEEET_S7_
FN:295,_ZSt12__niter_wrapIPiET_RKS1_S1_
FNDA:0,_ZSt12__niter_wrapIPiET_RKS1_S1_
FN:295,_ZSt12__niter_wrapIPN9assembler11OperandTypeEET_RKS3_S3_
FNDA:0,_ZSt12__niter_wrapIPN9assembler11OperandTypeEET_RKS3_S3_
FN:375,_ZNSt11__copy_moveILb0ELb1ESt26random_access_iterator_tagE8__copy_mIN9assembler11OperandTypeEEEPT_PKS5_S8_S6_
FNDA:0,_ZNSt11__copy_moveILb0ELb1ESt26random_access_iterator_tagE8__copy_mIN9assembler11OperandTypeEEEPT_PKS5_S8_S6_
FN:375,_ZNSt11__copy_moveILb1ELb1ESt26random_access_iterator_tagE8__copy_mIiEEPT_PKS3_S6_S4_
FNDA:0,_ZNSt11__copy_moveILb1ELb1ESt26random_access_iterator_tagE8__copy_mIiEEPT_PKS3_S6_S4_
FN:393,_ZSt13__copy_move_aILb0EPKN9assembler11OperandTypeEPS1_ET1_T0_S6_S5_
FNDA:0,_ZSt13__copy_move_aILb0EPKN9assembler11OperandTypeEPS1_ET1_T0_S6_S5_
FN:393,_ZSt13__copy_move_aILb1EPiS0_ET1_T0_S2_S1_
FNDA:0,_ZSt13__copy_move_aILb1EPiS0_ET1_T0_S2_S1_
FN:438,_ZSt14__copy_move_a2ILb0EPKN9assembler11OperandTypeEPS1_ET1_T0_S6_S5_
FNDA:0,_ZSt14__copy_move_a2ILb0EPKN9assembler11OperandTypeEPS1_ET1_T0_S6_S5_
FN:438,_ZSt14__copy_move_a2ILb0EN9__gnu_cxx17__normal_iteratorIPKN9assembler11OperandTypeESt6vectorIS3_SaIS3_EEEEPS3_ET1_T0_SC_SB_
FNDA:0,_ZSt14__copy_move_a2ILb0EN9__gnu_cxx17__normal_iteratorIPKN9assembler11OperandTypeESt6vectorIS3_SaIS3_EEEEPS3_ET1_T0_SC_SB_
FN:438,_ZSt14__copy_move_a2ILb1EPiS0_ET1_T0_S2_S1_
FNDA:0,_ZSt14__copy_move_a2ILb1EPiS0_ET1_T0_S2_S1_
FN:465,_ZSt4copyISt13move_iteratorIPiES1_ET0_T_S4_S3_
FNDA:0,_ZSt4copyISt13move_iteratorIPiES1_ET0_T_S4_S3_
FN:465,_ZSt4copyIPKN9assembler11OperandTypeEPS1_ET0_T_S6_S5_
FNDA:0,_ZSt4copyIPKN9assembler11OperandTypeEPS1_ET0_T_S6_S5_
FN:465,_ZSt4copyIN9__gnu_cxx17__normal_iteratorIPKN9assembler11OperandTypeESt6vectorIS3_SaIS3_EEEEPS3_ET0_T_SC_SB_
FNDA:0,_ZSt4copyIN9__gnu_cxx17__normal_iteratorIPKN9assembler11OperandTypeESt6vectorIS3_SaIS3_EEEEPS3_ET0_T_SC_SB_
DA:198,0
DA:203,0
DA:204,0
DA:205,0
DA:222,0
DA:227,0
DA:228,0
DA:229,0
DA:280,0
DA:282,0
DA:280,0
DA:282,0
DA:280,0
DA:282,0
DA:280,0
DA:282,0
DA:295,0
DA:296,0
DA:295,0
DA:296,0
DA:375,0
DA:384,0
DA:385,0
DA:386,0
DA:387,0
DA:375,0
DA:384,0
DA:385,0
DA:386,0
DA:387,0
DA:393,0
DA:398,0
DA:404,0
DA:393,0
DA:398,0
DA:404,0
DA:438,0
DA:440,0
DA:443,0
DA:438,0
DA:440,0
DA:443,0
DA:438,0
DA:440,0
DA:443,0
DA:465,0
DA:474,0
DA:465,0
DA:474,0
DA:465,0
DA:474,0
end_of_record
SF:/usr/include/c++/9/iostream
end_of_record
TN:
SF:/usr/include/c++/9/bits/functional_hash.h
FN:91,_ZNKSt11__hash_enumI11NonTerminalLb1EEclES0_
FNDA:0,_ZNKSt11__hash_enumI11NonTerminalLb1EEclES0_
FN:153,_ZNKSt4hashIiEclEi
FNDA:0,_ZNKSt4hashIiEclEi
FN:165,_ZNKSt4hashIjEclEj
FNDA:0,_ZNKSt4hashIjEclEj
DA:91,0
DA:94,0
DA:153,0
DA:165,0
end_of_record
SF:/usr/include/c++/9/bits/stl_vector.h
FN:94,_ZNSt12_Vector_baseISt6vectorIiSaIiEESaIS2_EE17_Vector_impl_dataC2Ev
FNDA:0,_ZNSt12_Vector_baseISt6vectorIiSaIiEESaIS2_EE17_Vector_impl_dataC2Ev
FN:94,_ZNSt12_Vector_baseIiSaIiEE17_Vector_impl_dataC2Ev
FNDA:0,_ZNSt12_Vector_baseIiSaIiEE17_Vector_impl_dataC2Ev
FN:133,_ZNSt12_Vector_baseIiSaIiEE12_Vector_implC2ERKS0_
FNDA:0,_ZNSt12_Vector_baseIiSaIiEE12_Vector_implC2ERKS0_
FN:133,_ZNSt12_Vector_baseISt6vectorIiSaIiEESaIS2_EE12_Vector_implC2ERKS3_
FNDA:0,_ZNSt12_Vector_baseISt6vectorIiSaIiEESaIS2_EE12_Vector_implC2ERKS3_
FN:273,_ZNSt12_Vector_baseISt6vectorIiSaIiEESaIS2_EE19_M_get_Tp_allocatorEv
FNDA:0,_ZNSt12_Vector_baseISt6vectorIiSaIiEESaIS2_EE19_M_get_Tp_allocatorEv
FN:273,_ZNSt12_Vector_baseIiSaIiEE19_M_get_Tp_allocatorEv
FNDA:0,_ZNSt12_Vector_baseIiSaIiEE19_M_get_Tp_allocatorEv
FN:277,_ZNKSt12_Vector_baseIiSaIiEE19_M_get_Tp_allocatorEv
FNDA:0,_ZNKSt12_Vector_baseIiSaIiEE19_M_get_Tp_allocatorEv
FN:277,_ZNKSt12_Vector_baseISt6vectorIiSaIiEESaIS2_EE19_M_get_Tp_allocatorEv
FNDA:0,_ZNKSt12_Vector_baseISt6vectorIiSaIiEESaIS2_EE19_M_get_Tp_allocatorEv
FN:290,_ZNSt12_Vector_baseISt6vectorIiSaIiEESaIS2_EEC2ERKS3_
FNDA:0,_ZNSt12_Vector_baseISt6vectorIiSaIiEESaIS2_EEC2ERKS3_
FN:290,_ZNSt12_Vector_baseIiSaIiEEC2ERKS0_
FNDA:0,_ZNSt12_Vector_baseIiSaIiEEC2ERKS0_
FN:300,_ZNSt12_Vector_baseIiSaIiEEC2EmRKS0_
FNDA:0,_ZNSt12_Vector_baseIiSaIiEEC2EmRKS0_
FN:300,_ZNSt12_Vector_baseISt6vectorIiSaIiEESaIS2_EEC2EmRKS3_
FNDA:0,_ZNSt12_Vector_baseISt6vectorIiSaIiEESaIS2_EEC2EmRKS3_
FN:330,_ZNSt12_Vector_baseISt6vectorIiSaIiEESaIS2_EED2Ev
FNDA:0,_ZNSt12_Vector_baseISt6vectorIiSaIiEESaIS2_EED2Ev
FN:330,_ZNSt12_Vector_baseIiSaIiEED2Ev
FNDA:0,_ZNSt12_Vector_baseIiSaIiEED2Ev
FN:340,_ZNSt12_Vector_baseISt6vectorIiSaIiEESaIS2_EE11_M_allocateEm
FNDA:0,_ZNSt12_Vector_baseISt6vectorIiSaIiEESaIS2_EE11_M_allocateEm
FN:340,_ZNSt12_Vector_baseIiSaIiEE11_M_allocateEm
FNDA:0,_ZNSt12_Vector_baseIiSaIiEE11_M_allocateEm
FN:347,_ZNSt12_Vector_baseISt6vectorIiSaIiEESaIS2_EE13_M_deallocateEPS2_m
FNDA:0,_ZNSt12_Vector_baseISt6vectorIiSaIiEESaIS2_EE13_M_deallocateEPS2_m
FN:347,_ZNSt12_Vector_baseIiSaIiEE13_M_deallocateEPim
FNDA:0,_ZNSt12_Vector_baseIiSaIiEE13_M_deallocateEPim
FN:356,_ZNSt12_Vector_baseIiSaIiEE17_M_create_storageEm
FNDA:0,_ZNSt12_Vector_baseIiSaIiEE17_M_create_storageEm
FN:356,_ZNSt12_Vector_baseISt6vectorIiSaIiEESaIS2_EE17_M_create_storageEm
FNDA:0,_ZNSt12_Vector_baseISt6vectorIiSaIiEESaIS2_EE17_M_create_storageEm
FN:550,_ZNSt6vectorIS_IiSaIiEESaIS1_EEC2ERKS3_
FNDA:0,_ZNSt6vectorIS_IiSaIiEESaIS1_EEC2ERKS3_
FN:550,_ZNSt6vectorIiSaIiEEC2ERKS1_
FNDA:0,_ZNSt6vectorIiSaIiEEC2ERKS1_
FN:622,_ZNSt6vectorIS_IiSaIiEESaIS1_EEC2ESt16initializer_listIS1_ERKS2_
FNDA:0,_ZNSt6vectorIS_IiSaIiEESaIS1_EEC2ESt16initializer_listIS1_ERKS2_
FN:622,_ZNSt6vectorIiSaIiEEC2ESt16initializer_listIiERKS0_
FNDA:0,_ZNSt6vectorIiSaIiEEC2ESt16initializer_listIiERKS0_
FN:675,_ZNSt6vectorIiSaIiEED2Ev
FNDA:0,_ZNSt6vectorIiSaIiEED2Ev
FN:675,_ZNSt6vectorIS_IiSaIiEESaIS1_EED2Ev
FNDA:0,_ZNSt6vectorIS_IiSaIiEESaIS1_EED2Ev
FN:817,_ZNKSt6vectorIiSaIiEE5beginEv
FNDA:0,_ZNKSt6vectorIiSaIiEE5beginEv
FN:817,_ZNKSt6vectorIS_IiSaIiEESaIS1_EE5beginEv
FNDA:0,_ZNKSt6vectorIS_IiSaIiEESaIS1_EE5beginEv
FN:835,_ZNKSt6vectorIiSaIiEE3endEv
FNDA:0,_ZNKSt6vectorIiSaIiEE3endEv
FN:835,_ZNKSt6vectorIS_IiSaIiEESaIS1_EE3endEv
FNDA:0,_ZNKSt6vectorIS_IiSaIiEESaIS1_EE3endEv
FN:915,_ZNKSt6vectorIS_IiSaIiEESaIS1_EE4sizeEv
FNDA:0,_ZNKSt6vectorIS_IiSaIiEESaIS1_EE4sizeEv
FN:915,_ZNKSt6vectorIiSaIiEE4sizeEv
FNDA:0,_ZNKSt6vectorIiSaIiEE4sizeEv
FN:1058,_ZNKSt6vectorIiSaIiEEixEm
FNDA:0,_ZNKSt6vectorIiSaIiEEixEm
FN:1067,_ZNKSt6vectorIiSaIiEE14_M_range_checkEm
FNDA:606,_ZNKSt6vectorIiSaIiEE14_M_range_checkEm
FN:1107,_ZNKSt6vectorIiSaIiEE2atEm
FNDA:606,_ZNKSt6vectorIiSaIiEE2atEm
FN:1574,_ZNSt6vectorIiSaIiEE19_M_range_initializeIPKiEEvT_S5_St20forward_iterator_tag
FNDA:0,_ZNSt6vectorIiSaIiEE19_M_range_initializeIPKiEEvT_S5_St20forward_iterator_tag
FN:1574,_ZNSt6vectorIS_IiSaIiEESaIS1_EE19_M_range_initializeIPKS1_EEvT_S7_St20forward_iterator_tag
FNDA:0,_ZNSt6vectorIS_IiSaIiEESaIS1_EE19_M_range_initializeIPKS1_EEvT_S7_St20forward_iterator_tag
FN:1764,_ZNSt6vectorIS_IiSaIiEESaIS1_EE17_S_check_init_lenEmRKS2_
FNDA:0,_ZNSt6vectorIS_IiSaIiEESaIS1_EE17_S_check_init_lenEmRKS2_
FN:1764,_ZNSt6vectorIiSaIiEE17_S_check_init_lenEmRKS0_
FNDA:0,_ZNSt6vectorIiSaIiEE17_S_check_init_lenEmRKS0_
FN:1773,_ZNSt6vectorIiSaIiEE11_S_max_sizeERKS0_
FNDA:0,_ZNSt6vectorIiSaIiEE11_S_max_sizeERKS0_
FN:1773,_ZNSt6vectorIS_IiSaIiEESaIS1_EE11_S_max_sizeERKS2_
FNDA:0,_ZNSt6vectorIS_IiSaIiEESaIS1_EE11_S_max_sizeERKS2_
DA:94,0
DA:95,0
DA:96,0
DA:94,0
DA:95,0
DA:96,0
DA:133,0
DA:134,0
DA:135,0
DA:133,0
DA:134,0
DA:135,0
DA:273,0
DA:274,0
DA:273,0
DA:274,0
DA:277,0
DA:278,0
DA:277,0
DA:278,0
DA:290,0
DA:291,0
DA:290,0
DA:291,0
DA:300,0
DA:301,0
DA:302,0
DA:300,0
DA:301,0
DA:302,0
DA:330,0
DA:332,0
DA:333,0
DA:334,0
DA:330,0
DA:332,0
DA:333,0
DA:334,0
DA:340,0
DA:343,0
DA:340,0
DA:343,0
DA:347,0
DA:350,0
DA:351,0
DA:352,0
DA:347,0
DA:350,0
DA:351,0
DA:352,0
DA:356,0
DA:358,0
DA:359,0
DA:360,0
DA:361,0
DA:356,0
DA:358,0
DA:359,0
DA:360,0
DA:361,0
DA:550,0
DA:552,0
DA:554,0
DA:555,0
DA:557,0
DA:558,0
DA:550,0
DA:552,0
DA:554,0
DA:555,0
DA:557,0
DA:558,0
DA:622,0
DA:624,0
DA:626,0
DA:628,0
DA:622,0
DA:624,0
DA:626,0
DA:628,0
DA:675,0
DA:677,0
DA:678,0
DA:680,0
DA:675,0
DA:677,0
DA:678,0
DA:680,0
DA:817,0
DA:818,0
DA:817,0
DA:818,0
DA:835,0
DA:836,0
DA:835,0
DA:836,0
DA:915,0
DA:916,0
DA:915,0
DA:916,0
DA:1058,0
DA:1061,0
DA:1067,606
DA:1069,606
DA:1070,0
DA:1074,606
DA:1107,606
DA:1109,606
DA:1110,606
DA:1574,0
DA:1577,0
DA:1578,0
DA:1579,0
DA:1580,0
DA:1581,0
DA:1582,0
DA:1584,0
DA:1585,0
DA:1574,0
DA:1577,0
DA:1578,0
DA:1579,0
DA:1580,0
DA:1581,0
DA:1582,0
DA:1584,0
DA:1585,0
DA:1764,0
DA:1766,0
DA:1767,0
DA:1769,0
DA:1764,0
DA:1766,0
DA:1767,0
DA:1769,0
DA:1773,0
DA:1778,0
DA:1780,0
DA:1781,0
DA:1773,0
DA:1778,0
DA:1780,0
DA:1781,0
end_of_record
SF:/home/idra/Sync/EPQ/src/parser/sets/follow.cpp
FN:16,_ZN6follow12_GLOBAL__N_120AddUnexpandedSymbols17IterateProductionERKSt6vectorIiSaIiEEi
FNDA:0,_ZN6follow12_GLOBAL__N_120AddUnexpandedSymbols17IterateProductionERKSt6vectorIiSaIiEEi
FN:29,_ZN6follow12_GLOBAL__N_120AddUnexpandedSymbols29SymbolFirstSetContainsEpsilonEi
FNDA:55,_ZN6follow12_GLOBAL__N_120AddUnexpandedSymbols29SymbolFirstSetContainsEpsilonEi
FN:33,_ZN6follow12_GLOBAL__N_120AddUnexpandedSymbols13HandleEpsilonEiRKSt6vectorIiSaIiEEi
FNDA:141,_ZN6follow12_GLOBAL__N_120AddUnexpandedSymbols13HandleEpsilonEiRKSt6vectorIiSaIiEEi
FN:53,_ZN6follow12_GLOBAL__N_120AddUnexpandedSymbols33ProcessPoduction_NextSymbolExistsEiRKSt6vectorIiSaIiEEi
FNDA:141,_ZN6follow12_GLOBAL__N_120AddUnexpandedSymbols33ProcessPoduction_NextSymbolExistsEiRKSt6vectorIiSaIiEEi
FN:63,_ZN6follow12_GLOBAL__N_120AddUnexpandedSymbols34ProcessProduction_EndOfNonTerminalEii
FNDA:132,_ZN6follow12_GLOBAL__N_120AddUnexpandedSymbols34ProcessProduction_EndOfNonTerminalEii
FN:68,_ZN6follow12_GLOBAL__N_120AddUnexpandedSymbols17ProcessProductionEiRKSt6vectorIiSaIiEE
FNDA:132,_ZN6follow12_GLOBAL__N_120AddUnexpandedSymbols17ProcessProductionEiRKSt6vectorIiSaIiEE
FN:84,_ZN6follow12_GLOBAL__N_120AddUnexpandedSymbols20AddUnexpandedSymbolsEv
FNDA:1,_ZN6follow12_GLOBAL__N_120AddUnexpandedSymbols20AddUnexpandedSymbolsEv
FN:94,_ZN6follow12_GLOBAL__N_116ExpandFollowSets30ContainsFollowSetOfNonTerminalERSt3setIiSt4lessIiESaIiEEi
FNDA:120,_ZN6follow12_GLOBAL__N_116ExpandFollowSets30ContainsFollowSetOfNonTerminalERSt3setIiSt4lessIiESaIiEEi
FN:104,_ZN6follow12_GLOBAL__N_116ExpandFollowSets17ExpandNonTerminalERSt3setIiSt4lessIiESaIiEEi
FNDA:0,_ZN6follow12_GLOBAL__N_116ExpandFollowSets17ExpandNonTerminalERSt3setIiSt4lessIiESaIiEEi
FN:111,_ZN6follow12_GLOBAL__N_116ExpandFollowSets28ExpandFollowSetsOneIterationERbRSt3setIiSt4lessIiESaIiEE
FNDA:375,_ZN6follow12_GLOBAL__N_116ExpandFollowSets28ExpandFollowSetsOneIterationERbRSt3setIiSt4lessIiESaIiEE
FN:133,_ZN6follow12_GLOBAL__N_116ExpandFollowSets16ExpandFollowSetsEv
FNDA:1,_ZN6follow12_GLOBAL__N_116ExpandFollowSets16ExpandFollowSetsEv
FN:145,_ZN6follow16ComputeFollowSetEv
FNDA:1,_ZN6follow16ComputeFollowSetEv
FN:152,_ZN6follow12GetFollowSetEv
FNDA:103,_ZN6follow12GetFollowSetEv
DA:16,0
DA:19,0
DA:20,0
DA:21,0
DA:22,0
DA:24,0
DA:26,0
DA:29,55
DA:30,55
DA:33,141
DA:34,141
DA:37,141
DA:41,144
DA:42,3
DA:43,3
DA:44,3
DA:47,141
DA:49,0
DA:51,141
DA:53,141
DA:55,141
DA:56,141
DA:57,141
DA:60,141
DA:61,141
DA:63,132
DA:65,132
DA:66,132
DA:68,132
DA:69,405
DA:72,273
DA:73,141
DA:77,132
DA:78,132
DA:79,132
DA:82,132
DA:84,1
DA:85,67
DA:86,198
DA:87,132
DA:90,1
DA:94,120
DA:96,296
DA:97,258
DA:98,82
DA:101,38
DA:104,0
DA:106,0
DA:107,0
DA:109,0
DA:111,375
DA:113,750
DA:114,2301
DA:117,1926
DA:118,1806
DA:124,120
DA:125,82
DA:126,82
DA:130,375
DA:131,375
DA:133,1
DA:134,1
DA:135,4
DA:136,3
DA:137,378
DA:138,375
DA:141,1
DA:145,1
DA:146,1
DA:147,1
DA:148,1
DA:149,1
DA:150,1
DA:152,103
DA:153,103
end_of_record
SF:/usr/include/c++/9/bits/alloc_traits.h
FN:442,_ZNSt16allocator_traitsISaINSt8__detail10_Hash_nodeISt4pairIK11NonTerminalSt6vectorIS5_IiSaIiEESaIS7_EEELb0EEEEE8allocateERSC_m
FNDA:0,_ZNSt16allocator_traitsISaINSt8__detail10_Hash_nodeISt4pairIK11NonTerminalSt6vectorIS5_IiSaIiEESaIS7_EEELb0EEEEE8allocateERSC_m
FN:442,_ZNSt16allocator_traitsISaIiEE8allocateERS0_m
FNDA:0,_ZNSt16allocator_traitsISaIiEE8allocateERS0_m
FN:442,_ZNSt16allocator_traitsISaISt13_Rb_tree_nodeIiEEE8allocateERS2_m
FNDA:0,_ZNSt16allocator_traitsISaISt13_Rb_tree_nodeIiEEE8allocateERS2_m
FN:442,_ZNSt16allocator_traitsISaIPNSt8__detail15_Hash_node_baseEEE8allocateERS3_m
FNDA:0,_ZNSt16allocator_traitsISaIPNSt8__detail15_Hash_node_baseEEE8allocateERS3_m
FN:442,_ZNSt16allocator_traitsISaISt6vectorIiSaIiEEEE8allocateERS3_m
FNDA:0,_ZNSt16allocator_traitsISaISt6vectorIiSaIiEEEE8allocateERS3_m
FN:468,_ZNSt16allocator_traitsISaIiEE10deallocateERS0_Pim
FNDA:0,_ZNSt16allocator_traitsISaIiEE10deallocateERS0_Pim
FN:468,_ZNSt16allocator_traitsISaINSt8__detail10_Hash_nodeISt4pairIK11NonTerminalSt6vectorIS5_IiSaIiEESaIS7_EEELb0EEEEE10deallocateERSC_PSB_m
FNDA:0,_ZNSt16allocator_traitsISaINSt8__detail10_Hash_nodeISt4pairIK11NonTerminalSt6vectorIS5_IiSaIiEESaIS7_EEELb0EEEEE10deallocateERSC_PSB_m
FN:468,_ZNSt16allocator_traitsISaINSt8__detail10_Hash_nodeISt4pairIKiSt3setIiSt4lessIiESaIiEEELb0EEEEE10deallocateERSB_PSA_m
FNDA:0,_ZNSt16allocator_traitsISaINSt8__detail10_Hash_nodeISt4pairIKiSt3setIiSt4lessIiESaIiEEELb0EEEEE10deallocateERSB_PSA_m
FN:468,_ZNSt16allocator_traitsISaISt6vectorIiSaIiEEEE10deallocateERS3_PS2_m
FNDA:0,_ZNSt16allocator_traitsISaISt6vectorIiSaIiEEEE10deallocateERS3_PS2_m
FN:468,_ZNSt16allocator_traitsISaISt13_Rb_tree_nodeIiEEE10deallocateERS2_PS1_m
FNDA:0,_ZNSt16allocator_traitsISaISt13_Rb_tree_nodeIiEEE10deallocateERS2_PS1_m
FN:468,_ZNSt16allocator_traitsISaIPNSt8__detail15_Hash_node_baseEEE10deallocateERS3_PS2_m
FNDA:0,_ZNSt16allocator_traitsISaIPNSt8__detail15_Hash_node_baseEEE10deallocateERS3_PS2_m
FN:481,_ZNSt16allocator_traitsISaINSt8__detail10_Hash_nodeISt4pairIK11NonTerminalSt6vectorIS5_IiSaIiEESaIS7_EEELb0EEEEE9constructISA_JRKSA_EEEvRSC_PT_DpOT0_
FNDA:0,_ZNSt16allocator_traitsISaINSt8__detail10_Hash_nodeISt4pairIK11NonTerminalSt6vectorIS5_IiSaIiEESaIS7_EEELb0EEEEE9constructISA_JRKSA_EEEvRSC_PT_DpOT0_
FN:481,_ZNSt16allocator_traitsISaISt13_Rb_tree_nodeIiEEE9constructIiJRKiEEEvRS2_PT_DpOT0_
FNDA:0,_ZNSt16allocator_traitsISaISt13_Rb_tree_nodeIiEEE9constructIiJRKiEEEvRS2_PT_DpOT0_
FN:494,_ZNSt16allocator_traitsISaINSt8__detail10_Hash_nodeISt4pairIKiSt3setIiSt4lessIiESaIiEEELb0EEEEE7destroyIS9_EEvRSB_PT_
FNDA:0,_ZNSt16allocator_traitsISaINSt8__detail10_Hash_nodeISt4pairIKiSt3setIiSt4lessIiESaIiEEELb0EEEEE7destroyIS9_EEvRSB_PT_
FN:494,_ZNSt16allocator_traitsISaISt13_Rb_tree_nodeIiEEE7destroyIiEEvRS2_PT_
FNDA:0,_ZNSt16allocator_traitsISaISt13_Rb_tree_nodeIiEEE7destroyIiEEvRS2_PT_
FN:494,_ZNSt16allocator_traitsISaINSt8__detail10_Hash_nodeISt4pairIK11NonTerminalSt6vectorIS5_IiSaIiEESaIS7_EEELb0EEEEE7destroyISA_EEvRSC_PT_
FNDA:0,_ZNSt16allocator_traitsISaINSt8__detail10_Hash_nodeISt4pairIK11NonTerminalSt6vectorIS5_IiSaIiEESaIS7_EEELb0EEEEE7destroyISA_EEvRSC_PT_
FN:504,_ZNSt16allocator_traitsISaISt6vectorIiSaIiEEEE8max_sizeERKS3_
FNDA:0,_ZNSt16allocator_traitsISaISt6vectorIiSaIiEEEE8max_sizeERKS3_
FN:504,_ZNSt16allocator_traitsISaIiEE8max_sizeERKS0_
FNDA:0,_ZNSt16allocator_traitsISaIiEE8max_sizeERKS0_
FN:513,_ZNSt16allocator_traitsISaISt6vectorIiSaIiEEEE37select_on_container_copy_constructionERKS3_
FNDA:0,_ZNSt16allocator_traitsISaISt6vectorIiSaIiEEEE37select_on_container_copy_constructionERKS3_
FN:513,_ZNSt16allocator_traitsISaIiEE37select_on_container_copy_constructionERKS0_
FNDA:0,_ZNSt16allocator_traitsISaIiEE37select_on_container_copy_constructionERKS0_
FN:525,_ZSt18__do_alloc_on_copyISaISt13_Rb_tree_nodeIiEEEvRT_RKS3_St17integral_constantIbLb0EE
FNDA:0,_ZSt18__do_alloc_on_copyISaISt13_Rb_tree_nodeIiEEEvRT_RKS3_St17integral_constantIbLb0EE
FN:529,_ZSt15__alloc_on_copyISaISt13_Rb_tree_nodeIiEEEvRT_RKS3_
FNDA:0,_ZSt15__alloc_on_copyISaISt13_Rb_tree_nodeIiEEEvRT_RKS3_
DA:442,0
DA:443,0
DA:442,0
DA:443,0
DA:442,0
DA:443,0
DA:442,0
DA:443,0
DA:442,0
DA:443,0
DA:468,0
DA:469,0
DA:468,0
DA:469,0
DA:468,0
DA:469,0
DA:468,0
DA:469,0
DA:468,0
DA:469,0
DA:468,0
DA:469,0
DA:481,0
DA:483,0
DA:481,0
DA:483,0
DA:494,0
DA:496,0
DA:494,0
DA:496,0
DA:494,0
DA:496,0
DA:504,0
DA:505,0
DA:504,0
DA:505,0
DA:513,0
DA:514,0
DA:513,0
DA:514,0
DA:525,0
DA:526,0
DA:529,0
DA:533,0
DA:534,0
end_of_record
SF:/usr/include/c++/9/bits/unordered_map.h
FN:141,_ZNSt13unordered_mapIiSt3setIiSt4lessIiESaIiEESt4hashIiESt8equal_toIiESaISt4pairIKiS4_EEEC2Ev
FNDA:0,_ZNSt13unordered_mapIiSt3setIiSt4lessIiESaIiEESt4hashIiESt8equal_toIiESaISt4pairIKiS4_EEEC2Ev
FN:227,_ZNSt13unordered_mapI11NonTerminalSt6vectorIS1_IiSaIiEESaIS3_EESt4hashIS0_ESt8equal_toIS0_ESaISt4pairIKS0_S5_EEEC2ESt16initializer_listISC_EmRKS7_RKS9_RKSD_
FNDA:0,_ZNSt13unordered_mapI11NonTerminalSt6vectorIS1_IiSaIiEESaIS3_EESt4hashIS0_ESt8equal_toIS0_ESaISt4pairIKS0_S5_EEEC2ESt16initializer_listISC_EmRKS7_RKS9_RKSD_
FN:325,_ZNSt13unordered_mapIiSt3setIiSt4lessIiESaIiEESt4hashIiESt8equal_toIiESaISt4pairIKiS4_EEE5beginEv
FNDA:0,_ZNSt13unordered_mapIiSt3setIiSt4lessIiESaIiEESt4hashIiESt8equal_toIiESaISt4pairIKiS4_EEE5beginEv
FN:334,_ZNKSt13unordered_mapI11NonTerminalSt6vectorIS1_IiSaIiEESaIS3_EESt4hashIS0_ESt8equal_toIS0_ESaISt4pairIKS0_S5_EEE5beginEv
FNDA:0,_ZNKSt13unordered_mapI11NonTerminalSt6vectorIS1_IiSaIiEESaIS3_EESt4hashIS0_ESt8equal_toIS0_ESaISt4pairIKS0_S5_EEE5beginEv
FN:347,_ZNSt13unordered_mapIiSt3setIiSt4lessIiESaIiEESt4hashIiESt8equal_toIiESaISt4pairIKiS4_EEE3endEv
FNDA:0,_ZNSt13unordered_mapIiSt3setIiSt4lessIiESaIiEESt4hashIiESt8equal_toIiESaISt4pairIKiS4_EEE3endEv
FN:356,_ZNKSt13unordered_mapI11NonTerminalSt6vectorIS1_IiSaIiEESaIS3_EESt4hashIS0_ESt8equal_toIS0_ESaISt4pairIKS0_S5_EEE3endEv
FNDA:0,_ZNKSt13unordered_mapI11NonTerminalSt6vectorIS1_IiSaIiEESaIS3_EESt4hashIS0_ESt8equal_toIS0_ESaISt4pairIKS0_S5_EEE3endEv
FN:1002,_ZNSt13unordered_mapIiSt3setIiSt4lessIiESaIiEESt4hashIiESt8equal_toIiESaISt4pairIKiS4_EEE2atERSA_
FNDA:0,_ZNSt13unordered_mapIiSt3setIiSt4lessIiESaIiEESt4hashIiESt8equal_toIiESaISt4pairIKiS4_EEE2atERSA_
DA:141,0
DA:227,0
DA:232,0
DA:233,0
DA:325,0
DA:326,0
DA:334,0
DA:335,0
DA:347,0
DA:348,0
DA:356,0
DA:357,0
DA:1002,0
DA:1003,0
end_of_record
SF:/usr/include/c++/9/bits/allocator.h
FN:137,_ZNSaISt13_Rb_tree_nodeIiEEC2Ev
FNDA:0,_ZNSaISt13_Rb_tree_nodeIiEEC2Ev
FN:137,_ZNSaIiEC2Ev
FNDA:0,_ZNSaIiEC2Ev
FN:137,_ZNSaISt6vectorIiSaIiEEEC2Ev
FNDA:0,_ZNSaISt6vectorIiSaIiEEEC2Ev
FN:137,_ZNSaISt4pairIK11NonTerminalSt6vectorIS2_IiSaIiEESaIS4_EEEEC2Ev
FNDA:0,_ZNSaISt4pairIK11NonTerminalSt6vectorIS2_IiSaIiEESaIS4_EEEEC2Ev
FN:137,_ZNSaINSt8__detail10_Hash_nodeISt4pairIKiSt3setIiSt4lessIiESaIiEEELb0EEEEC2Ev
FNDA:0,_ZNSaINSt8__detail10_Hash_nodeISt4pairIKiSt3setIiSt4lessIiESaIiEEELb0EEEEC2Ev
FN:140,_ZNSaISt6vectorIiSaIiEEEC2ERKS2_
FNDA:0,_ZNSaISt6vectorIiSaIiEEEC2ERKS2_
FN:140,_ZNSaIiEC2ERKS_
FNDA:0,_ZNSaIiEC2ERKS_
FN:140,_ZNSaINSt8__detail10_Hash_nodeISt4pairIK11NonTerminalSt6vectorIS4_IiSaIiEESaIS6_EEELb0EEEEC2ERKSB_
FNDA:0,_ZNSaINSt8__detail10_Hash_nodeISt4pairIK11NonTerminalSt6vectorIS4_IiSaIiEESaIS6_EEELb0EEEEC2ERKSB_
FN:150,_ZNSaINSt8__detail10_Hash_nodeISt4pairIK11NonTerminalSt6vectorIS4_IiSaIiEESaIS6_EEELb0EEEEC2IS9_EERKSaIT_E
FNDA:0,_ZNSaINSt8__detail10_Hash_nodeISt4pairIK11NonTerminalSt6vectorIS4_IiSaIiEESaIS6_EEELb0EEEEC2IS9_EERKSaIT_E
FN:150,_ZNSaIPNSt8__detail15_Hash_node_baseEEC2INS_10_Hash_nodeISt4pairIKiSt3setIiSt4lessIiESaIiEEELb0EEEEERKSaIT_E
FNDA:0,_ZNSaIPNSt8__detail15_Hash_node_baseEEC2INS_10_Hash_nodeISt4pairIKiSt3setIiSt4lessIiESaIiEEELb0EEEEERKSaIT_E
FN:150,_ZNSaIPNSt8__detail15_Hash_node_baseEEC2INS_10_Hash_nodeISt4pairIK11NonTerminalSt6vectorIS8_IiSaIiEESaISA_EEELb0EEEEERKSaIT_E
FNDA:0,_ZNSaIPNSt8__detail15_Hash_node_baseEEC2INS_10_Hash_nodeISt4pairIK11NonTerminalSt6vectorIS8_IiSaIiEESaISA_EEELb0EEEEERKSaIT_E
FN:152,_ZNSaINSt8__detail10_Hash_nodeISt4pairIK11NonTerminalSt6vectorIS4_IiSaIiEESaIS6_EEELb0EEEED2Ev
FNDA:0,_ZNSaINSt8__detail10_Hash_nodeISt4pairIK11NonTerminalSt6vectorIS4_IiSaIiEESaIS6_EEELb0EEEED2Ev
FN:152,_ZNSaISt13_Rb_tree_nodeIiEED2Ev
FNDA:0,_ZNSaISt13_Rb_tree_nodeIiEED2Ev
FN:152,_ZNSaINSt8__detail10_Hash_nodeISt4pairIKiSt3setIiSt4lessIiESaIiEEELb0EEEED2Ev
FNDA:0,_ZNSaINSt8__detail10_Hash_nodeISt4pairIKiSt3setIiSt4lessIiESaIiEEELb0EEEED2Ev
FN:152,_ZNSaISt4pairIK11NonTerminalSt6vectorIS2_IiSaIiEESaIS4_EEEED2Ev
FNDA:0,_ZNSaISt4pairIK11NonTerminalSt6vectorIS2_IiSaIiEESaIS4_EEEED2Ev
FN:152,_ZNSaISt6vectorIiSaIiEEED2Ev
FNDA:0,_ZNSaISt6vectorIiSaIiEEED2Ev
FN:152,_ZNSaIPNSt8__detail15_Hash_node_baseEED2Ev
FNDA:0,_ZNSaIPNSt8__detail15_Hash_node_baseEED2Ev
FN:152,_ZNSaIiED2Ev
FNDA:0,_ZNSaIiED2Ev
FN:159,_ZStneRKSaISt13_Rb_tree_nodeIiEES3_
FNDA:0,_ZStneRKSaISt13_Rb_tree_nodeIiEES3_
DA:137,0
DA:137,0
DA:137,0
DA:137,0
DA:137,0
DA:140,0
DA:141,0
DA:140,0
DA:141,0
DA:140,0
DA:141,0
DA:150,0
DA:150,0
DA:150,0
DA:152,0
DA:152,0
DA:152,0
DA:152,0
DA:152,0
DA:152,0
DA:152,0
DA:159,0
DA:160,0
end_of_record
SF:/usr/include/c++/9/bits/stl_algobase.h
FN:198,_ZSt3minImERKT_S2_S2_
FNDA:0,_ZSt3minImERKT_S2_S2_
FN:222,_ZSt3maxImERKT_S2_S2_
FNDA:0,_ZSt3maxImERKT_S2_S2_
FN:280,_ZSt12__niter_baseIPiET_S1_
FNDA:0,_ZSt12__niter_baseIPiET_S1_
FN:280,_ZSt12__niter_baseIPKiET_S2_
FNDA:0,_ZSt12__niter_baseIPKiET_S2_
FN:295,_ZSt12__niter_wrapIPiET_RKS1_S1_
FNDA:0,_ZSt12__niter_wrapIPiET_RKS1_S1_
FN:375,_ZNSt11__copy_moveILb0ELb1ESt26random_access_iterator_tagE8__copy_mIiEEPT_PKS3_S6_S4_
FNDA:0,_ZNSt11__copy_moveILb0ELb1ESt26random_access_iterator_tagE8__copy_mIiEEPT_PKS3_S6_S4_
FN:393,_ZSt13__copy_move_aILb0EPKiPiET1_T0_S4_S3_
FNDA:0,_ZSt13__copy_move_aILb0EPKiPiET1_T0_S4_S3_
FN:438,_ZSt14__copy_move_a2ILb0EN9__gnu_cxx17__normal_iteratorIPKiSt6vectorIiSaIiEEEEPiET1_T0_SA_S9_
FNDA:0,_ZSt14__copy_move_a2ILb0EN9__gnu_cxx17__normal_iteratorIPKiSt6vectorIiSaIiEEEEPiET1_T0_SA_S9_
FN:438,_ZSt14__copy_move_a2ILb0EPKiPiET1_T0_S4_S3_
FNDA:0,_ZSt14__copy_move_a2ILb0EPKiPiET1_T0_S4_S3_
FN:465,_ZSt4copyIN9__gnu_cxx17__normal_iteratorIPKiSt6vectorIiSaIiEEEEPiET0_T_SA_S9_
FNDA:0,_ZSt4copyIN9__gnu_cxx17__normal_iteratorIPKiSt6vectorIiSaIiEEEEPiET0_T_SA_S9_
FN:465,_ZSt4copyIPKiPiET0_T_S4_S3_
FNDA:0,_ZSt4copyIPKiPiET0_T_S4_S3_
DA:198,0
DA:203,0
DA:204,0
DA:205,0
DA:222,0
DA:227,0
DA:228,0
DA:229,0
DA:280,0
DA:282,0
DA:280,0
DA:282,0
DA:295,0
DA:296,0
DA:375,0
DA:384,0
DA:385,0
DA:386,0
DA:387,0
DA:393,0
DA:398,0
DA:404,0
DA:438,0
DA:440,0
DA:443,0
DA:438,0
DA:440,0
DA:443,0
DA:465,0
DA:474,0
DA:465,0
DA:474,0
end_of_record
SF:/usr/include/c++/9/bits/ptr_traits.h
FN:146,_ZNSt14pointer_traitsIPNSt8__detail10_Hash_nodeISt4pairIK11NonTerminalSt6vectorIS5_IiSaIiEESaIS7_EEELb0EEEE10pointer_toERSB_
FNDA:0,_ZNSt14pointer_traitsIPNSt8__detail10_Hash_nodeISt4pairIK11NonTerminalSt6vectorIS5_IiSaIiEESaIS7_EEELb0EEEE10pointer_toERSB_
FN:146,_ZNSt14pointer_traitsIPNSt8__detail10_Hash_nodeISt4pairIKiSt3setIiSt4lessIiESaIiEEELb0EEEE10pointer_toERSA_
FNDA:0,_ZNSt14pointer_traitsIPNSt8__detail10_Hash_nodeISt4pairIKiSt3setIiSt4lessIiESaIiEEELb0EEEE10pointer_toERSA_
FN:146,_ZNSt14pointer_traitsIPPNSt8__detail15_Hash_node_baseEE10pointer_toERS2_
FNDA:0,_ZNSt14pointer_traitsIPPNSt8__detail15_Hash_node_baseEE10pointer_toERS2_
FN:156,_ZSt12__to_addressINSt8__detail10_Hash_nodeISt4pairIK11NonTerminalSt6vectorIS5_IiSaIiEESaIS7_EEELb0EEEEPT_SD_
FNDA:0,_ZSt12__to_addressINSt8__detail10_Hash_nodeISt4pairIK11NonTerminalSt6vectorIS5_IiSaIiEESaIS7_EEELb0EEEEPT_SD_
FN:156,_ZSt12__to_addressIPNSt8__detail15_Hash_node_baseEEPT_S4_
FNDA:0,_ZSt12__to_addressIPNSt8__detail15_Hash_node_baseEEPT_S4_
DA:146,0
DA:147,0
DA:146,0
DA:147,0
DA:146,0
DA:147,0
DA:156,0
DA:159,0
DA:156,0
DA:159,0
end_of_record
SF:/usr/include/c++/9/iostream
end_of_record
SF:/usr/include/c++/9/bits/hashtable.h
FN:342,_ZNKSt10_HashtableIiSt4pairIKiSt3setIiSt4lessIiESaIiEEESaIS7_ENSt8__detail10_Select1stESt8equal_toIiESt4hashIiENS9_18_Mod_range_hashingENS9_20_Default_ranged_hashENS9_20_Prime_rehash_policyENS9_17_Hashtable_traitsILb0ELb0ELb1EEEE21_M_uses_single_bucketEPPNS9_15_Hash_node_baseE
FNDA:0,_ZNKSt10_HashtableIiSt4pairIKiSt3setIiSt4lessIiESaIiEEESaIS7_ENSt8__detail10_Select1stESt8equal_toIiESt4hashIiENS9_18_Mod_range_hashingENS9_20_Default_ranged_hashENS9_20_Prime_rehash_policyENS9_17_Hashtable_traitsILb0ELb0ELb1EEEE21_M_uses_single_bucketEPPNS9_15_Hash_node_baseE
FN:342,_ZNKSt10_HashtableI11NonTerminalSt4pairIKS0_St6vectorIS3_IiSaIiEESaIS5_EEESaIS8_ENSt8__detail10_Select1stESt8equal_toIS0_ESt4hashIS0_ENSA_18_Mod_range_hashingENSA_20_Default_ranged_hashENSA_20_Prime_rehash_policyENSA_17_Hashtable_traitsILb0ELb0ELb1EEEE21_M_uses_single_bucketEPPNSA_15_Hash_node_baseE
FNDA:0,_ZNKSt10_HashtableI11NonTerminalSt4pairIKS0_St6vectorIS3_IiSaIiEESaIS5_EEESaIS8_ENSt8__detail10_Select1stESt8equal_toIS0_ESt4hashIS0_ENSA_18_Mod_range_hashingENSA_20_Default_ranged_hashENSA_20_Prime_rehash_policyENSA_17_Hashtable_traitsILb0ELb0ELb1EEEE21_M_uses_single_bucketEPPNSA_15_Hash_node_baseE
FN:353,_ZNSt10_HashtableI11NonTerminalSt4pairIKS0_St6vectorIS3_IiSaIiEESaIS5_EEESaIS8_ENSt8__detail10_Select1stESt8equal_toIS0_ESt4hashIS0_ENSA_18_Mod_range_hashingENSA_20_Default_ranged_hashENSA_20_Prime_rehash_policyENSA_17_Hashtable_traitsILb0ELb0ELb1EEEE19_M_allocate_bucketsEm
FNDA:0,_ZNSt10_HashtableI11NonTerminalSt4pairIKS0_St6vectorIS3_IiSaIiEESaIS5_EEESaIS8_ENSt8__detail10_Select1stESt8equal_toIS0_ESt4hashIS0_ENSA_18_Mod_range_hashingENSA_20_Default_ranged_hashENSA_20_Prime_rehash_policyENSA_17_Hashtable_traitsILb0ELb0ELb1EEEE19_M_allocate_bucketsEm
FN:365,_ZNSt10_HashtableI11NonTerminalSt4pairIKS0_St6vectorIS3_IiSaIiEESaIS5_EEESaIS8_ENSt8__detail10_Select1stESt8equal_toIS0_ESt4hashIS0_ENSA_18_Mod_range_hashingENSA_20_Default_ranged_hashENSA_20_Prime_rehash_policyENSA_17_Hashtable_traitsILb0ELb0ELb1EEEE21_M_deallocate_bucketsEPPNSA_15_Hash_node_baseEm
FNDA:0,_ZNSt10_HashtableI11NonTerminalSt4pairIKS0_St6vectorIS3_IiSaIiEESaIS5_EEESaIS8_ENSt8__detail10_Select1stESt8equal_toIS0_ESt4hashIS0_ENSA_18_Mod_range_hashingENSA_20_Default_ranged_hashENSA_20_Prime_rehash_policyENSA_17_Hashtable_traitsILb0ELb0ELb1EEEE21_M_deallocate_bucketsEPPNSA_15_Hash_node_baseEm
FN:365,_ZNSt10_HashtableIiSt4pairIKiSt3setIiSt4lessIiESaIiEEESaIS7_ENSt8__detail10_Select1stESt8equal_toIiESt4hashIiENS9_18_Mod_range_hashingENS9_20_Default_ranged_hashENS9_20_Prime_rehash_policyENS9_17_Hashtable_traitsILb0ELb0ELb1EEEE21_M_deallocate_bucketsEPPNS9_15_Hash_node_baseEm
FNDA:0,_ZNSt10_HashtableIiSt4pairIKiSt3setIiSt4lessIiESaIiEEESaIS7_ENSt8__detail10_Select1stESt8equal_toIiESt4hashIiENS9_18_Mod_range_hashingENS9_20_Default_ranged_hashENS9_20_Prime_rehash_policyENS9_17_Hashtable_traitsILb0ELb0ELb1EEEE21_M_deallocate_bucketsEPPNS9_15_Hash_node_baseEm
FN:374,_ZNSt10_HashtableIiSt4pairIKiSt3setIiSt4lessIiESaIiEEESaIS7_ENSt8__detail10_Select1stESt8equal_toIiESt4hashIiENS9_18_Mod_range_hashingENS9_20_Default_ranged_hashENS9_20_Prime_rehash_policyENS9_17_Hashtable_traitsILb0ELb0ELb1EEEE21_M_deallocate_bucketsEv
FNDA:0,_ZNSt10_HashtableIiSt4pairIKiSt3setIiSt4lessIiESaIiEEESaIS7_ENSt8__detail10_Select1stESt8equal_toIiESt4hashIiENS9_18_Mod_range_hashingENS9_20_Default_ranged_hashENS9_20_Prime_rehash_policyENS9_17_Hashtable_traitsILb0ELb0ELb1EEEE21_M_deallocate_bucketsEv
FN:374,_ZNSt10_HashtableI11NonTerminalSt4pairIKS0_St6vectorIS3_IiSaIiEESaIS5_EEESaIS8_ENSt8__detail10_Select1stESt8equal_toIS0_ESt4hashIS0_ENSA_18_Mod_range_hashingENSA_20_Default_ranged_hashENSA_20_Prime_rehash_policyENSA_17_Hashtable_traitsILb0ELb0ELb1EEEE21_M_deallocate_bucketsEv
FNDA:0,_ZNSt10_HashtableI11NonTerminalSt4pairIKS0_St6vectorIS3_IiSaIiEESaIS5_EEESaIS8_ENSt8__detail10_Select1stESt8equal_toIS0_ESt4hashIS0_ENSA_18_Mod_range_hashingENSA_20_Default_ranged_hashENSA_20_Prime_rehash_policyENSA_17_Hashtable_traitsILb0ELb0ELb1EEEE21_M_deallocate_bucketsEv
FN:383,_ZNKSt10_HashtableI11NonTerminalSt4pairIKS0_St6vectorIS3_IiSaIiEESaIS5_EEESaIS8_ENSt8__detail10_Select1stESt8equal_toIS0_ESt4hashIS0_ENSA_18_Mod_range_hashingENSA_20_Default_ranged_hashENSA_20_Prime_rehash_policyENSA_17_Hashtable_traitsILb0ELb0ELb1EEEE8_M_beginEv
FNDA:0,_ZNKSt10_HashtableI11NonTerminalSt4pairIKS0_St6vectorIS3_IiSaIiEESaIS5_EEESaIS8_ENSt8__detail10_Select1stESt8equal_toIS0_ESt4hashIS0_ENSA_18_Mod_range_hashingENSA_20_Default_ranged_hashENSA_20_Prime_rehash_policyENSA_17_Hashtable_traitsILb0ELb0ELb1EEEE8_M_beginEv
FN:383,_ZNKSt10_HashtableIiSt4pairIKiSt3setIiSt4lessIiESaIiEEESaIS7_ENSt8__detail10_Select1stESt8equal_toIiESt4hashIiENS9_18_Mod_range_hashingENS9_20_Default_ranged_hashENS9_20_Prime_rehash_policyENS9_17_Hashtable_traitsILb0ELb0ELb1EEEE8_M_beginEv
FNDA:0,_ZNKSt10_HashtableIiSt4pairIKiSt3setIiSt4lessIiESaIiEEESaIS7_ENSt8__detail10_Select1stESt8equal_toIiESt4hashIiENS9_18_Mod_range_hashingENS9_20_Default_ranged_hashENS9_20_Prime_rehash_policyENS9_17_Hashtable_traitsILb0ELb0ELb1EEEE8_M_beginEv
FN:405,_ZNSt10_HashtableI11NonTerminalSt4pairIKS0_St6vectorIS3_IiSaIiEESaIS5_EEESaIS8_ENSt8__detail10_Select1stESt8equal_toIS0_ESt4hashIS0_ENSA_18_Mod_range_hashingENSA_20_Default_ranged_hashENSA_20_Prime_rehash_policyENSA_17_Hashtable_traitsILb0ELb0ELb1EEEEC2ERKSF_RKSG_RKSH_RKSD_RKSB_RKS9_
FNDA:0,_ZNSt10_HashtableI11NonTerminalSt4pairIKS0_St6vectorIS3_IiSaIiEESaIS5_EEESaIS8_ENSt8__detail10_Select1stESt8equal_toIS0_ESt4hashIS0_ENSA_18_Mod_range_hashingENSA_20_Default_ranged_hashENSA_20_Prime_rehash_policyENSA_17_Hashtable_traitsILb0ELb0ELb1EEEEC2ERKSF_RKSG_RKSH_RKSD_RKSB_RKS9_
FN:438,_ZNSt10_HashtableIiSt4pairIKiSt3setIiSt4lessIiESaIiEEESaIS7_ENSt8__detail10_Select1stESt8equal_toIiESt4hashIiENS9_18_Mod_range_hashingENS9_20_Default_ranged_hashENS9_20_Prime_rehash_policyENS9_17_Hashtable_traitsILb0ELb0ELb1EEEEC2Ev
FNDA:0,_ZNSt10_HashtableIiSt4pairIKiSt3setIiSt4lessIiESaIiEEESaIS7_ENSt8__detail10_Select1stESt8equal_toIiESt4hashIiENS9_18_Mod_range_hashingENS9_20_Default_ranged_hashENS9_20_Prime_rehash_policyENS9_17_Hashtable_traitsILb0ELb0ELb1EEEEC2Ev
FN:492,_ZNSt10_HashtableI11NonTerminalSt4pairIKS0_St6vectorIS3_IiSaIiEESaIS5_EEESaIS8_ENSt8__detail10_Select1stESt8equal_toIS0_ESt4hashIS0_ENSA_18_Mod_range_hashingENSA_20_Default_ranged_hashENSA_20_Prime_rehash_policyENSA_17_Hashtable_traitsILb0ELb0ELb1EEEEC2ESt16initializer_listIS8_EmRKSF_RKSD_RKS9_
FNDA:0,_ZNSt10_HashtableI11NonTerminalSt4pairIKS0_St6vectorIS3_IiSaIiEESaIS5_EEESaIS8_ENSt8__detail10_Select1stESt8equal_toIS0_ESt4hashIS0_ENSA_18_Mod_range_hashingENSA_20_Default_ranged_hashENSA_20_Prime_rehash_policyENSA_17_Hashtable_traitsILb0ELb0ELb1EEEEC2ESt16initializer_listIS8_EmRKSF_RKSD_RKS9_
FN:536,_ZNSt10_HashtableIiSt4pairIKiSt3setIiSt4lessIiESaIiEEESaIS7_ENSt8__detail10_Select1stESt8equal_toIiESt4hashIiENS9_18_Mod_range_hashingENS9_20_Default_ranged_hashENS9_20_Prime_rehash_policyENS9_17_Hashtable_traitsILb0ELb0ELb1EEEE5beginEv
FNDA:0,_ZNSt10_HashtableIiSt4pairIKiSt3setIiSt4lessIiESaIiEEESaIS7_ENSt8__detail10_Select1stESt8equal_toIiESt4hashIiENS9_18_Mod_range_hashingENS9_20_Default_ranged_hashENS9_20_Prime_rehash_policyENS9_17_Hashtable_traitsILb0ELb0ELb1EEEE5beginEv
FN:540,_ZNKSt10_HashtableI11NonTerminalSt4pairIKS0_St6vectorIS3_IiSaIiEESaIS5_EEESaIS8_ENSt8__detail10_Select1stESt8equal_toIS0_ESt4hashIS0_ENSA_18_Mod_range_hashingENSA_20_Default_ranged_hashENSA_20_Prime_rehash_policyENSA_17_Hashtable_traitsILb0ELb0ELb1EEEE5beginEv
FNDA:0,_ZNKSt10_HashtableI11NonTerminalSt4pairIKS0_St6vectorIS3_IiSaIiEESaIS5_EEESaIS8_ENSt8__detail10_Select1stESt8equal_toIS0_ESt4hashIS0_ENSA_18_Mod_range_hashingENSA_20_Default_ranged_hashENSA_20_Prime_rehash_policyENSA_17_Hashtable_traitsILb0ELb0ELb1EEEE5beginEv
FN:544,_ZNSt10_HashtableIiSt4pairIKiSt3setIiSt4lessIiESaIiEEESaIS7_ENSt8__detail10_Select1stESt8equal_toIiESt4hashIiENS9_18_Mod_range_hashingENS9_20_Default_ranged_hashENS9_20_Prime_rehash_policyENS9_17_Hashtable_traitsILb0ELb0ELb1EEEE3endEv
FNDA:0,_ZNSt10_HashtableIiSt4pairIKiSt3setIiSt4lessIiESaIiEEESaIS7_ENSt8__detail10_Select1stESt8equal_toIiESt4hashIiENS9_18_Mod_range_hashingENS9_20_Default_ranged_hashENS9_20_Prime_rehash_policyENS9_17_Hashtable_traitsILb0ELb0ELb1EEEE3endEv
FN:548,_ZNKSt10_HashtableI11NonTerminalSt4pairIKS0_St6vectorIS3_IiSaIiEESaIS5_EEESaIS8_ENSt8__detail10_Select1stESt8equal_toIS0_ESt4hashIS0_ENSA_18_Mod_range_hashingENSA_20_Default_ranged_hashENSA_20_Prime_rehash_policyENSA_17_Hashtable_traitsILb0ELb0ELb1EEEE3endEv
FNDA:0,_ZNKSt10_HashtableI11NonTerminalSt4pairIKS0_St6vectorIS3_IiSaIiEESaIS5_EEESaIS8_ENSt8__detail10_Select1stESt8equal_toIS0_ESt4hashIS0_ENSA_18_Mod_range_hashingENSA_20_Default_ranged_hashENSA_20_Prime_rehash_policyENSA_17_Hashtable_traitsILb0ELb0ELb1EEEE3endEv
FN:671,_ZNKSt10_HashtableI11NonTerminalSt4pairIKS0_St6vectorIS3_IiSaIiEESaIS5_EEESaIS8_ENSt8__detail10_Select1stESt8equal_toIS0_ESt4hashIS0_ENSA_18_Mod_range_hashingENSA_20_Default_ranged_hashENSA_20_Prime_rehash_policyENSA_17_Hashtable_traitsILb0ELb0ELb1EEEE15_M_bucket_indexEPNSA_10_Hash_nodeIS8_Lb0EEE
FNDA:0,_ZNKSt10_HashtableI11NonTerminalSt4pairIKS0_St6vectorIS3_IiSaIiEESaIS5_EEESaIS8_ENSt8__detail10_Select1stESt8equal_toIS0_ESt4hashIS0_ENSA_18_Mod_range_hashingENSA_20_Default_ranged_hashENSA_20_Prime_rehash_policyENSA_17_Hashtable_traitsILb0ELb0ELb1EEEE15_M_bucket_indexEPNSA_10_Hash_nodeIS8_Lb0EEE
FN:671,_ZNKSt10_HashtableIiSt4pairIKiSt3setIiSt4lessIiESaIiEEESaIS7_ENSt8__detail10_Select1stESt8equal_toIiESt4hashIiENS9_18_Mod_range_hashingENS9_20_Default_ranged_hashENS9_20_Prime_rehash_policyENS9_17_Hashtable_traitsILb0ELb0ELb1EEEE15_M_bucket_indexEPNS9_10_Hash_nodeIS7_Lb0EEE
FNDA:0,_ZNKSt10_HashtableIiSt4pairIKiSt3setIiSt4lessIiESaIiEEESaIS7_ENSt8__detail10_Select1stESt8equal_toIiESt4hashIiENS9_18_Mod_range_hashingENS9_20_Default_ranged_hashENS9_20_Prime_rehash_policyENS9_17_Hashtable_traitsILb0ELb0ELb1EEEE15_M_bucket_indexEPNS9_10_Hash_nodeIS7_Lb0EEE
FN:675,_ZNKSt10_HashtableIiSt4pairIKiSt3setIiSt4lessIiESaIiEEESaIS7_ENSt8__detail10_Select1stESt8equal_toIiESt4hashIiENS9_18_Mod_range_hashingENS9_20_Default_ranged_hashENS9_20_Prime_rehash_policyENS9_17_Hashtable_traitsILb0ELb0ELb1EEEE15_M_bucket_indexERS1_m
FNDA:0,_ZNKSt10_HashtableIiSt4pairIKiSt3setIiSt4lessIiESaIiEEESaIS7_ENSt8__detail10_Select1stESt8equal_toIiESt4hashIiENS9_18_Mod_range_hashingENS9_20_Default_ranged_hashENS9_20_Prime_rehash_policyENS9_17_Hashtable_traitsILb0ELb0ELb1EEEE15_M_bucket_indexERS1_m
FN:675,_ZNKSt10_HashtableI11NonTerminalSt4pairIKS0_St6vectorIS3_IiSaIiEESaIS5_EEESaIS8_ENSt8__detail10_Select1stESt8equal_toIS0_ESt4hashIS0_ENSA_18_Mod_range_hashingENSA_20_Default_ranged_hashENSA_20_Prime_rehash_policyENSA_17_Hashtable_traitsILb0ELb0ELb1EEEE15_M_bucket_indexERS2_m
FNDA:0,_ZNKSt10_HashtableI11NonTerminalSt4pairIKS0_St6vectorIS3_IiSaIiEESaIS5_EEESaIS8_ENSt8__detail10_Select1stESt8equal_toIS0_ESt4hashIS0_ENSA_18_Mod_range_hashingENSA_20_Default_ranged_hashENSA_20_Prime_rehash_policyENSA_17_Hashtable_traitsILb0ELb0ELb1EEEE15_M_bucket_indexERS2_m
FN:684,_ZNKSt10_HashtableI11NonTerminalSt4pairIKS0_St6vectorIS3_IiSaIiEESaIS5_EEESaIS8_ENSt8__detail10_Select1stESt8equal_toIS0_ESt4hashIS0_ENSA_18_Mod_range_hashingENSA_20_Default_ranged_hashENSA_20_Prime_rehash_policyENSA_17_Hashtable_traitsILb0ELb0ELb1EEEE12_M_find_nodeEmRS2_m
FNDA:0,_ZNKSt10_HashtableI11NonTerminalSt4pairIKS0_St6vectorIS3_IiSaIiEESaIS5_EEESaIS8_ENSt8__detail10_Select1stESt8equal_toIS0_ESt4hashIS0_ENSA_18_Mod_range_hashingENSA_20_Default_ranged_hashENSA_20_Prime_rehash_policyENSA_17_Hashtable_traitsILb0ELb0ELb1EEEE12_M_find_nodeEmRS2_m
FN:684,_ZNKSt10_HashtableIiSt4pairIKiSt3setIiSt4lessIiESaIiEEESaIS7_ENSt8__detail10_Select1stESt8equal_toIiESt4hashIiENS9_18_Mod_range_hashingENS9_20_Default_ranged_hashENS9_20_Prime_rehash_policyENS9_17_Hashtable_traitsILb0ELb0ELb1EEEE12_M_find_nodeEmRS1_m
FNDA:0,_ZNKSt10_HashtableIiSt4pairIKiSt3setIiSt4lessIiESaIiEEESaIS7_ENSt8__detail10_Select1stESt8equal_toIiESt4hashIiENS9_18_Mod_range_hashingENS9_20_Default_ranged_hashENS9_20_Prime_rehash_policyENS9_17_Hashtable_traitsILb0ELb0ELb1EEEE12_M_find_nodeEmRS1_m
FN:1004,_ZNSt10_HashtableI11NonTerminalSt4pairIKS0_St6vectorIS3_IiSaIiEESaIS5_EEESaIS8_ENSt8__detail10_Select1stESt8equal_toIS0_ESt4hashIS0_ENSA_18_Mod_range_hashingENSA_20_Default_ranged_hashENSA_20_Prime_rehash_policyENSA_17_Hashtable_traitsILb0ELb0ELb1EEEEC2IPKS8_EET_SP_mRKSF_RKSG_RKSH_RKSD_RKSB_RKS9_
FNDA:0,_ZNSt10_HashtableI11NonTerminalSt4pairIKS0_St6vectorIS3_IiSaIiEESaIS5_EEESaIS8_ENSt8__detail10_Select1stESt8equal_toIS0_ESt4hashIS0_ENSA_18_Mod_range_hashingENSA_20_Default_ranged_hashENSA_20_Prime_rehash_policyENSA_17_Hashtable_traitsILb0ELb0ELb1EEEEC2IPKS8_EET_SP_mRKSF_RKSG_RKSH_RKSD_RKSB_RKS9_
FN:1383,_ZNSt10_HashtableI11NonTerminalSt4pairIKS0_St6vectorIS3_IiSaIiEESaIS5_EEESaIS8_ENSt8__detail10_Select1stESt8equal_toIS0_ESt4hashIS0_ENSA_18_Mod_range_hashingENSA_20_Default_ranged_hashENSA_20_Prime_rehash_policyENSA_17_Hashtable_traitsILb0ELb0ELb1EEEED2Ev
FNDA:0,_ZNSt10_HashtableI11NonTerminalSt4pairIKS0_St6vectorIS3_IiSaIiEESaIS5_EEESaIS8_ENSt8__detail10_Select1stESt8equal_toIS0_ESt4hashIS0_ENSA_18_Mod_range_hashingENSA_20_Default_ranged_hashENSA_20_Prime_rehash_policyENSA_17_Hashtable_traitsILb0ELb0ELb1EEEED2Ev
FN:1383,_ZNSt10_HashtableIiSt4pairIKiSt3setIiSt4lessIiESaIiEEESaIS7_ENSt8__detail10_Select1stESt8equal_toIiESt4hashIiENS9_18_Mod_range_hashingENS9_20_Default_ranged_hashENS9_20_Prime_rehash_policyENS9_17_Hashtable_traitsILb0ELb0ELb1EEEED2Ev
FNDA:0,_ZNSt10_HashtableIiSt4pairIKiSt3setIiSt4lessIiESaIiEEESaIS7_ENSt8__detail10_Select1stESt8equal_toIiESt4hashIiENS9_18_Mod_range_hashingENS9_20_Default_ranged_hashENS9_20_Prime_rehash_policyENS9_17_Hashtable_traitsILb0ELb0ELb1EEEED2Ev
FN:1567,_ZNKSt10_HashtableIiSt4pairIKiSt3setIiSt4lessIiESaIiEEESaIS7_ENSt8__detail10_Select1stESt8equal_toIiESt4hashIiENS9_18_Mod_range_hashingENS9_20_Default_ranged_hashENS9_20_Prime_rehash_policyENS9_17_Hashtable_traitsILb0ELb0ELb1EEEE19_M_find_before_nodeEmRS1_m
FNDA:0,_ZNKSt10_HashtableIiSt4pairIKiSt3setIiSt4lessIiESaIiEEESaIS7_ENSt8__detail10_Select1stESt8equal_toIiESt4hashIiENS9_18_Mod_range_hashingENS9_20_Default_ranged_hashENS9_20_Prime_rehash_policyENS9_17_Hashtable_traitsILb0ELb0ELb1EEEE19_M_find_before_nodeEmRS1_m
FN:1567,_ZNKSt10_HashtableI11NonTerminalSt4pairIKS0_St6vectorIS3_IiSaIiEESaIS5_EEESaIS8_ENSt8__detail10_Select1stESt8equal_toIS0_ESt4hashIS0_ENSA_18_Mod_range_hashingENSA_20_Default_ranged_hashENSA_20_Prime_rehash_policyENSA_17_Hashtable_traitsILb0ELb0ELb1EEEE19_M_find_before_nodeEmRS2_m
FNDA:0,_ZNKSt10_HashtableI11NonTerminalSt4pairIKS0_St6vectorIS3_IiSaIiEESaIS5_EEESaIS8_ENSt8__detail10_Select1stESt8equal_toIS0_ESt4hashIS0_ENSA_18_Mod_range_hashingENSA_20_Default_ranged_hashENSA_20_Prime_rehash_policyENSA_17_Hashtable_traitsILb0ELb0ELb1EEEE19_M_find_before_nodeEmRS2_m
FN:1595,_ZNSt10_HashtableI11NonTerminalSt4pairIKS0_St6vectorIS3_IiSaIiEESaIS5_EEESaIS8_ENSt8__detail10_Select1stESt8equal_toIS0_ESt4hashIS0_ENSA_18_Mod_range_hashingENSA_20_Default_ranged_hashENSA_20_Prime_rehash_policyENSA_17_Hashtable_traitsILb0ELb0ELb1EEEE22_M_insert_bucket_beginEmPNSA_10_Hash_nodeIS8_Lb0EEE
FNDA:0,_ZNSt10_HashtableI11NonTerminalSt4pairIKS0_St6vectorIS3_IiSaIiEESaIS5_EEESaIS8_ENSt8__detail10_Select1stESt8equal_toIS0_ESt4hashIS0_ENSA_18_Mod_range_hashingENSA_20_Default_ranged_hashENSA_20_Prime_rehash_policyENSA_17_Hashtable_traitsILb0ELb0ELb1EEEE22_M_insert_bucket_beginEmPNSA_10_Hash_nodeIS8_Lb0EEE
FN:1733,_ZNSt10_HashtableI11NonTerminalSt4pairIKS0_St6vectorIS3_IiSaIiEESaIS5_EEESaIS8_ENSt8__detail10_Select1stESt8equal_toIS0_ESt4hashIS0_ENSA_18_Mod_range_hashingENSA_20_Default_ranged_hashENSA_20_Prime_rehash_policyENSA_17_Hashtable_traitsILb0ELb0ELb1EEEE21_M_insert_unique_nodeEmmPNSA_10_Hash_nodeIS8_Lb0EEEm
FNDA:0,_ZNSt10_HashtableI11NonTerminalSt4pairIKS0_St6vectorIS3_IiSaIiEESaIS5_EEESaIS8_ENSt8__detail10_Select1stESt8equal_toIS0_ESt4hashIS0_ENSA_18_Mod_range_hashingENSA_20_Default_ranged_hashENSA_20_Prime_rehash_policyENSA_17_Hashtable_traitsILb0ELb0ELb1EEEE21_M_insert_unique_nodeEmmPNSA_10_Hash_nodeIS8_Lb0EEEm
FN:1838,_ZNSt10_HashtableI11NonTerminalSt4pairIKS0_St6vectorIS3_IiSaIiEESaIS5_EEESaIS8_ENSt8__detail10_Select1stESt8equal_toIS0_ESt4hashIS0_ENSA_18_Mod_range_hashingENSA_20_Default_ranged_hashENSA_20_Prime_rehash_policyENSA_17_Hashtable_traitsILb0ELb0ELb1EEEE9_M_insertIRKS8_NSA_10_AllocNodeISaINSA_10_Hash_nodeIS8_Lb0EEEEEEEES1_INSA_14_Node_iteratorIS8_Lb0ELb0EEEbEOT_RKT0_St17integral_constantIbLb1EEm
FNDA:0,_ZNSt10_HashtableI11NonTerminalSt4pairIKS0_St6vectorIS3_IiSaIiEESaIS5_EEESaIS8_ENSt8__detail10_Select1stESt8equal_toIS0_ESt4hashIS0_ENSA_18_Mod_range_hashingENSA_20_Default_ranged_hashENSA_20_Prime_rehash_policyENSA_17_Hashtable_traitsILb0ELb0ELb1EEEE9_M_insertIRKS8_NSA_10_AllocNodeISaINSA_10_Hash_nodeIS8_Lb0EEEEEEEES1_INSA_14_Node_iteratorIS8_Lb0ELb0EEEbEOT_RKT0_St17integral_constantIbLb1EEm
FN:2059,_ZNSt10_HashtableI11NonTerminalSt4pairIKS0_St6vectorIS3_IiSaIiEESaIS5_EEESaIS8_ENSt8__detail10_Select1stESt8equal_toIS0_ESt4hashIS0_ENSA_18_Mod_range_hashingENSA_20_Default_ranged_hashENSA_20_Prime_rehash_policyENSA_17_Hashtable_traitsILb0ELb0ELb1EEEE5clearEv
FNDA:0,_ZNSt10_HashtableI11NonTerminalSt4pairIKS0_St6vectorIS3_IiSaIiEESaIS5_EEESaIS8_ENSt8__detail10_Select1stESt8equal_toIS0_ESt4hashIS0_ENSA_18_Mod_range_hashingENSA_20_Default_ranged_hashENSA_20_Prime_rehash_policyENSA_17_Hashtable_traitsILb0ELb0ELb1EEEE5clearEv
FN:2059,_ZNSt10_HashtableIiSt4pairIKiSt3setIiSt4lessIiESaIiEEESaIS7_ENSt8__detail10_Select1stESt8equal_toIiESt4hashIiENS9_18_Mod_range_hashingENS9_20_Default_ranged_hashENS9_20_Prime_rehash_policyENS9_17_Hashtable_traitsILb0ELb0ELb1EEEE5clearEv
FNDA:0,_ZNSt10_HashtableIiSt4pairIKiSt3setIiSt4lessIiESaIiEEESaIS7_ENSt8__detail10_Select1stESt8equal_toIiESt4hashIiENS9_18_Mod_range_hashingENS9_20_Default_ranged_hashENS9_20_Prime_rehash_policyENS9_17_Hashtable_traitsILb0ELb0ELb1EEEE5clearEv
FN:2096,_ZNSt10_HashtableI11NonTerminalSt4pairIKS0_St6vectorIS3_IiSaIiEESaIS5_EEESaIS8_ENSt8__detail10_Select1stESt8equal_toIS0_ESt4hashIS0_ENSA_18_Mod_range_hashingENSA_20_Default_ranged_hashENSA_20_Prime_rehash_policyENSA_17_Hashtable_traitsILb0ELb0ELb1EEEE9_M_rehashEmRKm
FNDA:0,_ZNSt10_HashtableI11NonTerminalSt4pairIKS0_St6vectorIS3_IiSaIiEESaIS5_EEESaIS8_ENSt8__detail10_Select1stESt8equal_toIS0_ESt4hashIS0_ENSA_18_Mod_range_hashingENSA_20_Default_ranged_hashENSA_20_Prime_rehash_policyENSA_17_Hashtable_traitsILb0ELb0ELb1EEEE9_M_rehashEmRKm
FN:2119,_ZNSt10_HashtableI11NonTerminalSt4pairIKS0_St6vectorIS3_IiSaIiEESaIS5_EEESaIS8_ENSt8__detail10_Select1stESt8equal_toIS0_ESt4hashIS0_ENSA_18_Mod_range_hashingENSA_20_Default_ranged_hashENSA_20_Prime_rehash_policyENSA_17_Hashtable_traitsILb0ELb0ELb1EEEE13_M_rehash_auxEmSt17integral_constantIbLb1EE
FNDA:0,_ZNSt10_HashtableI11NonTerminalSt4pairIKS0_St6vectorIS3_IiSaIiEESaIS5_EEESaIS8_ENSt8__detail10_Select1stESt8equal_toIS0_ESt4hashIS0_ENSA_18_Mod_range_hashingENSA_20_Default_ranged_hashENSA_20_Prime_rehash_policyENSA_17_Hashtable_traitsILb0ELb0ELb1EEEE13_M_rehash_auxEmSt17integral_constantIbLb1EE
DA:342,0
DA:343,0
DA:342,0
DA:343,0
DA:353,0
DA:355,0
DA:357,0
DA:358,0
DA:361,0
DA:365,0
DA:367,0
DA:368,0
DA:370,0
DA:365,0
DA:367,0
DA:368,0
DA:370,0
DA:374,0
DA:375,0
DA:374,0
DA:375,0
DA:383,0
DA:384,0
DA:383,0
DA:384,0
DA:405,0
DA:409,0
DA:410,0
DA:438,0
DA:492,0
DA:498,0
DA:499,0
DA:536,0
DA:537,0
DA:540,0
DA:541,0
DA:544,0
DA:545,0
DA:548,0
DA:549,0
DA:671,0
DA:672,0
DA:671,0
DA:672,0
DA:675,0
DA:676,0
DA:675,0
DA:676,0
DA:684,0
DA:687,0
DA:688,0
DA:689,0
DA:690,0
DA:684,0
DA:687,0
DA:688,0
DA:689,0
DA:690,0
DA:1004,0
DA:1011,0
DA:1013,0
DA:1014,0
DA:1016,0
DA:1019,0
DA:1021,0
DA:1022,0
DA:1025,0
DA:1026,0
DA:1027,0
DA:1383,0
DA:1387,0
DA:1388,0
DA:1389,0
DA:1383,0
DA:1387,0
DA:1388,0
DA:1389,0
DA:1567,0
DA:1573,0
DA:1574,0
DA:1575,0
DA:1577,0
DA:1578,0
DA:1580,0
DA:1581,0
DA:1583,0
DA:1584,0
DA:1585,0
DA:1587,0
DA:1567,0
DA:1573,0
DA:1574,0
DA:1575,0
DA:1577,0
DA:1578,0
DA:1580,0
DA:1581,0
DA:1583,0
DA:1584,0
DA:1585,0
DA:1587,0
DA:1595,0
DA:1599,0
DA:1603,0
DA:1604,0
DA:1611,0
DA:1612,0
DA:1613,0
DA:1616,0
DA:1617,0
DA:1619,0
DA:1733,0
DA:1739,0
DA:1740,0
DA:1746,0
DA:1748,0
DA:1749,0
DA:1752,0
DA:1755,0
DA:1756,0
DA:1757,0
DA:1759,0
DA:1761,0
DA:1762,0
DA:1838,0
DA:1844,0
DA:1845,0
DA:1846,0
DA:1848,0
DA:1849,0
DA:1850,0
DA:1852,0
DA:1853,0
DA:2059,0
DA:2063,0
DA:2064,0
DA:2065,0
DA:2066,0
DA:2067,0
DA:2059,0
DA:2063,0
DA:2064,0
DA:2065,0
DA:2066,0
DA:2067,0
DA:2096,0
DA:2102,0
DA:2104,0
DA:2108,0
DA:2109,0
DA:2111,0
DA:2119,0
DA:2123,0
DA:2124,0
DA:2125,0
DA:2126,0
DA:2127,0
DA:2129,0
DA:2130,0
DA:2131,0
DA:2133,0
DA:2134,0
DA:2135,0
DA:2136,0
DA:2137,0
DA:2138,0
DA:2142,0
DA:2143,0
DA:2145,0
DA:2148,0
DA:2149,0
DA:2150,0
DA:2151,0
end_of_record
SF:/usr/include/c++/9/ext/new_allocator.h
FN:80,_ZN9__gnu_cxx13new_allocatorIiEC2Ev
FNDA:0,_ZN9__gnu_cxx13new_allocatorIiEC2Ev
FN:80,_ZN9__gnu_cxx13new_allocatorISt13_Rb_tree_nodeIiEEC2Ev
FNDA:0,_ZN9__gnu_cxx13new_allocatorISt13_Rb_tree_nodeIiEEC2Ev
FN:80,_ZN9__gnu_cxx13new_allocatorINSt8__detail10_Hash_nodeISt4pairIK11NonTerminalSt6vectorIS6_IiSaIiEESaIS8_EEELb0EEEEC2Ev
FNDA:0,_ZN9__gnu_cxx13new_allocatorINSt8__detail10_Hash_nodeISt4pairIK11NonTerminalSt6vectorIS6_IiSaIiEESaIS8_EEELb0EEEEC2Ev
FN:80,_ZN9__gnu_cxx13new_allocatorINSt8__detail10_Hash_nodeISt4pairIKiSt3setIiSt4lessIiESaIiEEELb0EEEEC2Ev
FNDA:0,_ZN9__gnu_cxx13new_allocatorINSt8__detail10_Hash_nodeISt4pairIKiSt3setIiSt4lessIiESaIiEEELb0EEEEC2Ev
FN:80,_ZN9__gnu_cxx13new_allocatorIPNSt8__detail15_Hash_node_baseEEC2Ev
FNDA:0,_ZN9__gnu_cxx13new_allocatorIPNSt8__detail15_Hash_node_baseEEC2Ev
FN:80,_ZN9__gnu_cxx13new_allocatorISt4pairIK11NonTerminalSt6vectorIS4_IiSaIiEESaIS6_EEEEC2Ev
FNDA:0,_ZN9__gnu_cxx13new_allocatorISt4pairIK11NonTerminalSt6vectorIS4_IiSaIiEESaIS6_EEEEC2Ev
FN:80,_ZN9__gnu_cxx13new_allocatorISt6vectorIiSaIiEEEC2Ev
FNDA:0,_ZN9__gnu_cxx13new_allocatorISt6vectorIiSaIiEEEC2Ev
FN:83,_ZN9__gnu_cxx13new_allocatorINSt8__detail10_Hash_nodeISt4pairIK11NonTerminalSt6vectorIS6_IiSaIiEESaIS8_EEELb0EEEEC2ERKSD_
FNDA:0,_ZN9__gnu_cxx13new_allocatorINSt8__detail10_Hash_nodeISt4pairIK11NonTerminalSt6vectorIS6_IiSaIiEESaIS8_EEELb0EEEEC2ERKSD_
FN:83,_ZN9__gnu_cxx13new_allocatorIiEC2ERKS1_
FNDA:0,_ZN9__gnu_cxx13new_allocatorIiEC2ERKS1_
FN:83,_ZN9__gnu_cxx13new_allocatorISt6vectorIiSaIiEEEC2ERKS4_
FNDA:0,_ZN9__gnu_cxx13new_allocatorISt6vectorIiSaIiEEEC2ERKS4_
FN:89,_ZN9__gnu_cxx13new_allocatorISt6vectorIiSaIiEEED2Ev
FNDA:0,_ZN9__gnu_cxx13new_allocatorISt6vectorIiSaIiEEED2Ev
FN:89,_ZN9__gnu_cxx13new_allocatorINSt8__detail10_Hash_nodeISt4pairIK11NonTerminalSt6vectorIS6_IiSaIiEESaIS8_EEELb0EEEED2Ev
FNDA:0,_ZN9__gnu_cxx13new_allocatorINSt8__detail10_Hash_nodeISt4pairIK11NonTerminalSt6vectorIS6_IiSaIiEESaIS8_EEELb0EEEED2Ev
FN:89,_ZN9__gnu_cxx13new_allocatorISt4pairIK11NonTerminalSt6vectorIS4_IiSaIiEESaIS6_EEEED2Ev
FNDA:0,_ZN9__gnu_cxx13new_allocatorISt4pairIK11NonTerminalSt6vectorIS4_IiSaIiEESaIS6_EEEED2Ev
FN:89,_ZN9__gnu_cxx13new_allocatorIPNSt8__detail15_Hash_node_baseEED2Ev
FNDA:0,_ZN9__gnu_cxx13new_allocatorIPNSt8__detail15_Hash_node_baseEED2Ev
FN:89,_ZN9__gnu_cxx13new_allocatorISt13_Rb_tree_nodeIiEED2Ev
FNDA:0,_ZN9__gnu_cxx13new_allocatorISt13_Rb_tree_nodeIiEED2Ev
FN:89,_ZN9__gnu_cxx13new_allocatorIiED2Ev
FNDA:0,_ZN9__gnu_cxx13new_allocatorIiED2Ev
FN:89,_ZN9__gnu_cxx13new_allocatorINSt8__detail10_Hash_nodeISt4pairIKiSt3setIiSt4lessIiESaIiEEELb0EEEED2Ev
FNDA:0,_ZN9__gnu_cxx13new_allocatorINSt8__detail10_Hash_nodeISt4pairIKiSt3setIiSt4lessIiESaIiEEELb0EEEED2Ev
FN:102,_ZN9__gnu_cxx13new_allocatorINSt8__detail10_Hash_nodeISt4pairIK11NonTerminalSt6vectorIS6_IiSaIiEESaIS8_EEELb0EEEE8allocateEmPKv
FNDA:0,_ZN9__gnu_cxx13new_allocatorINSt8__detail10_Hash_nodeISt4pairIK11NonTerminalSt6vectorIS6_IiSaIiEESaIS8_EEELb0EEEE8allocateEmPKv
FN:102,_ZN9__gnu_cxx13new_allocatorIiE8allocateEmPKv
FNDA:0,_ZN9__gnu_cxx13new_allocatorIiE8allocateEmPKv
FN:102,_ZN9__gnu_cxx13new_allocatorISt6vectorIiSaIiEEE8allocateEmPKv
FNDA:0,_ZN9__gnu_cxx13new_allocatorISt6vectorIiSaIiEEE8allocateEmPKv
FN:102,_ZN9__gnu_cxx13new_allocatorIPNSt8__detail15_Hash_node_baseEE8allocateEmPKv
FNDA:0,_ZN9__gnu_cxx13new_allocatorIPNSt8__detail15_Hash_node_baseEE8allocateEmPKv
FN:102,_ZN9__gnu_cxx13new_allocatorISt13_Rb_tree_nodeIiEE8allocateEmPKv
FNDA:0,_ZN9__gnu_cxx13new_allocatorISt13_Rb_tree_nodeIiEE8allocateEmPKv
FN:119,_ZN9__gnu_cxx13new_allocatorINSt8__detail10_Hash_nodeISt4pairIK11NonTerminalSt6vectorIS6_IiSaIiEESaIS8_EEELb0EEEE10deallocateEPSC_m
FNDA:0,_ZN9__gnu_cxx13new_allocatorINSt8__detail10_Hash_nodeISt4pairIK11NonTerminalSt6vectorIS6_IiSaIiEESaIS8_EEELb0EEEE10deallocateEPSC_m
FN:119,_ZN9__gnu_cxx13new_allocatorIPNSt8__detail15_Hash_node_baseEE10deallocateEPS3_m
FNDA:0,_ZN9__gnu_cxx13new_allocatorIPNSt8__detail15_Hash_node_baseEE10deallocateEPS3_m
FN:119,_ZN9__gnu_cxx13new_allocatorISt6vectorIiSaIiEEE10deallocateEPS3_m
FNDA:0,_ZN9__gnu_cxx13new_allocatorISt6vectorIiSaIiEEE10deallocateEPS3_m
FN:119,_ZN9__gnu_cxx13new_allocatorISt13_Rb_tree_nodeIiEE10deallocateEPS2_m
FNDA:0,_ZN9__gnu_cxx13new_allocatorISt13_Rb_tree_nodeIiEE10deallocateEPS2_m
FN:119,_ZN9__gnu_cxx13new_allocatorIiE10deallocateEPim
FNDA:0,_ZN9__gnu_cxx13new_allocatorIiE10deallocateEPim
FN:119,_ZN9__gnu_cxx13new_allocatorINSt8__detail10_Hash_nodeISt4pairIKiSt3setIiSt4lessIiESaIiEEELb0EEEE10deallocateEPSB_m
FNDA:0,_ZN9__gnu_cxx13new_allocatorINSt8__detail10_Hash_nodeISt4pairIKiSt3setIiSt4lessIiESaIiEEELb0EEEE10deallocateEPSB_m
FN:132,_ZNK9__gnu_cxx13new_allocatorISt6vectorIiSaIiEEE8max_sizeEv
FNDA:0,_ZNK9__gnu_cxx13new_allocatorISt6vectorIiSaIiEEE8max_sizeEv
FN:132,_ZNK9__gnu_cxx13new_allocatorIiE8max_sizeEv
FNDA:0,_ZNK9__gnu_cxx13new_allocatorIiE8max_sizeEv
FN:132,_ZNK9__gnu_cxx13new_allocatorINSt8__detail10_Hash_nodeISt4pairIK11NonTerminalSt6vectorIS6_IiSaIiEESaIS8_EEELb0EEEE8max_sizeEv
FNDA:0,_ZNK9__gnu_cxx13new_allocatorINSt8__detail10_Hash_nodeISt4pairIK11NonTerminalSt6vectorIS6_IiSaIiEESaIS8_EEELb0EEEE8max_sizeEv
FN:132,_ZNK9__gnu_cxx13new_allocatorIPNSt8__detail15_Hash_node_baseEE8max_sizeEv
FNDA:0,_ZNK9__gnu_cxx13new_allocatorIPNSt8__detail15_Hash_node_baseEE8max_sizeEv
FN:132,_ZNK9__gnu_cxx13new_allocatorISt13_Rb_tree_nodeIiEE8max_sizeEv
FNDA:0,_ZNK9__gnu_cxx13new_allocatorISt13_Rb_tree_nodeIiEE8max_sizeEv
FN:144,_ZN9__gnu_cxx13new_allocatorISt13_Rb_tree_nodeIiEE9constructIiJRKiEEEvPT_DpOT0_
FNDA:0,_ZN9__gnu_cxx13new_allocatorISt13_Rb_tree_nodeIiEE9constructIiJRKiEEEvPT_DpOT0_
FN:144,_ZN9__gnu_cxx13new_allocatorINSt8__detail10_Hash_nodeISt4pairIK11NonTerminalSt6vectorIS6_IiSaIiEESaIS8_EEELb0EEEE9constructISB_JRKSB_EEEvPT_DpOT0_
FNDA:0,_ZN9__gnu_cxx13new_allocatorINSt8__detail10_Hash_nodeISt4pairIK11NonTerminalSt6vectorIS6_IiSaIiEESaIS8_EEELb0EEEE9constructISB_JRKSB_EEEvPT_DpOT0_
FN:150,_ZN9__gnu_cxx13new_allocatorINSt8__detail10_Hash_nodeISt4pairIKiSt3setIiSt4lessIiESaIiEEELb0EEEE7destroyISA_EEvPT_
FNDA:0,_ZN9__gnu_cxx13new_allocatorINSt8__detail10_Hash_nodeISt4pairIKiSt3setIiSt4lessIiESaIiEEELb0EEEE7destroyISA_EEvPT_
FN:150,_ZN9__gnu_cxx13new_allocatorISt13_Rb_tree_nodeIiEE7destroyIiEEvPT_
FNDA:0,_ZN9__gnu_cxx13new_allocatorISt13_Rb_tree_nodeIiEE7destroyIiEEvPT_
FN:150,_ZN9__gnu_cxx13new_allocatorINSt8__detail10_Hash_nodeISt4pairIK11NonTerminalSt6vectorIS6_IiSaIiEESaIS8_EEELb0EEEE7destroyISB_EEvPT_
FNDA:0,_ZN9__gnu_cxx13new_allocatorINSt8__detail10_Hash_nodeISt4pairIK11NonTerminalSt6vectorIS6_IiSaIiEESaIS8_EEELb0EEEE7destroyISB_EEvPT_
DA:80,0
DA:80,0
DA:80,0
DA:80,0
DA:80,0
DA:80,0
DA:80,0
DA:83,0
DA:83,0
DA:83,0
DA:89,0
DA:89,0
DA:89,0
DA:89,0
DA:89,0
DA:89,0
DA:89,0
DA:102,0
DA:104,0
DA:105,0
DA:114,0
DA:102,0
DA:104,0
DA:105,0
DA:114,0
DA:102,0
DA:104,0
DA:105,0
DA:114,0
DA:102,0
DA:104,0
DA:105,0
DA:114,0
DA:102,0
DA:104,0
DA:105,0
DA:114,0
DA:119,0
DA:128,0
DA:129,0
DA:119,0
DA:128,0
DA:129,0
DA:119,0
DA:128,0
DA:129,0
DA:119,0
DA:128,0
DA:129,0
DA:119,0
DA:128,0
DA:129,0
DA:119,0
DA:128,0
DA:129,0
DA:132,0
DA:135,0
DA:132,0
DA:135,0
DA:132,0
DA:135,0
DA:132,0
DA:135,0
DA:132,0
DA:135,0
DA:144,0
DA:146,0
DA:144,0
DA:146,0
DA:150,0
DA:152,0
DA:150,0
DA:152,0
DA:150,0
DA:152,0
end_of_record
SF:/usr/include/c++/9/bits/cpp_type_traits.h
FN:428,_ZSt12__miter_baseIN9__gnu_cxx17__normal_iteratorIPKiSt6vectorIiSaIiEEEEET_S8_
FNDA:0,_ZSt12__miter_baseIN9__gnu_cxx17__normal_iteratorIPKiSt6vectorIiSaIiEEEEET_S8_
FN:428,_ZSt12__miter_baseIPKiET_S2_
FNDA:0,_ZSt12__miter_baseIPKiET_S2_
DA:428,0
DA:429,0
DA:428,0
DA:429,0
end_of_record
SF:/usr/include/c++/9/utility
FN:174,_ZNSt10__pair_getILm0EE5__getIKiSt3setIiSt4lessIiESaIiEEEERT_RSt4pairIS8_T0_E
FNDA:0,_ZNSt10__pair_getILm0EE5__getIKiSt3setIiSt4lessIiESaIiEEEERT_RSt4pairIS8_T0_E
FN:174,_ZNSt10__pair_getILm0EE5__getIK11NonTerminalSt6vectorIS4_IiSaIiEESaIS6_EEEERT_RSt4pairIS9_T0_E
FNDA:0,_ZNSt10__pair_getILm0EE5__getIK11NonTerminalSt6vectorIS4_IiSaIiEESaIS6_EEEERT_RSt4pairIS9_T0_E
FN:184,_ZNSt10__pair_getILm0EE11__const_getIKiSt3setIiSt4lessIiESaIiEEEERKT_RKSt4pairIS8_T0_E
FNDA:0,_ZNSt10__pair_getILm0EE11__const_getIKiSt3setIiSt4lessIiESaIiEEEERKT_RKSt4pairIS8_T0_E
FN:184,_ZNSt10__pair_getILm0EE11__const_getIK11NonTerminalSt6vectorIS4_IiSaIiEESaIS6_EEEERKT_RKSt4pairIS9_T0_E
FNDA:0,_ZNSt10__pair_getILm0EE11__const_getIK11NonTerminalSt6vectorIS4_IiSaIiEESaIS6_EEEERKT_RKSt4pairIS9_T0_E
FN:219,_ZSt3getILm0EKiSt3setIiSt4lessIiESaIiEEERNSt13tuple_elementIXT_ESt4pairIT0_T1_EE4typeERSA_
FNDA:0,_ZSt3getILm0EKiSt3setIiSt4lessIiESaIiEEERNSt13tuple_elementIXT_ESt4pairIT0_T1_EE4typeERSA_
FN:219,_ZSt3getILm0EK11NonTerminalSt6vectorIS2_IiSaIiEESaIS4_EEERNSt13tuple_elementIXT_ESt4pairIT0_T1_EE4typeERSB_
FNDA:0,_ZSt3getILm0EK11NonTerminalSt6vectorIS2_IiSaIiEESaIS4_EEERNSt13tuple_elementIXT_ESt4pairIT0_T1_EE4typeERSB_
FN:229,_ZSt3getILm0EKiSt3setIiSt4lessIiESaIiEEERKNSt13tuple_elementIXT_ESt4pairIT0_T1_EE4typeERKSA_
FNDA:0,_ZSt3getILm0EKiSt3setIiSt4lessIiESaIiEEERKNSt13tuple_elementIXT_ESt4pairIT0_T1_EE4typeERKSA_
FN:229,_ZSt3getILm0EK11NonTerminalSt6vectorIS2_IiSaIiEESaIS4_EEERKNSt13tuple_elementIXT_ESt4pairIT0_T1_EE4typeERKSB_
FNDA:0,_ZSt3getILm0EK11NonTerminalSt6vectorIS2_IiSaIiEESaIS4_EEERKNSt13tuple_elementIXT_ESt4pairIT0_T1_EE4typeERKSB_
DA:174,0
DA:175,0
DA:174,0
DA:175,0
DA:184,0
DA:185,0
DA:184,0
DA:185,0
DA:219,0
DA:220,0
DA:219,0
DA:220,0
DA:229,0
DA:230,0
DA:229,0
DA:230,0
end_of_record
SF:/usr/include/c++/9/bits/stl_iterator.h
FN:803,_ZN9__gnu_cxx17__normal_iteratorIPKSt6vectorIiSaIiEES1_IS3_SaIS3_EEEC2ERKS5_
FNDA:0,_ZN9__gnu_cxx17__normal_iteratorIPKSt6vectorIiSaIiEES1_IS3_SaIS3_EEEC2ERKS5_
FN:803,_ZN9__gnu_cxx17__normal_iteratorIPKiSt6vectorIiSaIiEEEC2ERKS2_
FNDA:0,_ZN9__gnu_cxx17__normal_iteratorIPKiSt6vectorIiSaIiEEEC2ERKS2_
FN:816,_ZNK9__gnu_cxx17__normal_iteratorIPKSt6vectorIiSaIiEES1_IS3_SaIS3_EEEdeEv
FNDA:0,_ZNK9__gnu_cxx17__normal_iteratorIPKSt6vectorIiSaIiEES1_IS3_SaIS3_EEEdeEv
FN:816,_ZNK9__gnu_cxx17__normal_iteratorIPKiSt6vectorIiSaIiEEEdeEv
FNDA:0,_ZNK9__gnu_cxx17__normal_iteratorIPKiSt6vectorIiSaIiEEEdeEv
FN:824,_ZN9__gnu_cxx17__normal_iteratorIPKSt6vectorIiSaIiEES1_IS3_SaIS3_EEEppEv
FNDA:0,_ZN9__gnu_cxx17__normal_iteratorIPKSt6vectorIiSaIiEES1_IS3_SaIS3_EEEppEv
FN:824,_ZN9__gnu_cxx17__normal_iteratorIPKiSt6vectorIiSaIiEEEppEv
FNDA:0,_ZN9__gnu_cxx17__normal_iteratorIPKiSt6vectorIiSaIiEEEppEv
FN:868,_ZNK9__gnu_cxx17__normal_iteratorIPKSt6vectorIiSaIiEES1_IS3_SaIS3_EEE4baseEv
FNDA:0,_ZNK9__gnu_cxx17__normal_iteratorIPKSt6vectorIiSaIiEES1_IS3_SaIS3_EEE4baseEv
FN:868,_ZNK9__gnu_cxx17__normal_iteratorIPKiSt6vectorIiSaIiEEE4baseEv
FNDA:0,_ZNK9__gnu_cxx17__normal_iteratorIPKiSt6vectorIiSaIiEEE4baseEv
FN:904,_ZN9__gnu_cxxneIPKSt6vectorIiSaIiEES1_IS3_SaIS3_EEEEbRKNS_17__normal_iteratorIT_T0_EESD_
FNDA:0,_ZN9__gnu_cxxneIPKSt6vectorIiSaIiEES1_IS3_SaIS3_EEEEbRKNS_17__normal_iteratorIT_T0_EESD_
FN:904,_ZN9__gnu_cxxneIPKiSt6vectorIiSaIiEEEEbRKNS_17__normal_iteratorIT_T0_EESB_
FNDA:0,_ZN9__gnu_cxxneIPKiSt6vectorIiSaIiEEEEbRKNS_17__normal_iteratorIT_T0_EESB_
FN:1007,_ZSt12__niter_baseIPKiSt6vectorIiSaIiEEET_N9__gnu_cxx17__normal_iteratorIS5_T0_EE
FNDA:0,_ZSt12__niter_baseIPKiSt6vectorIiSaIiEEET_N9__gnu_cxx17__normal_iteratorIS5_T0_EE
DA:803,0
DA:804,0
DA:803,0
DA:804,0
DA:816,0
DA:817,0
DA:816,0
DA:817,0
DA:824,0
DA:826,0
DA:827,0
DA:824,0
DA:826,0
DA:827,0
DA:868,0
DA:869,0
DA:868,0
DA:869,0
DA:904,0
DA:907,0
DA:904,0
DA:907,0
DA:1007,0
DA:1009,0
end_of_record
SF:/usr/include/c++/9/initializer_list
FN:71,_ZNKSt16initializer_listISt4pairIK11NonTerminalSt6vectorIS3_IiSaIiEESaIS5_EEEE4sizeEv
FNDA:0,_ZNKSt16initializer_listISt4pairIK11NonTerminalSt6vectorIS3_IiSaIiEESaIS5_EEEE4sizeEv
FN:71,_ZNKSt16initializer_listISt6vectorIiSaIiEEE4sizeEv
FNDA:0,_ZNKSt16initializer_listISt6vectorIiSaIiEEE4sizeEv
FN:71,_ZNKSt16initializer_listIiE4sizeEv
FNDA:0,_ZNKSt16initializer_listIiE4sizeEv
FN:75,_ZNKSt16initializer_listISt4pairIK11NonTerminalSt6vectorIS3_IiSaIiEESaIS5_EEEE5beginEv
FNDA:0,_ZNKSt16initializer_listISt4pairIK11NonTerminalSt6vectorIS3_IiSaIiEESaIS5_EEEE5beginEv
FN:75,_ZNKSt16initializer_listISt6vectorIiSaIiEEE5beginEv
FNDA:0,_ZNKSt16initializer_listISt6vectorIiSaIiEEE5beginEv
FN:75,_ZNKSt16initializer_listIiE5beginEv
FNDA:0,_ZNKSt16initializer_listIiE5beginEv
FN:79,_ZNKSt16initializer_listISt4pairIK11NonTerminalSt6vectorIS3_IiSaIiEESaIS5_EEEE3endEv
FNDA:0,_ZNKSt16initializer_listISt4pairIK11NonTerminalSt6vectorIS3_IiSaIiEESaIS5_EEEE3endEv
FN:79,_ZNKSt16initializer_listISt6vectorIiSaIiEEE3endEv
FNDA:0,_ZNKSt16initializer_listISt6vectorIiSaIiEEE3endEv
FN:79,_ZNKSt16initializer_listIiE3endEv
FNDA:0,_ZNKSt16initializer_listIiE3endEv
DA:71,0
DA:71,0
DA:71,0
DA:75,0
DA:75,0
DA:75,0
DA:79,0
DA:79,0
DA:79,0
end_of_record
SF:/usr/include/c++/9/bits/stl_tree.h
FN:112,_ZNSt18_Rb_tree_node_base10_S_minimumEPS_
FNDA:0,_ZNSt18_Rb_tree_node_base10_S_minimumEPS_
FN:126,_ZNSt18_Rb_tree_node_base10_S_maximumEPS_
FNDA:0,_ZNSt18_Rb_tree_node_base10_S_maximumEPS_
FN:146,_ZNSt20_Rb_tree_key_compareISt4lessIiEEC2Ev
FNDA:0,_ZNSt20_Rb_tree_key_compareISt4lessIiEEC2Ev
FN:173,_ZNSt15_Rb_tree_headerC2Ev
FNDA:0,_ZNSt15_Rb_tree_headerC2Ev
FN:206,_ZNSt15_Rb_tree_header8_M_resetEv
FNDA:0,_ZNSt15_Rb_tree_header8_M_resetEv
FN:234,_ZNSt13_Rb_tree_nodeIiE9_M_valptrEv
FNDA:0,_ZNSt13_Rb_tree_nodeIiE9_M_valptrEv
FN:238,_ZNKSt13_Rb_tree_nodeIiE9_M_valptrEv
FNDA:0,_ZNKSt13_Rb_tree_nodeIiE9_M_valptrEv
FN:273,_ZNSt17_Rb_tree_iteratorIiEC2EPSt18_Rb_tree_node_base
FNDA:0,_ZNSt17_Rb_tree_iteratorIiEC2EPSt18_Rb_tree_node_base
FN:300,_ZNSt17_Rb_tree_iteratorIiEmmEv
FNDA:0,_ZNSt17_Rb_tree_iteratorIiEmmEv
FN:315,_ZSteqRKSt17_Rb_tree_iteratorIiES2_
FNDA:0,_ZSteqRKSt17_Rb_tree_iteratorIiES2_
FN:345,_ZNSt23_Rb_tree_const_iteratorIiEC2EPKSt18_Rb_tree_node_base
FNDA:0,_ZNSt23_Rb_tree_const_iteratorIiEC2EPKSt18_Rb_tree_node_base
FN:348,_ZNSt23_Rb_tree_const_iteratorIiEC2ERKSt17_Rb_tree_iteratorIiE
FNDA:0,_ZNSt23_Rb_tree_const_iteratorIiEC2ERKSt17_Rb_tree_iteratorIiE
FN:356,_ZNKSt23_Rb_tree_const_iteratorIiEdeEv
FNDA:0,_ZNKSt23_Rb_tree_const_iteratorIiEdeEv
FN:364,_ZNSt23_Rb_tree_const_iteratorIiEppEv
FNDA:0,_ZNSt23_Rb_tree_const_iteratorIiEppEv
FN:394,_ZSteqRKSt23_Rb_tree_const_iteratorIiES2_
FNDA:0,_ZSteqRKSt23_Rb_tree_const_iteratorIiES2_
FN:398,_ZStneRKSt23_Rb_tree_const_iteratorIiES2_
FNDA:0,_ZStneRKSt23_Rb_tree_const_iteratorIiES2_
FN:454,_ZNSt8_Rb_treeIiiSt9_IdentityIiESt4lessIiESaIiEE20_Reuse_or_alloc_nodeC2ERS5_
FNDA:0,_ZNSt8_Rb_treeIiiSt9_IdentityIiESt4lessIiESaIiEE20_Reuse_or_alloc_nodeC2ERS5_
FN:472,_ZNSt8_Rb_treeIiiSt9_IdentityIiESt4lessIiESaIiEE20_Reuse_or_alloc_nodeD2Ev
FNDA:0,_ZNSt8_Rb_treeIiiSt9_IdentityIiESt4lessIiESaIiEE20_Reuse_or_alloc_nodeD2Ev
FN:480,_ZNSt8_Rb_treeIiiSt9_IdentityIiESt4lessIiESaIiEE20_Reuse_or_alloc_nodeclIRKiEEPSt13_Rb_tree_nodeIiEOT_
FNDA:0,_ZNSt8_Rb_treeIiiSt9_IdentityIiESt4lessIiESaIiEE20_Reuse_or_alloc_nodeclIRKiEEPSt13_Rb_tree_nodeIiEOT_
FN:496,_ZNSt8_Rb_treeIiiSt9_IdentityIiESt4lessIiESaIiEE20_Reuse_or_alloc_node10_M_extractEv
FNDA:0,_ZNSt8_Rb_treeIiiSt9_IdentityIiESt4lessIiESaIiEE20_Reuse_or_alloc_node10_M_extractEv
FN:538,_ZNSt8_Rb_treeIiiSt9_IdentityIiESt4lessIiESaIiEE11_Alloc_nodeC2ERS5_
FNDA:0,_ZNSt8_Rb_treeIiiSt9_IdentityIiESt4lessIiESaIiEE11_Alloc_nodeC2ERS5_
FN:546,_ZNKSt8_Rb_treeIiiSt9_IdentityIiESt4lessIiESaIiEE11_Alloc_nodeclIRKiEEPSt13_Rb_tree_nodeIiEOT_
FNDA:0,_ZNKSt8_Rb_treeIiiSt9_IdentityIiESt4lessIiESaIiEE11_Alloc_nodeclIRKiEEPSt13_Rb_tree_nodeIiEOT_
FN:566,_ZNSt8_Rb_treeIiiSt9_IdentityIiESt4lessIiESaIiEE21_M_get_Node_allocatorEv
FNDA:0,_ZNSt8_Rb_treeIiiSt9_IdentityIiESt4lessIiESaIiEE21_M_get_Node_allocatorEv
FN:570,_ZNKSt8_Rb_treeIiiSt9_IdentityIiESt4lessIiESaIiEE21_M_get_Node_allocatorEv
FNDA:0,_ZNKSt8_Rb_treeIiiSt9_IdentityIiESt4lessIiESaIiEE21_M_get_Node_allocatorEv
FN:579,_ZNSt8_Rb_treeIiiSt9_IdentityIiESt4lessIiESaIiEE11_M_get_nodeEv
FNDA:0,_ZNSt8_Rb_treeIiiSt9_IdentityIiESt4lessIiESaIiEE11_M_get_nodeEv
FN:583,_ZNSt8_Rb_treeIiiSt9_IdentityIiESt4lessIiESaIiEE11_M_put_nodeEPSt13_Rb_tree_nodeIiE
FNDA:0,_ZNSt8_Rb_treeIiiSt9_IdentityIiESt4lessIiESaIiEE11_M_put_nodeEPSt13_Rb_tree_nodeIiE
FN:609,_ZNSt8_Rb_treeIiiSt9_IdentityIiESt4lessIiESaIiEE17_M_construct_nodeIJRKiEEEvPSt13_Rb_tree_nodeIiEDpOT_
FNDA:0,_ZNSt8_Rb_treeIiiSt9_IdentityIiESt4lessIiESaIiEE17_M_construct_nodeIJRKiEEEvPSt13_Rb_tree_nodeIiEDpOT_
FN:628,_ZNSt8_Rb_treeIiiSt9_IdentityIiESt4lessIiESaIiEE14_M_create_nodeIJRKiEEEPSt13_Rb_tree_nodeIiEDpOT_
FNDA:0,_ZNSt8_Rb_treeIiiSt9_IdentityIiESt4lessIiESaIiEE14_M_create_nodeIJRKiEEEPSt13_Rb_tree_nodeIiEDpOT_
FN:637,_ZNSt8_Rb_treeIiiSt9_IdentityIiESt4lessIiESaIiEE15_M_destroy_nodeEPSt13_Rb_tree_nodeIiE
FNDA:0,_ZNSt8_Rb_treeIiiSt9_IdentityIiESt4lessIiESaIiEE15_M_destroy_nodeEPSt13_Rb_tree_nodeIiE
FN:648,_ZNSt8_Rb_treeIiiSt9_IdentityIiESt4lessIiESaIiEE12_M_drop_nodeEPSt13_Rb_tree_nodeIiE
FNDA:0,_ZNSt8_Rb_treeIiiSt9_IdentityIiESt4lessIiESaIiEE12_M_drop_nodeEPSt13_Rb_tree_nodeIiE
FN:656,_ZNSt8_Rb_treeIiiSt9_IdentityIiESt4lessIiESaIiEE13_M_clone_nodeINS5_20_Reuse_or_alloc_nodeEEEPSt13_Rb_tree_nodeIiEPKS9_RT_
FNDA:0,_ZNSt8_Rb_treeIiiSt9_IdentityIiESt4lessIiESaIiEE13_M_clone_nodeINS5_20_Reuse_or_alloc_nodeEEEPSt13_Rb_tree_nodeIiEPKS9_RT_
FN:680,_ZNSt8_Rb_treeIiiSt9_IdentityIiESt4lessIiESaIiEE13_Rb_tree_implIS3_Lb1EEC2Ev
FNDA:0,_ZNSt8_Rb_treeIiiSt9_IdentityIiESt4lessIiESaIiEE13_Rb_tree_implIS3_Lb1EEC2Ev
FN:725,_ZNSt8_Rb_treeIiiSt9_IdentityIiESt4lessIiESaIiEE7_M_rootEv
FNDA:0,_ZNSt8_Rb_treeIiiSt9_IdentityIiESt4lessIiESaIiEE7_M_rootEv
FN:729,_ZNKSt8_Rb_treeIiiSt9_IdentityIiESt4lessIiESaIiEE7_M_rootEv
FNDA:0,_ZNKSt8_Rb_treeIiiSt9_IdentityIiESt4lessIiESaIiEE7_M_rootEv
FN:733,_ZNSt8_Rb_treeIiiSt9_IdentityIiESt4lessIiESaIiEE11_M_leftmostEv
FNDA:0,_ZNSt8_Rb_treeIiiSt9_IdentityIiESt4lessIiESaIiEE11_M_leftmostEv
FN:741,_ZNSt8_Rb_treeIiiSt9_IdentityIiESt4lessIiESaIiEE12_M_rightmostEv
FNDA:0,_ZNSt8_Rb_treeIiiSt9_IdentityIiESt4lessIiESaIiEE12_M_rightmostEv
FN:749,_ZNSt8_Rb_treeIiiSt9_IdentityIiESt4lessIiESaIiEE8_M_beginEv
FNDA:0,_ZNSt8_Rb_treeIiiSt9_IdentityIiESt4lessIiESaIiEE8_M_beginEv
FN:753,_ZNKSt8_Rb_treeIiiSt9_IdentityIiESt4lessIiESaIiEE8_M_beginEv
FNDA:0,_ZNKSt8_Rb_treeIiiSt9_IdentityIiESt4lessIiESaIiEE8_M_beginEv
FN:760,_ZNSt8_Rb_treeIiiSt9_IdentityIiESt4lessIiESaIiEE6_M_endEv
FNDA:0,_ZNSt8_Rb_treeIiiSt9_IdentityIiESt4lessIiESaIiEE6_M_endEv
FN:764,_ZNKSt8_Rb_treeIiiSt9_IdentityIiESt4lessIiESaIiEE6_M_endEv
FNDA:0,_ZNKSt8_Rb_treeIiiSt9_IdentityIiESt4lessIiESaIiEE6_M_endEv
FN:772,_ZNSt8_Rb_treeIiiSt9_IdentityIiESt4lessIiESaIiEE6_S_keyEPKSt13_Rb_tree_nodeIiE
FNDA:0,_ZNSt8_Rb_treeIiiSt9_IdentityIiESt4lessIiESaIiEE6_S_keyEPKSt13_Rb_tree_nodeIiE
FN:794,_ZNSt8_Rb_treeIiiSt9_IdentityIiESt4lessIiESaIiEE7_S_leftEPSt18_Rb_tree_node_base
FNDA:0,_ZNSt8_Rb_treeIiiSt9_IdentityIiESt4lessIiESaIiEE7_S_leftEPSt18_Rb_tree_node_base
FN:798,_ZNSt8_Rb_treeIiiSt9_IdentityIiESt4lessIiESaIiEE7_S_leftEPKSt18_Rb_tree_node_base
FNDA:0,_ZNSt8_Rb_treeIiiSt9_IdentityIiESt4lessIiESaIiEE7_S_leftEPKSt18_Rb_tree_node_base
FN:802,_ZNSt8_Rb_treeIiiSt9_IdentityIiESt4lessIiESaIiEE8_S_rightEPSt18_Rb_tree_node_base
FNDA:0,_ZNSt8_Rb_treeIiiSt9_IdentityIiESt4lessIiESaIiEE8_S_rightEPSt18_Rb_tree_node_base
FN:806,_ZNSt8_Rb_treeIiiSt9_IdentityIiESt4lessIiESaIiEE8_S_rightEPKSt18_Rb_tree_node_base
FNDA:0,_ZNSt8_Rb_treeIiiSt9_IdentityIiESt4lessIiESaIiEE8_S_rightEPKSt18_Rb_tree_node_base
FN:814,_ZNSt8_Rb_treeIiiSt9_IdentityIiESt4lessIiESaIiEE6_S_keyEPKSt18_Rb_tree_node_base
FNDA:0,_ZNSt8_Rb_treeIiiSt9_IdentityIiESt4lessIiESaIiEE6_S_keyEPKSt18_Rb_tree_node_base
FN:818,_ZNSt8_Rb_treeIiiSt9_IdentityIiESt4lessIiESaIiEE10_S_minimumEPSt18_Rb_tree_node_base
FNDA:0,_ZNSt8_Rb_treeIiiSt9_IdentityIiESt4lessIiESaIiEE10_S_minimumEPSt18_Rb_tree_node_base
FN:826,_ZNSt8_Rb_treeIiiSt9_IdentityIiESt4lessIiESaIiEE10_S_maximumEPSt18_Rb_tree_node_base
FNDA:0,_ZNSt8_Rb_treeIiiSt9_IdentityIiESt4lessIiESaIiEE10_S_maximumEPSt18_Rb_tree_node_base
FN:904,_ZNSt8_Rb_treeIiiSt9_IdentityIiESt4lessIiESaIiEE7_M_copyINS5_20_Reuse_or_alloc_nodeEEEPSt13_Rb_tree_nodeIiERKS5_RT_
FNDA:0,_ZNSt8_Rb_treeIiiSt9_IdentityIiESt4lessIiESaIiEE7_M_copyINS5_20_Reuse_or_alloc_nodeEEEPSt13_Rb_tree_nodeIiERKS5_RT_
FN:944,_ZNSt8_Rb_treeIiiSt9_IdentityIiESt4lessIiESaIiEEC2Ev
FNDA:0,_ZNSt8_Rb_treeIiiSt9_IdentityIiESt4lessIiESaIiEEC2Ev
FN:999,_ZNSt8_Rb_treeIiiSt9_IdentityIiESt4lessIiESaIiEED2Ev
FNDA:0,_ZNSt8_Rb_treeIiiSt9_IdentityIiESt4lessIiESaIiEED2Ev
FN:1011,_ZNSt8_Rb_treeIiiSt9_IdentityIiESt4lessIiESaIiEE5beginEv
FNDA:0,_ZNSt8_Rb_treeIiiSt9_IdentityIiESt4lessIiESaIiEE5beginEv
FN:1015,_ZNKSt8_Rb_treeIiiSt9_IdentityIiESt4lessIiESaIiEE5beginEv
FNDA:0,_ZNKSt8_Rb_treeIiiSt9_IdentityIiESt4lessIiESaIiEE5beginEv
FN:1023,_ZNKSt8_Rb_treeIiiSt9_IdentityIiESt4lessIiESaIiEE3endEv
FNDA:0,_ZNKSt8_Rb_treeIiiSt9_IdentityIiESt4lessIiESaIiEE3endEv
FN:1269,_ZNSt8_Rb_treeIiiSt9_IdentityIiESt4lessIiESaIiEE5clearEv
FNDA:0,_ZNSt8_Rb_treeIiiSt9_IdentityIiESt4lessIiESaIiEE5clearEv
FN:1762,_ZNSt8_Rb_treeIiiSt9_IdentityIiESt4lessIiESaIiEEaSERKS5_
FNDA:0,_ZNSt8_Rb_treeIiiSt9_IdentityIiESt4lessIiESaIiEEaSERKS5_
FN:1802,_ZNSt8_Rb_treeIiiSt9_IdentityIiESt4lessIiESaIiEE10_M_insert_IRKiNS5_11_Alloc_nodeEEESt17_Rb_tree_iteratorIiEPSt18_Rb_tree_node_baseSD_OT_RT0_
FNDA:0,_ZNSt8_Rb_treeIiiSt9_IdentityIiESt4lessIiESaIiEE10_M_insert_IRKiNS5_11_Alloc_nodeEEESt17_Rb_tree_iteratorIiEPSt18_Rb_tree_node_baseSD_OT_RT0_
FN:1876,_ZNSt8_Rb_treeIiiSt9_IdentityIiESt4lessIiESaIiEE7_M_copyINS5_20_Reuse_or_alloc_nodeEEEPSt13_Rb_tree_nodeIiEPKS9_PSt18_Rb_tree_node_baseRT_
FNDA:0,_ZNSt8_Rb_treeIiiSt9_IdentityIiESt4lessIiESaIiEE7_M_copyINS5_20_Reuse_or_alloc_nodeEEEPSt13_Rb_tree_nodeIiEPKS9_PSt18_Rb_tree_node_baseRT_
FN:1912,_ZNSt8_Rb_treeIiiSt9_IdentityIiESt4lessIiESaIiEE8_M_eraseEPSt13_Rb_tree_nodeIiE
FNDA:0,_ZNSt8_Rb_treeIiiSt9_IdentityIiESt4lessIiESaIiEE8_M_eraseEPSt13_Rb_tree_nodeIiE
FN:1945,_ZNKSt8_Rb_treeIiiSt9_IdentityIiESt4lessIiESaIiEE14_M_lower_boundEPKSt13_Rb_tree_nodeIiEPKSt18_Rb_tree_node_baseRKi
FNDA:0,_ZNKSt8_Rb_treeIiiSt9_IdentityIiESt4lessIiESaIiEE14_M_lower_boundEPKSt13_Rb_tree_nodeIiEPKSt18_Rb_tree_node_baseRKi
FN:2090,_ZNSt8_Rb_treeIiiSt9_IdentityIiESt4lessIiESaIiEE24_M_get_insert_unique_posERKi
FNDA:0,_ZNSt8_Rb_treeIiiSt9_IdentityIiESt4lessIiESaIiEE24_M_get_insert_unique_posERKi
FN:2144,_ZNSt8_Rb_treeIiiSt9_IdentityIiESt4lessIiESaIiEE16_M_insert_uniqueIRKiEESt4pairISt17_Rb_tree_iteratorIiEbEOT_
FNDA:0,_ZNSt8_Rb_treeIiiSt9_IdentityIiESt4lessIiESaIiEE16_M_insert_uniqueIRKiEESt4pairISt17_Rb_tree_iteratorIiEbEOT_
FN:2572,_ZNKSt8_Rb_treeIiiSt9_IdentityIiESt4lessIiESaIiEE4findERKi
FNDA:0,_ZNKSt8_Rb_treeIiiSt9_IdentityIiESt4lessIiESaIiEE4findERKi
DA:112,0
DA:114,0
DA:115,0
DA:126,0
DA:128,0
DA:129,0
DA:146,0
DA:150,0
DA:173,0
DA:174,0
DA:175,0
DA:176,0
DA:177,0
DA:206,0
DA:208,0
DA:209,0
DA:210,0
DA:211,0
DA:212,0
DA:234,0
DA:235,0
DA:238,0
DA:239,0
DA:273,0
DA:274,0
DA:300,0
DA:302,0
DA:303,0
DA:315,0
DA:316,0
DA:345,0
DA:346,0
DA:348,0
DA:349,0
DA:356,0
DA:357,0
DA:364,0
DA:366,0
DA:367,0
DA:394,0
DA:395,0
DA:398,0
DA:399,0
DA:454,0
DA:455,0
DA:457,0
DA:459,0
DA:461,0
DA:462,0
DA:465,0
DA:466,0
DA:472,0
DA:473,0
DA:480,0
DA:483,0
DA:484,0
DA:486,0
DA:487,0
DA:488,0
DA:491,0
DA:496,0
DA:498,0
DA:499,0
DA:501,0
DA:502,0
DA:503,0
DA:505,0
DA:507,0
DA:509,0
DA:511,0
DA:513,0
DA:514,0
DA:516,0
DA:517,0
DA:521,0
DA:524,0
DA:526,0
DA:538,0
DA:539,0
DA:546,0
DA:548,0
DA:566,0
DA:567,0
DA:570,0
DA:571,0
DA:579,0
DA:580,0
DA:583,0
DA:584,0
DA:609,0
DA:613,0
DA:614,0
DA:624,0
DA:628,0
DA:630,0
DA:631,0
DA:632,0
DA:637,0
DA:642,0
DA:643,0
DA:645,0
DA:648,0
DA:650,0
DA:651,0
DA:652,0
DA:656,0
DA:658,0
DA:659,0
DA:660,0
DA:661,0
DA:662,0
DA:680,0
DA:684,0
DA:685,0
DA:725,0
DA:726,0
DA:729,0
DA:730,0
DA:733,0
DA:734,0
DA:741,0
DA:742,0
DA:749,0
DA:750,0
DA:753,0
DA:756,0
DA:760,0
DA:761,0
DA:764,0
DA:765,0
DA:772,0
DA:790,0
DA:794,0
DA:795,0
DA:798,0
DA:799,0
DA:802,0
DA:803,0
DA:806,0
DA:807,0
DA:814,0
DA:815,0
DA:818,0
DA:819,0
DA:826,0
DA:827,0
DA:904,0
DA:906,0
DA:907,0
DA:908,0
DA:909,0
DA:910,0
DA:944,0
DA:999,0
DA:1000,0
DA:1011,0
DA:1012,0
DA:1015,0
DA:1016,0
DA:1023,0
DA:1024,0
DA:1269,0
DA:1271,0
DA:1272,0
DA:1273,0
DA:1762,0
DA:1765,0
DA:1769,0
DA:1771,0
DA:1772,0
DA:1773,0
DA:1774,0
DA:1778,0
DA:1779,0
DA:1784,0
DA:1785,0
DA:1787,0
DA:1788,0
DA:1791,0
DA:1802,0
DA:1811,0
DA:1812,0
DA:1815,0
DA:1817,0
DA:1818,0
DA:1819,0
DA:1820,0
DA:1876,0
DA:1880,0
DA:1881,0
DA:1885,0
DA:1886,0
DA:1887,0
DA:1888,0
DA:1890,0
DA:1892,0
DA:1893,0
DA:1894,0
DA:1895,0
DA:1896,0
DA:1897,0
DA:1898,0
DA:1901,0
DA:1903,0
DA:1904,0
DA:1906,0
DA:1912,0
DA:1916,0
DA:1918,0
DA:1919,0
DA:1920,0
DA:1921,0
DA:1923,0
DA:1945,0
DA:1949,0
DA:1950,0
DA:1951,0
DA:1953,0
DA:1954,0
DA:2090,0
DA:2094,0
DA:2095,0
DA:2096,0
DA:2097,0
DA:2099,0
DA:2100,0
DA:2101,0
DA:2103,0
DA:2104,0
DA:2106,0
DA:2107,0
DA:2109,0
DA:2111,0
DA:2112,0
DA:2113,0
DA:2144,0
DA:2152,0
DA:2153,0
DA:2155,0
DA:2157,0
DA:2158,0
DA:2160,0
DA:2163,0
DA:2572,0
DA:2575,0
DA:2576,0
DA:2577,0
DA:2578,0
end_of_record
SF:/usr/include/c++/9/bits/stl_uninitialized.h
FN:76,_ZNSt20__uninitialized_copyILb0EE13__uninit_copyIN9__gnu_cxx17__normal_iteratorIPKSt6vectorIiSaIiEES4_IS6_SaIS6_EEEEPS6_EET0_T_SE_SD_
FNDA:0,_ZNSt20__uninitialized_copyILb0EE13__uninit_copyIN9__gnu_cxx17__normal_iteratorIPKSt6vectorIiSaIiEES4_IS6_SaIS6_EEEEPS6_EET0_T_SE_SD_
FN:76,_ZNSt20__uninitialized_copyILb0EE13__uninit_copyIPKSt6vectorIiSaIiEEPS4_EET0_T_S9_S8_
FNDA:0,_ZNSt20__uninitialized_copyILb0EE13__uninit_copyIPKSt6vectorIiSaIiEEPS4_EET0_T_S9_S8_
FN:99,_ZNSt20__uninitialized_copyILb1EE13__uninit_copyIN9__gnu_cxx17__normal_iteratorIPKiSt6vectorIiSaIiEEEEPiEET0_T_SC_SB_
FNDA:0,_ZNSt20__uninitialized_copyILb1EE13__uninit_copyIN9__gnu_cxx17__normal_iteratorIPKiSt6vectorIiSaIiEEEEPiEET0_T_SC_SB_
FN:99,_ZNSt20__uninitialized_copyILb1EE13__uninit_copyIPKiPiEET0_T_S6_S5_
FNDA:0,_ZNSt20__uninitialized_copyILb1EE13__uninit_copyIPKiPiEET0_T_S6_S5_
FN:115,_ZSt18uninitialized_copyIN9__gnu_cxx17__normal_iteratorIPKiSt6vectorIiSaIiEEEEPiET0_T_SA_S9_
FNDA:0,_ZSt18uninitialized_copyIN9__gnu_cxx17__normal_iteratorIPKiSt6vectorIiSaIiEEEEPiET0_T_SA_S9_
FN:115,_ZSt18uninitialized_copyIN9__gnu_cxx17__normal_iteratorIPKSt6vectorIiSaIiEES2_IS4_SaIS4_EEEEPS4_ET0_T_SC_SB_
FNDA:0,_ZSt18uninitialized_copyIN9__gnu_cxx17__normal_iteratorIPKSt6vectorIiSaIiEES2_IS4_SaIS4_EEEEPS4_ET0_T_SC_SB_
FN:115,_ZSt18uninitialized_copyIPKSt6vectorIiSaIiEEPS2_ET0_T_S7_S6_
FNDA:0,_ZSt18uninitialized_copyIPKSt6vectorIiSaIiEEPS2_ET0_T_S7_S6_
FN:115,_ZSt18uninitialized_copyIPKiPiET0_T_S4_S3_
FNDA:0,_ZSt18uninitialized_copyIPKiPiET0_T_S4_S3_
FN:305,_ZSt22__uninitialized_copy_aIN9__gnu_cxx17__normal_iteratorIPKiSt6vectorIiSaIiEEEEPiiET0_T_SA_S9_RSaIT1_E
FNDA:0,_ZSt22__uninitialized_copy_aIN9__gnu_cxx17__normal_iteratorIPKiSt6vectorIiSaIiEEEEPiiET0_T_SA_S9_RSaIT1_E
FN:305,_ZSt22__uninitialized_copy_aIN9__gnu_cxx17__normal_iteratorIPKSt6vectorIiSaIiEES2_IS4_SaIS4_EEEEPS4_S4_ET0_T_SC_SB_RSaIT1_E
FNDA:0,_ZSt22__uninitialized_copy_aIN9__gnu_cxx17__normal_iteratorIPKSt6vectorIiSaIiEES2_IS4_SaIS4_EEEEPS4_S4_ET0_T_SC_SB_RSaIT1_E
FN:305,_ZSt22__uninitialized_copy_aIPKSt6vectorIiSaIiEEPS2_S2_ET0_T_S7_S6_RSaIT1_E
FNDA:0,_ZSt22__uninitialized_copy_aIPKSt6vectorIiSaIiEEPS2_S2_ET0_T_S7_S6_RSaIT1_E
FN:305,_ZSt22__uninitialized_copy_aIPKiPiiET0_T_S4_S3_RSaIT1_E
FNDA:0,_ZSt22__uninitialized_copy_aIPKiPiiET0_T_S4_S3_RSaIT1_E
DA:76,0
DA:79,0
DA:82,0
DA:83,0
DA:84,0
DA:86,0
DA:88,0
DA:89,0
DA:76,0
DA:79,0
DA:82,0
DA:83,0
DA:84,0
DA:86,0
DA:88,0
DA:89,0
DA:99,0
DA:101,0
DA:99,0
DA:101,0
DA:115,0
DA:134,0
DA:140,0
DA:115,0
DA:134,0
DA:140,0
DA:115,0
DA:134,0
DA:140,0
DA:115,0
DA:134,0
DA:140,0
DA:305,0
DA:307,0
DA:305,0
DA:307,0
DA:305,0
DA:307,0
DA:305,0
DA:307,0
end_of_record
SF:/usr/include/c++/9/bits/stl_function.h
FN:355,_ZNKSt8equal_toI11NonTerminalEclERKS0_S3_
FNDA:0,_ZNKSt8equal_toI11NonTerminalEclERKS0_S3_
FN:355,_ZNKSt8equal_toIiEclERKiS2_
FNDA:0,_ZNKSt8equal_toIiEclERKiS2_
FN:385,_ZNKSt4lessIiEclERKiS2_
FNDA:0,_ZNKSt4lessIiEclERKiS2_
FN:1139,_ZNKSt9_IdentityIiEclERKi
FNDA:0,_ZNKSt9_IdentityIiEclERKi
DA:355,0
DA:356,0
DA:355,0
DA:356,0
DA:385,0
DA:386,0
DA:1139,0
DA:1140,0
end_of_record
SF:/usr/include/c++/9/bits/hashtable_policy.h
FN:70,_ZNSt8__detail13__distance_fwIPKSt4pairIK11NonTerminalSt6vectorIS4_IiSaIiEESaIS6_EEEEENSt15iterator_traitsIT_E15difference_typeESD_SD_St20forward_iterator_tag
FNDA:0,_ZNSt8__detail13__distance_fwIPKSt4pairIK11NonTerminalSt6vectorIS4_IiSaIiEESaIS6_EEEEENSt15iterator_traitsIT_E15difference_typeESD_SD_St20forward_iterator_tag
FN:76,_ZNSt8__detail13__distance_fwIPKSt4pairIK11NonTerminalSt6vectorIS4_IiSaIiEESaIS6_EEEEENSt15iterator_traitsIT_E15difference_typeESD_SD_
FNDA:0,_ZNSt8__detail13__distance_fwIPKSt4pairIK11NonTerminalSt6vectorIS4_IiSaIiEESaIS6_EEEEENSt15iterator_traitsIT_E15difference_typeESD_SD_
FN:92,_ZNKSt8__detail10_Select1stclIRKSt4pairIKiSt3setIiSt4lessIiESaIiEEEEEDTcl3getILi0EEcl7forwardIT_Efp_EEEOSC_
FNDA:0,_ZNKSt8__detail10_Select1stclIRKSt4pairIKiSt3setIiSt4lessIiESaIiEEEEEDTcl3getILi0EEcl7forwardIT_Efp_EEEOSC_
FN:92,_ZNKSt8__detail10_Select1stclIRKSt4pairIK11NonTerminalSt6vectorIS5_IiSaIiEESaIS7_EEEEEDTcl3getILi0EEcl7forwardIT_Efp_EEEOSD_
FNDA:0,_ZNKSt8__detail10_Select1stclIRKSt4pairIK11NonTerminalSt6vectorIS5_IiSaIiEESaIS7_EEEEEDTcl3getILi0EEcl7forwardIT_Efp_EEEOSD_
FN:92,_ZNKSt8__detail10_Select1stclIRSt4pairIK11NonTerminalSt6vectorIS5_IiSaIiEESaIS7_EEEEEDTcl3getILi0EEcl7forwardIT_Efp_EEEOSC_
FNDA:0,_ZNKSt8__detail10_Select1stclIRSt4pairIK11NonTerminalSt6vectorIS5_IiSaIiEESaIS7_EEEEEDTcl3getILi0EEcl7forwardIT_Efp_EEEOSC_
FN:92,_ZNKSt8__detail10_Select1stclIRSt4pairIKiSt3setIiSt4lessIiESaIiEEEEEDTcl3getILi0EEcl7forwardIT_Efp_EEEOSB_
FNDA:0,_ZNKSt8__detail10_Select1stclIRSt4pairIKiSt3setIiSt4lessIiESaIiEEEEEDTcl3getILi0EEcl7forwardIT_Efp_EEEOSB_
FN:161,_ZNSt8__detail10_AllocNodeISaINS_10_Hash_nodeISt4pairIK11NonTerminalSt6vectorIS5_IiSaIiEESaIS7_EEELb0EEEEEC2ERNS_16_Hashtable_allocISC_EE
FNDA:0,_ZNSt8__detail10_AllocNodeISaINS_10_Hash_nodeISt4pairIK11NonTerminalSt6vectorIS5_IiSaIiEESaIS7_EEELb0EEEEEC2ERNS_16_Hashtable_allocISC_EE
FN:166,_ZNKSt8__detail10_AllocNodeISaINS_10_Hash_nodeISt4pairIK11NonTerminalSt6vectorIS5_IiSaIiEESaIS7_EEELb0EEEEEclIRKSA_EEPSB_OT_
FNDA:0,_ZNKSt8__detail10_AllocNodeISaINS_10_Hash_nodeISt4pairIK11NonTerminalSt6vectorIS5_IiSaIiEESaIS7_EEELb0EEEEEclIRKSA_EEPSB_OT_
FN:218,_ZNSt8__detail15_Hash_node_baseC2Ev
FNDA:0,_ZNSt8__detail15_Hash_node_baseC2Ev
FN:236,_ZNSt8__detail21_Hash_node_value_baseISt4pairIK11NonTerminalSt6vectorIS4_IiSaIiEESaIS6_EEEE9_M_valptrEv
FNDA:0,_ZNSt8__detail21_Hash_node_value_baseISt4pairIK11NonTerminalSt6vectorIS4_IiSaIiEESaIS6_EEEE9_M_valptrEv
FN:236,_ZNSt8__detail21_Hash_node_value_baseISt4pairIKiSt3setIiSt4lessIiESaIiEEEE9_M_valptrEv
FNDA:0,_ZNSt8__detail21_Hash_node_value_baseISt4pairIKiSt3setIiSt4lessIiESaIiEEEE9_M_valptrEv
FN:240,_ZNKSt8__detail21_Hash_node_value_baseISt4pairIK11NonTerminalSt6vectorIS4_IiSaIiEESaIS6_EEEE9_M_valptrEv
FNDA:0,_ZNKSt8__detail21_Hash_node_value_baseISt4pairIK11NonTerminalSt6vectorIS4_IiSaIiEESaIS6_EEEE9_M_valptrEv
FN:240,_ZNKSt8__detail21_Hash_node_value_baseISt4pairIKiSt3setIiSt4lessIiESaIiEEEE9_M_valptrEv
FNDA:0,_ZNKSt8__detail21_Hash_node_value_baseISt4pairIKiSt3setIiSt4lessIiESaIiEEEE9_M_valptrEv
FN:244,_ZNSt8__detail21_Hash_node_value_baseISt4pairIK11NonTerminalSt6vectorIS4_IiSaIiEESaIS6_EEEE4_M_vEv
FNDA:0,_ZNSt8__detail21_Hash_node_value_baseISt4pairIK11NonTerminalSt6vectorIS4_IiSaIiEESaIS6_EEEE4_M_vEv
FN:244,_ZNSt8__detail21_Hash_node_value_baseISt4pairIKiSt3setIiSt4lessIiESaIiEEEE4_M_vEv
FNDA:0,_ZNSt8__detail21_Hash_node_value_baseISt4pairIKiSt3setIiSt4lessIiESaIiEEEE4_M_vEv
FN:248,_ZNKSt8__detail21_Hash_node_value_baseISt4pairIK11NonTerminalSt6vectorIS4_IiSaIiEESaIS6_EEEE4_M_vEv
FNDA:0,_ZNKSt8__detail21_Hash_node_value_baseISt4pairIK11NonTerminalSt6vectorIS4_IiSaIiEESaIS6_EEEE4_M_vEv
FN:248,_ZNKSt8__detail21_Hash_node_value_baseISt4pairIKiSt3setIiSt4lessIiESaIiEEEE4_M_vEv
FNDA:0,_ZNKSt8__detail21_Hash_node_value_baseISt4pairIKiSt3setIiSt4lessIiESaIiEEEE4_M_vEv
FN:282,_ZNKSt8__detail10_Hash_nodeISt4pairIK11NonTerminalSt6vectorIS4_IiSaIiEESaIS6_EEELb0EE7_M_nextEv
FNDA:0,_ZNKSt8__detail10_Hash_nodeISt4pairIK11NonTerminalSt6vectorIS4_IiSaIiEESaIS6_EEELb0EE7_M_nextEv
FN:282,_ZNKSt8__detail10_Hash_nodeISt4pairIKiSt3setIiSt4lessIiESaIiEEELb0EE7_M_nextEv
FNDA:0,_ZNKSt8__detail10_Hash_nodeISt4pairIKiSt3setIiSt4lessIiESaIiEEELb0EE7_M_nextEv
FN:294,_ZNSt8__detail19_Node_iterator_baseISt4pairIKiSt3setIiSt4lessIiESaIiEEELb0EEC2EPNS_10_Hash_nodeIS8_Lb0EEE
FNDA:0,_ZNSt8__detail19_Node_iterator_baseISt4pairIKiSt3setIiSt4lessIiESaIiEEELb0EEC2EPNS_10_Hash_nodeIS8_Lb0EEE
FN:294,_ZNSt8__detail19_Node_iterator_baseISt4pairIK11NonTerminalSt6vectorIS4_IiSaIiEESaIS6_EEELb0EEC2EPNS_10_Hash_nodeIS9_Lb0EEE
FNDA:0,_ZNSt8__detail19_Node_iterator_baseISt4pairIK11NonTerminalSt6vectorIS4_IiSaIiEESaIS6_EEELb0EEC2EPNS_10_Hash_nodeIS9_Lb0EEE
FN:298,_ZNSt8__detail19_Node_iterator_baseISt4pairIKiSt3setIiSt4lessIiESaIiEEELb0EE7_M_incrEv
FNDA:0,_ZNSt8__detail19_Node_iterator_baseISt4pairIKiSt3setIiSt4lessIiESaIiEEELb0EE7_M_incrEv
FN:298,_ZNSt8__detail19_Node_iterator_baseISt4pairIK11NonTerminalSt6vectorIS4_IiSaIiEESaIS6_EEELb0EE7_M_incrEv
FNDA:0,_ZNSt8__detail19_Node_iterator_baseISt4pairIK11NonTerminalSt6vectorIS4_IiSaIiEESaIS6_EEELb0EE7_M_incrEv
FN:311,_ZNSt8__detailneISt4pairIK11NonTerminalSt6vectorIS4_IiSaIiEESaIS6_EEELb0EEEbRKNS_19_Node_iterator_baseIT_XT0_EEESE_
FNDA:0,_ZNSt8__detailneISt4pairIK11NonTerminalSt6vectorIS4_IiSaIiEESaIS6_EEELb0EEEbRKNS_19_Node_iterator_baseIT_XT0_EEESE_
FN:311,_ZNSt8__detailneISt4pairIKiSt3setIiSt4lessIiESaIiEEELb0EEEbRKNS_19_Node_iterator_baseIT_XT0_EEESD_
FNDA:0,_ZNSt8__detailneISt4pairIKiSt3setIiSt4lessIiESaIiEEELb0EEEbRKNS_19_Node_iterator_baseIT_XT0_EEESD_
FN:340,_ZNSt8__detail14_Node_iteratorISt4pairIKiSt3setIiSt4lessIiESaIiEEELb0ELb0EEC2EPNS_10_Hash_nodeIS8_Lb0EEE
FNDA:0,_ZNSt8__detail14_Node_iteratorISt4pairIKiSt3setIiSt4lessIiESaIiEEELb0ELb0EEC2EPNS_10_Hash_nodeIS8_Lb0EEE
FN:340,_ZNSt8__detail14_Node_iteratorISt4pairIK11NonTerminalSt6vectorIS4_IiSaIiEESaIS6_EEELb0ELb0EEC2EPNS_10_Hash_nodeIS9_Lb0EEE
FNDA:0,_ZNSt8__detail14_Node_iteratorISt4pairIK11NonTerminalSt6vectorIS4_IiSaIiEESaIS6_EEELb0ELb0EEC2EPNS_10_Hash_nodeIS9_Lb0EEE
FN:344,_ZNKSt8__detail14_Node_iteratorISt4pairIKiSt3setIiSt4lessIiESaIiEEELb0ELb0EEdeEv
FNDA:0,_ZNKSt8__detail14_Node_iteratorISt4pairIKiSt3setIiSt4lessIiESaIiEEELb0ELb0EEdeEv
FN:352,_ZNSt8__detail14_Node_iteratorISt4pairIKiSt3setIiSt4lessIiESaIiEEELb0ELb0EEppEv
FNDA:0,_ZNSt8__detail14_Node_iteratorISt4pairIKiSt3setIiSt4lessIiESaIiEEELb0ELb0EEppEv
FN:388,_ZNSt8__detail20_Node_const_iteratorISt4pairIK11NonTerminalSt6vectorIS4_IiSaIiEESaIS6_EEELb0ELb0EEC2EPNS_10_Hash_nodeIS9_Lb0EEE
FNDA:0,_ZNSt8__detail20_Node_const_iteratorISt4pairIK11NonTerminalSt6vectorIS4_IiSaIiEESaIS6_EEELb0ELb0EEC2EPNS_10_Hash_nodeIS9_Lb0EEE
FN:396,_ZNKSt8__detail20_Node_const_iteratorISt4pairIK11NonTerminalSt6vectorIS4_IiSaIiEESaIS6_EEELb0ELb0EEdeEv
FNDA:0,_ZNKSt8__detail20_Node_const_iteratorISt4pairIK11NonTerminalSt6vectorIS4_IiSaIiEESaIS6_EEELb0ELb0EEdeEv
FN:404,_ZNSt8__detail20_Node_const_iteratorISt4pairIK11NonTerminalSt6vectorIS4_IiSaIiEESaIS6_EEELb0ELb0EEppEv
FNDA:0,_ZNSt8__detail20_Node_const_iteratorISt4pairIK11NonTerminalSt6vectorIS4_IiSaIiEESaIS6_EEELb0ELb0EEppEv
FN:431,_ZNKSt8__detail18_Mod_range_hashingclEmm
FNDA:0,_ZNKSt8__detail18_Mod_range_hashingclEmm
FN:449,_ZNSt8__detail20_Prime_rehash_policyC2Ef
FNDA:0,_ZNSt8__detail20_Prime_rehash_policyC2Ef
FN:462,_ZNKSt8__detail20_Prime_rehash_policy19_M_bkt_for_elementsEm
FNDA:0,_ZNKSt8__detail20_Prime_rehash_policy19_M_bkt_for_elementsEm
FN:476,_ZNKSt8__detail20_Prime_rehash_policy8_M_stateEv
FNDA:0,_ZNKSt8__detail20_Prime_rehash_policy8_M_stateEv
FN:484,_ZNSt8__detail20_Prime_rehash_policy8_M_resetEm
FNDA:0,_ZNSt8__detail20_Prime_rehash_policy8_M_resetEm
FN:739,_ZNSt8__detail9_Map_baseIiSt4pairIKiSt3setIiSt4lessIiESaIiEEESaIS8_ENS_10_Select1stESt8equal_toIiESt4hashIiENS_18_Mod_range_hashingENS_20_Default_ranged_hashENS_20_Prime_rehash_policyENS_17_Hashtable_traitsILb0ELb0ELb1EEELb1EE2atERS2_
FNDA:0,_ZNSt8__detail9_Map_baseIiSt4pairIKiSt3setIiSt4lessIiESaIiEEESaIS8_ENS_10_Select1stESt8equal_toIiESt4hashIiENS_18_Mod_range_hashingENS_20_Default_ranged_hashENS_20_Prime_rehash_policyENS_17_Hashtable_traitsILb0ELb0ELb1EEELb1EE2atERS2_
FN:805,_ZNSt8__detail12_Insert_baseI11NonTerminalSt4pairIKS1_St6vectorIS4_IiSaIiEESaIS6_EEESaIS9_ENS_10_Select1stESt8equal_toIS1_ESt4hashIS1_ENS_18_Mod_range_hashingENS_20_Default_ranged_hashENS_20_Prime_rehash_policyENS_17_Hashtable_traitsILb0ELb0ELb1EEEE20_M_conjure_hashtableEv
FNDA:0,_ZNSt8__detail12_Insert_baseI11NonTerminalSt4pairIKS1_St6vectorIS4_IiSaIiEESaIS6_EEESaIS9_ENS_10_Select1stESt8equal_toIS1_ESt4hashIS1_ENS_18_Mod_range_hashingENS_20_Default_ranged_hashENS_20_Prime_rehash_policyENS_17_Hashtable_traitsILb0ELb0ELb1EEEE20_M_conjure_hashtableEv
FN:820,_ZNSt8__detail12_Insert_baseI11NonTerminalSt4pairIKS1_St6vectorIS4_IiSaIiEESaIS6_EEESaIS9_ENS_10_Select1stESt8equal_toIS1_ESt4hashIS1_ENS_18_Mod_range_hashingENS_20_Default_ranged_hashENS_20_Prime_rehash_policyENS_17_Hashtable_traitsILb0ELb0ELb1EEEE6insertERKS9_
FNDA:0,_ZNSt8__detail12_Insert_baseI11NonTerminalSt4pairIKS1_St6vectorIS4_IiSaIiEESaIS6_EEESaIS9_ENS_10_Select1stESt8equal_toIS1_ESt4hashIS1_ENS_18_Mod_range_hashingENS_20_Default_ranged_hashENS_20_Prime_rehash_policyENS_17_Hashtable_traitsILb0ELb0ELb1EEEE6insertERKS9_
FN:1096,_ZNSt8__detail21_Hashtable_ebo_helperILi0ESaINS_10_Hash_nodeISt4pairIKiSt3setIiSt4lessIiESaIiEEELb0EEEELb1EEC2Ev
FNDA:0,_ZNSt8__detail21_Hashtable_ebo_helperILi0ESaINS_10_Hash_nodeISt4pairIKiSt3setIiSt4lessIiESaIiEEELb0EEEELb1EEC2Ev
FN:1099,_ZNSt8__detail21_Hashtable_ebo_helperILi0ESaINS_10_Hash_nodeISt4pairIK11NonTerminalSt6vectorIS5_IiSaIiEESaIS7_EEELb0EEEELb1EEC2ISC_EEOT_
FNDA:0,_ZNSt8__detail21_Hashtable_ebo_helperILi0ESaINS_10_Hash_nodeISt4pairIK11NonTerminalSt6vectorIS5_IiSaIiEESaIS7_EEELb0EEEELb1EEC2ISC_EEOT_
FN:1099,_ZNSt8__detail21_Hashtable_ebo_helperILi0ESt8equal_toI11NonTerminalELb1EEC2IRKS3_EEOT_
FNDA:0,_ZNSt8__detail21_Hashtable_ebo_helperILi0ESt8equal_toI11NonTerminalELb1EEC2IRKS3_EEOT_
FN:1099,_ZNSt8__detail21_Hashtable_ebo_helperILi0ENS_10_Select1stELb1EEC2IRKS1_EEOT_
FNDA:0,_ZNSt8__detail21_Hashtable_ebo_helperILi0ENS_10_Select1stELb1EEC2IRKS1_EEOT_
FN:1099,_ZNSt8__detail21_Hashtable_ebo_helperILi1ESt4hashI11NonTerminalELb1EEC2IRKS3_EEOT_
FNDA:0,_ZNSt8__detail21_Hashtable_ebo_helperILi1ESt4hashI11NonTerminalELb1EEC2IRKS3_EEOT_
FN:1099,_ZNSt8__detail21_Hashtable_ebo_helperILi2ENS_18_Mod_range_hashingELb1EEC2IRKS1_EEOT_
FNDA:0,_ZNSt8__detail21_Hashtable_ebo_helperILi2ENS_18_Mod_range_hashingELb1EEC2IRKS1_EEOT_
FN:1104,_ZNSt8__detail21_Hashtable_ebo_helperILi0ESt8equal_toIiELb1EE7_S_cgetERKS3_
FNDA:0,_ZNSt8__detail21_Hashtable_ebo_helperILi0ESt8equal_toIiELb1EE7_S_cgetERKS3_
FN:1104,_ZNSt8__detail21_Hashtable_ebo_helperILi1ESt4hashI11NonTerminalELb1EE7_S_cgetERKS4_
FNDA:0,_ZNSt8__detail21_Hashtable_ebo_helperILi1ESt4hashI11NonTerminalELb1EE7_S_cgetERKS4_
FN:1104,_ZNSt8__detail21_Hashtable_ebo_helperILi0ESt8equal_toI11NonTerminalELb1EE7_S_cgetERKS4_
FNDA:0,_ZNSt8__detail21_Hashtable_ebo_helperILi0ESt8equal_toI11NonTerminalELb1EE7_S_cgetERKS4_
FN:1104,_ZNSt8__detail21_Hashtable_ebo_helperILi2ENS_18_Mod_range_hashingELb1EE7_S_cgetERKS2_
FNDA:0,_ZNSt8__detail21_Hashtable_ebo_helperILi2ENS_18_Mod_range_hashingELb1EE7_S_cgetERKS2_
FN:1104,_ZNSt8__detail21_Hashtable_ebo_helperILi0ENS_10_Select1stELb1EE7_S_cgetERKS2_
FNDA:0,_ZNSt8__detail21_Hashtable_ebo_helperILi0ENS_10_Select1stELb1EE7_S_cgetERKS2_
FN:1104,_ZNSt8__detail21_Hashtable_ebo_helperILi1ESt4hashIiELb1EE7_S_cgetERKS3_
FNDA:0,_ZNSt8__detail21_Hashtable_ebo_helperILi1ESt4hashIiELb1EE7_S_cgetERKS3_
FN:1108,_ZNSt8__detail21_Hashtable_ebo_helperILi0ENS_10_Select1stELb1EE6_S_getERS2_
FNDA:0,_ZNSt8__detail21_Hashtable_ebo_helperILi0ENS_10_Select1stELb1EE6_S_getERS2_
FN:1108,_ZNSt8__detail21_Hashtable_ebo_helperILi0ESaINS_10_Hash_nodeISt4pairIK11NonTerminalSt6vectorIS5_IiSaIiEESaIS7_EEELb0EEEELb1EE6_S_getERSD_
FNDA:0,_ZNSt8__detail21_Hashtable_ebo_helperILi0ESaINS_10_Hash_nodeISt4pairIK11NonTerminalSt6vectorIS5_IiSaIiEESaIS7_EEELb0EEEELb1EE6_S_getERSD_
FN:1108,_ZNSt8__detail21_Hashtable_ebo_helperILi0ESaINS_10_Hash_nodeISt4pairIKiSt3setIiSt4lessIiESaIiEEELb0EEEELb1EE6_S_getERSC_
FNDA:0,_ZNSt8__detail21_Hashtable_ebo_helperILi0ESaINS_10_Hash_nodeISt4pairIKiSt3setIiSt4lessIiESaIiEEELb0EEEELb1EE6_S_getERSC_
FN:1282,_ZNSt8__detail15_Hash_code_baseI11NonTerminalSt4pairIKS1_St6vectorIS4_IiSaIiEESaIS6_EEENS_10_Select1stESt4hashIS1_ENS_18_Mod_range_hashingENS_20_Default_ranged_hashELb0EEC2ERKSA_RKSC_RKSD_RKSE_
FNDA:0,_ZNSt8__detail15_Hash_code_baseI11NonTerminalSt4pairIKS1_St6vectorIS4_IiSaIiEESaIS6_EEENS_10_Select1stESt4hashIS1_ENS_18_Mod_range_hashingENS_20_Default_ranged_hashELb0EEC2ERKSA_RKSC_RKSD_RKSE_
FN:1288,_ZNKSt8__detail15_Hash_code_baseI11NonTerminalSt4pairIKS1_St6vectorIS4_IiSaIiEESaIS6_EEENS_10_Select1stESt4hashIS1_ENS_18_Mod_range_hashingENS_20_Default_ranged_hashELb0EE12_M_hash_codeERS3_
FNDA:0,_ZNKSt8__detail15_Hash_code_baseI11NonTerminalSt4pairIKS1_St6vectorIS4_IiSaIiEESaIS6_EEENS_10_Select1stESt4hashIS1_ENS_18_Mod_range_hashingENS_20_Default_ranged_hashELb0EE12_M_hash_codeERS3_
FN:1288,_ZNKSt8__detail15_Hash_code_baseIiSt4pairIKiSt3setIiSt4lessIiESaIiEEENS_10_Select1stESt4hashIiENS_18_Mod_range_hashingENS_20_Default_ranged_hashELb0EE12_M_hash_codeERS2_
FNDA:0,_ZNKSt8__detail15_Hash_code_baseIiSt4pairIKiSt3setIiSt4lessIiESaIiEEENS_10_Select1stESt4hashIiENS_18_Mod_range_hashingENS_20_Default_ranged_hashELb0EE12_M_hash_codeERS2_
FN:1296,_ZNKSt8__detail15_Hash_code_baseI11NonTerminalSt4pairIKS1_St6vectorIS4_IiSaIiEESaIS6_EEENS_10_Select1stESt4hashIS1_ENS_18_Mod_range_hashingENS_20_Default_ranged_hashELb0EE15_M_bucket_indexERS3_mm
FNDA:0,_ZNKSt8__detail15_Hash_code_baseI11NonTerminalSt4pairIKS1_St6vectorIS4_IiSaIiEESaIS6_EEENS_10_Select1stESt4hashIS1_ENS_18_Mod_range_hashingENS_20_Default_ranged_hashELb0EE15_M_bucket_indexERS3_mm
FN:1296,_ZNKSt8__detail15_Hash_code_baseIiSt4pairIKiSt3setIiSt4lessIiESaIiEEENS_10_Select1stESt4hashIiENS_18_Mod_range_hashingENS_20_Default_ranged_hashELb0EE15_M_bucket_indexERS2_mm
FNDA:0,_ZNKSt8__detail15_Hash_code_baseIiSt4pairIKiSt3setIiSt4lessIiESaIiEEENS_10_Select1stESt4hashIiENS_18_Mod_range_hashingENS_20_Default_ranged_hashELb0EE15_M_bucket_indexERS2_mm
FN:1300,_ZNKSt8__detail15_Hash_code_baseIiSt4pairIKiSt3setIiSt4lessIiESaIiEEENS_10_Select1stESt4hashIiENS_18_Mod_range_hashingENS_20_Default_ranged_hashELb0EE15_M_bucket_indexEPKNS_10_Hash_nodeIS8_Lb0EEEm
FNDA:0,_ZNKSt8__detail15_Hash_code_baseIiSt4pairIKiSt3setIiSt4lessIiESaIiEEENS_10_Select1stESt4hashIiENS_18_Mod_range_hashingENS_20_Default_ranged_hashELb0EE15_M_bucket_indexEPKNS_10_Hash_nodeIS8_Lb0EEEm
FN:1300,_ZNKSt8__detail15_Hash_code_baseI11NonTerminalSt4pairIKS1_St6vectorIS4_IiSaIiEESaIS6_EEENS_10_Select1stESt4hashIS1_ENS_18_Mod_range_hashingENS_20_Default_ranged_hashELb0EE15_M_bucket_indexEPKNS_10_Hash_nodeIS9_Lb0EEEm
FNDA:0,_ZNKSt8__detail15_Hash_code_baseI11NonTerminalSt4pairIKS1_St6vectorIS4_IiSaIiEESaIS6_EEENS_10_Select1stESt4hashIS1_ENS_18_Mod_range_hashingENS_20_Default_ranged_hashELb0EE15_M_bucket_indexEPKNS_10_Hash_nodeIS9_Lb0EEEm
FN:1307,_ZNKSt8__detail15_Hash_code_baseI11NonTerminalSt4pairIKS1_St6vectorIS4_IiSaIiEESaIS6_EEENS_10_Select1stESt4hashIS1_ENS_18_Mod_range_hashingENS_20_Default_ranged_hashELb0EE13_M_store_codeEPNS_10_Hash_nodeIS9_Lb0EEEm
FNDA:0,_ZNKSt8__detail15_Hash_code_baseI11NonTerminalSt4pairIKS1_St6vectorIS4_IiSaIiEESaIS6_EEENS_10_Select1stESt4hashIS1_ENS_18_Mod_range_hashingENS_20_Default_ranged_hashELb0EE13_M_store_codeEPNS_10_Hash_nodeIS9_Lb0EEEm
FN:1323,_ZNKSt8__detail15_Hash_code_baseIiSt4pairIKiSt3setIiSt4lessIiESaIiEEENS_10_Select1stESt4hashIiENS_18_Mod_range_hashingENS_20_Default_ranged_hashELb0EE10_M_extractEv
FNDA:0,_ZNKSt8__detail15_Hash_code_baseIiSt4pairIKiSt3setIiSt4lessIiESaIiEEENS_10_Select1stESt4hashIiENS_18_Mod_range_hashingENS_20_Default_ranged_hashELb0EE10_M_extractEv
FN:1323,_ZNKSt8__detail15_Hash_code_baseI11NonTerminalSt4pairIKS1_St6vectorIS4_IiSaIiEESaIS6_EEENS_10_Select1stESt4hashIS1_ENS_18_Mod_range_hashingENS_20_Default_ranged_hashELb0EE10_M_extractEv
FNDA:0,_ZNKSt8__detail15_Hash_code_baseI11NonTerminalSt4pairIKS1_St6vectorIS4_IiSaIiEESaIS6_EEENS_10_Select1stESt4hashIS1_ENS_18_Mod_range_hashingENS_20_Default_ranged_hashELb0EE10_M_extractEv
FN:1326,_ZNSt8__detail15_Hash_code_baseI11NonTerminalSt4pairIKS1_St6vectorIS4_IiSaIiEESaIS6_EEENS_10_Select1stESt4hashIS1_ENS_18_Mod_range_hashingENS_20_Default_ranged_hashELb0EE10_M_extractEv
FNDA:0,_ZNSt8__detail15_Hash_code_baseI11NonTerminalSt4pairIKS1_St6vectorIS4_IiSaIiEESaIS6_EEENS_10_Select1stESt4hashIS1_ENS_18_Mod_range_hashingENS_20_Default_ranged_hashELb0EE10_M_extractEv
FN:1329,_ZNKSt8__detail15_Hash_code_baseIiSt4pairIKiSt3setIiSt4lessIiESaIiEEENS_10_Select1stESt4hashIiENS_18_Mod_range_hashingENS_20_Default_ranged_hashELb0EE5_M_h1Ev
FNDA:0,_ZNKSt8__detail15_Hash_code_baseIiSt4pairIKiSt3setIiSt4lessIiESaIiEEENS_10_Select1stESt4hashIiENS_18_Mod_range_hashingENS_20_Default_ranged_hashELb0EE5_M_h1Ev
FN:1329,_ZNKSt8__detail15_Hash_code_baseI11NonTerminalSt4pairIKS1_St6vectorIS4_IiSaIiEESaIS6_EEENS_10_Select1stESt4hashIS1_ENS_18_Mod_range_hashingENS_20_Default_ranged_hashELb0EE5_M_h1Ev
FNDA:0,_ZNKSt8__detail15_Hash_code_baseI11NonTerminalSt4pairIKS1_St6vectorIS4_IiSaIiEESaIS6_EEENS_10_Select1stESt4hashIS1_ENS_18_Mod_range_hashingENS_20_Default_ranged_hashELb0EE5_M_h1Ev
FN:1335,_ZNKSt8__detail15_Hash_code_baseI11NonTerminalSt4pairIKS1_St6vectorIS4_IiSaIiEESaIS6_EEENS_10_Select1stESt4hashIS1_ENS_18_Mod_range_hashingENS_20_Default_ranged_hashELb0EE5_M_h2Ev
FNDA:0,_ZNKSt8__detail15_Hash_code_baseI11NonTerminalSt4pairIKS1_St6vectorIS4_IiSaIiEESaIS6_EEENS_10_Select1stESt4hashIS1_ENS_18_Mod_range_hashingENS_20_Default_ranged_hashELb0EE5_M_h2Ev
FN:1335,_ZNKSt8__detail15_Hash_code_baseIiSt4pairIKiSt3setIiSt4lessIiESaIiEEENS_10_Select1stESt4hashIiENS_18_Mod_range_hashingENS_20_Default_ranged_hashELb0EE5_M_h2Ev
FNDA:0,_ZNKSt8__detail15_Hash_code_baseIiSt4pairIKiSt3setIiSt4lessIiESaIiEEENS_10_Select1stESt4hashIiENS_18_Mod_range_hashingENS_20_Default_ranged_hashELb0EE5_M_h2Ev
FN:1459,_ZNSt8__detail13_Equal_helperI11NonTerminalSt4pairIKS1_St6vectorIS4_IiSaIiEESaIS6_EEENS_10_Select1stESt8equal_toIS1_EmLb0EE9_S_equalsERKSC_RKSA_RS3_mPNS_10_Hash_nodeIS9_Lb0EEE
FNDA:0,_ZNSt8__detail13_Equal_helperI11NonTerminalSt4pairIKS1_St6vectorIS4_IiSaIiEESaIS6_EEENS_10_Select1stESt8equal_toIS1_EmLb0EE9_S_equalsERKSC_RKSA_RS3_mPNS_10_Hash_nodeIS9_Lb0EEE
FN:1459,_ZNSt8__detail13_Equal_helperIiSt4pairIKiSt3setIiSt4lessIiESaIiEEENS_10_Select1stESt8equal_toIiEmLb0EE9_S_equalsERKSB_RKS9_RS2_mPNS_10_Hash_nodeIS8_Lb0EEE
FNDA:0,_ZNSt8__detail13_Equal_helperIiSt4pairIKiSt3setIiSt4lessIiESaIiEEENS_10_Select1stESt8equal_toIiEmLb0EE9_S_equalsERKSB_RKS9_RS2_mPNS_10_Hash_nodeIS8_Lb0EEE
FN:1823,_ZNSt8__detail15_Hashtable_baseI11NonTerminalSt4pairIKS1_St6vectorIS4_IiSaIiEESaIS6_EEENS_10_Select1stESt8equal_toIS1_ESt4hashIS1_ENS_18_Mod_range_hashingENS_20_Default_ranged_hashENS_17_Hashtable_traitsILb0ELb0ELb1EEEEC2ERKSA_RKSE_RKSF_RKSG_RKSC_
FNDA:0,_ZNSt8__detail15_Hashtable_baseI11NonTerminalSt4pairIKS1_St6vectorIS4_IiSaIiEESaIS6_EEENS_10_Select1stESt8equal_toIS1_ESt4hashIS1_ENS_18_Mod_range_hashingENS_20_Default_ranged_hashENS_17_Hashtable_traitsILb0ELb0ELb1EEEEC2ERKSA_RKSE_RKSF_RKSG_RKSC_
FN:1829,_ZNKSt8__detail15_Hashtable_baseI11NonTerminalSt4pairIKS1_St6vectorIS4_IiSaIiEESaIS6_EEENS_10_Select1stESt8equal_toIS1_ESt4hashIS1_ENS_18_Mod_range_hashingENS_20_Default_ranged_hashENS_17_Hashtable_traitsILb0ELb0ELb1EEEE9_M_equalsERS3_mPNS_10_Hash_nodeIS9_Lb0EEE
FNDA:0,_ZNKSt8__detail15_Hashtable_baseI11NonTerminalSt4pairIKS1_St6vectorIS4_IiSaIiEESaIS6_EEENS_10_Select1stESt8equal_toIS1_ESt4hashIS1_ENS_18_Mod_range_hashingENS_20_Default_ranged_hashENS_17_Hashtable_traitsILb0ELb0ELb1EEEE9_M_equalsERS3_mPNS_10_Hash_nodeIS9_Lb0EEE
FN:1829,_ZNKSt8__detail15_Hashtable_baseIiSt4pairIKiSt3setIiSt4lessIiESaIiEEENS_10_Select1stESt8equal_toIiESt4hashIiENS_18_Mod_range_hashingENS_20_Default_ranged_hashENS_17_Hashtable_traitsILb0ELb0ELb1EEEE9_M_equalsERS2_mPNS_10_Hash_nodeIS8_Lb0EEE
FNDA:0,_ZNKSt8__detail15_Hashtable_baseIiSt4pairIKiSt3setIiSt4lessIiESaIiEEENS_10_Select1stESt8equal_toIiESt4hashIiENS_18_Mod_range_hashingENS_20_Default_ranged_hashENS_17_Hashtable_traitsILb0ELb0ELb1EEEE9_M_equalsERS2_mPNS_10_Hash_nodeIS8_Lb0EEE
FN:1846,_ZNKSt8__detail15_Hashtable_baseI11NonTerminalSt4pairIKS1_St6vectorIS4_IiSaIiEESaIS6_EEENS_10_Select1stESt8equal_toIS1_ESt4hashIS1_ENS_18_Mod_range_hashingENS_20_Default_ranged_hashENS_17_Hashtable_traitsILb0ELb0ELb1EEEE5_M_eqEv
FNDA:0,_ZNKSt8__detail15_Hashtable_baseI11NonTerminalSt4pairIKS1_St6vectorIS4_IiSaIiEESaIS6_EEENS_10_Select1stESt8equal_toIS1_ESt4hashIS1_ENS_18_Mod_range_hashingENS_20_Default_ranged_hashENS_17_Hashtable_traitsILb0ELb0ELb1EEEE5_M_eqEv
FN:1846,_ZNKSt8__detail15_Hashtable_baseIiSt4pairIKiSt3setIiSt4lessIiESaIiEEENS_10_Select1stESt8equal_toIiESt4hashIiENS_18_Mod_range_hashingENS_20_Default_ranged_hashENS_17_Hashtable_traitsILb0ELb0ELb1EEEE5_M_eqEv
FNDA:0,_ZNKSt8__detail15_Hashtable_baseIiSt4pairIKiSt3setIiSt4lessIiESaIiEEENS_10_Select1stESt8equal_toIiESt4hashIiENS_18_Mod_range_hashingENS_20_Default_ranged_hashENS_17_Hashtable_traitsILb0ELb0ELb1EEEE5_M_eqEv
FN:2036,_ZNSt8__detail16_Hashtable_allocISaINS_10_Hash_nodeISt4pairIKiSt3setIiSt4lessIiESaIiEEELb0EEEEEC2Ev
FNDA:0,_ZNSt8__detail16_Hashtable_allocISaINS_10_Hash_nodeISt4pairIKiSt3setIiSt4lessIiESaIiEEELb0EEEEEC2Ev
FN:2041,_ZNSt8__detail16_Hashtable_allocISaINS_10_Hash_nodeISt4pairIK11NonTerminalSt6vectorIS5_IiSaIiEESaIS7_EEELb0EEEEEC2ISC_EEOT_
FNDA:0,_ZNSt8__detail16_Hashtable_allocISaINS_10_Hash_nodeISt4pairIK11NonTerminalSt6vectorIS5_IiSaIiEESaIS7_EEELb0EEEEEC2ISC_EEOT_
FN:2046,_ZNSt8__detail16_Hashtable_allocISaINS_10_Hash_nodeISt4pairIK11NonTerminalSt6vectorIS5_IiSaIiEESaIS7_EEELb0EEEEE17_M_node_allocatorEv
FNDA:0,_ZNSt8__detail16_Hashtable_allocISaINS_10_Hash_nodeISt4pairIK11NonTerminalSt6vectorIS5_IiSaIiEESaIS7_EEELb0EEEEE17_M_node_allocatorEv
FN:2046,_ZNSt8__detail16_Hashtable_allocISaINS_10_Hash_nodeISt4pairIKiSt3setIiSt4lessIiESaIiEEELb0EEEEE17_M_node_allocatorEv
FNDA:0,_ZNSt8__detail16_Hashtable_allocISaINS_10_Hash_nodeISt4pairIKiSt3setIiSt4lessIiESaIiEEELb0EEEEE17_M_node_allocatorEv
FN:2079,_ZNSt8__detail16_Hashtable_allocISaINS_10_Hash_nodeISt4pairIK11NonTerminalSt6vectorIS5_IiSaIiEESaIS7_EEELb0EEEEE16_M_allocate_nodeIJRKSA_EEEPSB_DpOT_
FNDA:0,_ZNSt8__detail16_Hashtable_allocISaINS_10_Hash_nodeISt4pairIK11NonTerminalSt6vectorIS5_IiSaIiEESaIS7_EEELb0EEEEE16_M_allocate_nodeIJRKSA_EEEPSB_DpOT_
FN:2100,_ZNSt8__detail16_Hashtable_allocISaINS_10_Hash_nodeISt4pairIK11NonTerminalSt6vectorIS5_IiSaIiEESaIS7_EEELb0EEEEE18_M_deallocate_nodeEPSB_
FNDA:0,_ZNSt8__detail16_Hashtable_allocISaINS_10_Hash_nodeISt4pairIK11NonTerminalSt6vectorIS5_IiSaIiEESaIS7_EEELb0EEEEE18_M_deallocate_nodeEPSB_
FN:2100,_ZNSt8__detail16_Hashtable_allocISaINS_10_Hash_nodeISt4pairIKiSt3setIiSt4lessIiESaIiEEELb0EEEEE18_M_deallocate_nodeEPSA_
FNDA:0,_ZNSt8__detail16_Hashtable_allocISaINS_10_Hash_nodeISt4pairIKiSt3setIiSt4lessIiESaIiEEELb0EEEEE18_M_deallocate_nodeEPSA_
FN:2108,_ZNSt8__detail16_Hashtable_allocISaINS_10_Hash_nodeISt4pairIK11NonTerminalSt6vectorIS5_IiSaIiEESaIS7_EEELb0EEEEE22_M_deallocate_node_ptrEPSB_
FNDA:0,_ZNSt8__detail16_Hashtable_allocISaINS_10_Hash_nodeISt4pairIK11NonTerminalSt6vectorIS5_IiSaIiEESaIS7_EEELb0EEEEE22_M_deallocate_node_ptrEPSB_
FN:2108,_ZNSt8__detail16_Hashtable_allocISaINS_10_Hash_nodeISt4pairIKiSt3setIiSt4lessIiESaIiEEELb0EEEEE22_M_deallocate_node_ptrEPSA_
FNDA:0,_ZNSt8__detail16_Hashtable_allocISaINS_10_Hash_nodeISt4pairIKiSt3setIiSt4lessIiESaIiEEELb0EEEEE22_M_deallocate_node_ptrEPSA_
FN:2118,_ZNSt8__detail16_Hashtable_allocISaINS_10_Hash_nodeISt4pairIKiSt3setIiSt4lessIiESaIiEEELb0EEEEE19_M_deallocate_nodesEPSA_
FNDA:0,_ZNSt8__detail16_Hashtable_allocISaINS_10_Hash_nodeISt4pairIKiSt3setIiSt4lessIiESaIiEEELb0EEEEE19_M_deallocate_nodesEPSA_
FN:2118,_ZNSt8__detail16_Hashtable_allocISaINS_10_Hash_nodeISt4pairIK11NonTerminalSt6vectorIS5_IiSaIiEESaIS7_EEELb0EEEEE19_M_deallocate_nodesEPSB_
FNDA:0,_ZNSt8__detail16_Hashtable_allocISaINS_10_Hash_nodeISt4pairIK11NonTerminalSt6vectorIS5_IiSaIiEESaIS7_EEELb0EEEEE19_M_deallocate_nodesEPSB_
FN:2130,_ZNSt8__detail16_Hashtable_allocISaINS_10_Hash_nodeISt4pairIK11NonTerminalSt6vectorIS5_IiSaIiEESaIS7_EEELb0EEEEE19_M_allocate_bucketsEm
FNDA:0,_ZNSt8__detail16_Hashtable_allocISaINS_10_Hash_nodeISt4pairIK11NonTerminalSt6vectorIS5_IiSaIiEESaIS7_EEELb0EEEEE19_M_allocate_bucketsEm
FN:2142,_ZNSt8__detail16_Hashtable_allocISaINS_10_Hash_nodeISt4pairIKiSt3setIiSt4lessIiESaIiEEELb0EEEEE21_M_deallocate_bucketsEPPNS_15_Hash_node_baseEm
FNDA:0,_ZNSt8__detail16_Hashtable_allocISaINS_10_Hash_nodeISt4pairIKiSt3setIiSt4lessIiESaIiEEELb0EEEEE21_M_deallocate_bucketsEPPNS_15_Hash_node_baseEm
FN:2142,_ZNSt8__detail16_Hashtable_allocISaINS_10_Hash_nodeISt4pairIK11NonTerminalSt6vectorIS5_IiSaIiEESaIS7_EEELb0EEEEE21_M_deallocate_bucketsEPPNS_15_Hash_node_baseEm
FNDA:0,_ZNSt8__detail16_Hashtable_allocISaINS_10_Hash_nodeISt4pairIK11NonTerminalSt6vectorIS5_IiSaIiEESaIS7_EEELb0EEEEE21_M_deallocate_bucketsEPPNS_15_Hash_node_baseEm
DA:70,0
DA:72,0
DA:76,0
DA:77,0
DA:78,0
DA:92,0
DA:94,0
DA:92,0
DA:94,0
DA:92,0
DA:94,0
DA:92,0
DA:94,0
DA:161,0
DA:162,0
DA:166,0
DA:167,0
DA:218,0
DA:236,0
DA:237,0
DA:236,0
DA:237,0
DA:240,0
DA:241,0
DA:240,0
DA:241,0
DA:244,0
DA:245,0
DA:244,0
DA:245,0
DA:248,0
DA:249,0
DA:248,0
DA:249,0
DA:282,0
DA:283,0
DA:282,0
DA:283,0
DA:294,0
DA:295,0
DA:294,0
DA:295,0
DA:298,0
DA:299,0
DA:298,0
DA:299,0
DA:311,0
DA:314,0
DA:311,0
DA:314,0
DA:340,0
DA:341,0
DA:340,0
DA:341,0
DA:344,0
DA:345,0
DA:352,0
DA:354,0
DA:355,0
DA:388,0
DA:389,0
DA:396,0
DA:397,0
DA:404,0
DA:406,0
DA:407,0
DA:431,0
DA:433,0
DA:449,0
DA:450,0
DA:462,0
DA:463,0
DA:476,0
DA:477,0
DA:484,0
DA:485,0
DA:739,0
DA:744,0
DA:745,0
DA:746,0
DA:747,0
DA:749,0
DA:750,0
DA:751,0
DA:805,0
DA:806,0
DA:820,0
DA:822,0
DA:823,0
DA:824,0
DA:1096,0
DA:1099,0
DA:1100,0
DA:1101,0
DA:1099,0
DA:1100,0
DA:1101,0
DA:1099,0
DA:1100,0
DA:1101,0
DA:1099,0
DA:1100,0
DA:1101,0
DA:1099,0
DA:1100,0
DA:1101,0
DA:1104,0
DA:1105,0
DA:1104,0
DA:1105,0
DA:1104,0
DA:1105,0
DA:1104,0
DA:1105,0
DA:1104,0
DA:1105,0
DA:1104,0
DA:1105,0
DA:1108,0
DA:1109,0
DA:1108,0
DA:1109,0
DA:1108,0
DA:1109,0
DA:1282,0
DA:1285,0
DA:1288,0
DA:1292,0
DA:1288,0
DA:1292,0
DA:1296,0
DA:1297,0
DA:1296,0
DA:1297,0
DA:1300,0
DA:1304,0
DA:1300,0
DA:1304,0
DA:1307,0
DA:1308,0
DA:1323,0
DA:1323,0
DA:1326,0
DA:1329,0
DA:1329,0
DA:1335,0
DA:1335,0
DA:1459,0
DA:1461,0
DA:1459,0
DA:1461,0
DA:1823,0
DA:1825,0
DA:1826,0
DA:1829,0
DA:1834,0
DA:1835,0
DA:1829,0
DA:1834,0
DA:1835,0
DA:1846,0
DA:1846,0
DA:2036,0
DA:2041,0
DA:2042,0
DA:2043,0
DA:2046,0
DA:2047,0
DA:2046,0
DA:2047,0
DA:2079,0
DA:2081,0
DA:2082,0
DA:2085,0
DA:2086,0
DA:2089,0
DA:2091,0
DA:2093,0
DA:2094,0
DA:2100,0
DA:2102,0
DA:2103,0
DA:2104,0
DA:2100,0
DA:2102,0
DA:2103,0
DA:2104,0
DA:2108,0
DA:2111,0
DA:2112,0
DA:2113,0
DA:2114,0
DA:2108,0
DA:2111,0
DA:2112,0
DA:2113,0
DA:2114,0
DA:2118,0
DA:2120,0
DA:2122,0
DA:2123,0
DA:2124,0
DA:2126,0
DA:2118,0
DA:2120,0
DA:2122,0
DA:2123,0
DA:2124,0
DA:2126,0
DA:2130,0
DA:2132,0
DA:2134,0
DA:2135,0
DA:2136,0
DA:2137,0
DA:2142,0
DA:2146,0
DA:2147,0
DA:2148,0
DA:2149,0
DA:2142,0
DA:2146,0
DA:2147,0
DA:2148,0
DA:2149,0
end_of_record
SF:/home/idra/Sync/EPQ/src/grammar/productions.hpp
end_of_record
SF:/usr/include/c++/9/new
FN:173,_ZnwmPv
FNDA:0,_ZnwmPv
FN:179,_ZdlPvS_
FNDA:0,_ZdlPvS_
DA:173,0
DA:174,0
DA:179,0
end_of_record
SF:/usr/include/c++/9/ext/aligned_buffer.h
FN:64,_ZN9__gnu_cxx16__aligned_membufIiE7_M_addrEv
FNDA:0,_ZN9__gnu_cxx16__aligned_membufIiE7_M_addrEv
FN:68,_ZNK9__gnu_cxx16__aligned_membufIiE7_M_addrEv
FNDA:0,_ZNK9__gnu_cxx16__aligned_membufIiE7_M_addrEv
FN:72,_ZN9__gnu_cxx16__aligned_membufIiE6_M_ptrEv
FNDA:0,_ZN9__gnu_cxx16__aligned_membufIiE6_M_ptrEv
FN:76,_ZNK9__gnu_cxx16__aligned_membufIiE6_M_ptrEv
FNDA:0,_ZNK9__gnu_cxx16__aligned_membufIiE6_M_ptrEv
FN:102,_ZN9__gnu_cxx16__aligned_bufferISt4pairIKiSt3setIiSt4lessIiESaIiEEEE7_M_addrEv
FNDA:0,_ZN9__gnu_cxx16__aligned_bufferISt4pairIKiSt3setIiSt4lessIiESaIiEEEE7_M_addrEv
FN:102,_ZN9__gnu_cxx16__aligned_bufferISt4pairIK11NonTerminalSt6vectorIS4_IiSaIiEESaIS6_EEEE7_M_addrEv
FNDA:0,_ZN9__gnu_cxx16__aligned_bufferISt4pairIK11NonTerminalSt6vectorIS4_IiSaIiEESaIS6_EEEE7_M_addrEv
FN:108,_ZNK9__gnu_cxx16__aligned_bufferISt4pairIK11NonTerminalSt6vectorIS4_IiSaIiEESaIS6_EEEE7_M_addrEv
FNDA:0,_ZNK9__gnu_cxx16__aligned_bufferISt4pairIK11NonTerminalSt6vectorIS4_IiSaIiEESaIS6_EEEE7_M_addrEv
FN:108,_ZNK9__gnu_cxx16__aligned_bufferISt4pairIKiSt3setIiSt4lessIiESaIiEEEE7_M_addrEv
FNDA:0,_ZNK9__gnu_cxx16__aligned_bufferISt4pairIKiSt3setIiSt4lessIiESaIiEEEE7_M_addrEv
FN:114,_ZN9__gnu_cxx16__aligned_bufferISt4pairIKiSt3setIiSt4lessIiESaIiEEEE6_M_ptrEv
FNDA:0,_ZN9__gnu_cxx16__aligned_bufferISt4pairIKiSt3setIiSt4lessIiESaIiEEEE6_M_ptrEv
FN:114,_ZN9__gnu_cxx16__aligned_bufferISt4pairIK11NonTerminalSt6vectorIS4_IiSaIiEESaIS6_EEEE6_M_ptrEv
FNDA:0,_ZN9__gnu_cxx16__aligned_bufferISt4pairIK11NonTerminalSt6vectorIS4_IiSaIiEESaIS6_EEEE6_M_ptrEv
FN:118,_ZNK9__gnu_cxx16__aligned_bufferISt4pairIK11NonTerminalSt6vectorIS4_IiSaIiEESaIS6_EEEE6_M_ptrEv
FNDA:0,_ZNK9__gnu_cxx16__aligned_bufferISt4pairIK11NonTerminalSt6vectorIS4_IiSaIiEESaIS6_EEEE6_M_ptrEv
FN:118,_ZNK9__gnu_cxx16__aligned_bufferISt4pairIKiSt3setIiSt4lessIiESaIiEEEE6_M_ptrEv
FNDA:0,_ZNK9__gnu_cxx16__aligned_bufferISt4pairIKiSt3setIiSt4lessIiESaIiEEEE6_M_ptrEv
DA:64,0
DA:65,0
DA:68,0
DA:69,0
DA:72,0
DA:73,0
DA:76,0
DA:77,0
DA:102,0
DA:104,0
DA:102,0
DA:104,0
DA:108,0
DA:110,0
DA:108,0
DA:110,0
DA:114,0
DA:115,0
DA:114,0
DA:115,0
DA:118,0
DA:119,0
DA:118,0
DA:119,0
end_of_record
SF:/usr/include/c++/9/bits/stl_iterator_base_funcs.h
FN:98,_ZSt10__distanceIPKSt4pairIK11NonTerminalSt6vectorIS3_IiSaIiEESaIS5_EEEENSt15iterator_traitsIT_E15difference_typeESC_SC_St26random_access_iterator_tag
FNDA:0,_ZSt10__distanceIPKSt4pairIK11NonTerminalSt6vectorIS3_IiSaIiEESaIS5_EEEENSt15iterator_traitsIT_E15difference_typeESC_SC_St26random_access_iterator_tag
FN:98,_ZSt10__distanceIPKSt6vectorIiSaIiEEENSt15iterator_traitsIT_E15difference_typeES6_S6_St26random_access_iterator_tag
FNDA:0,_ZSt10__distanceIPKSt6vectorIiSaIiEEENSt15iterator_traitsIT_E15difference_typeES6_S6_St26random_access_iterator_tag
FN:98,_ZSt10__distanceIPKiENSt15iterator_traitsIT_E15difference_typeES3_S3_St26random_access_iterator_tag
FNDA:0,_ZSt10__distanceIPKiENSt15iterator_traitsIT_E15difference_typeES3_S3_St26random_access_iterator_tag
FN:138,_ZSt8distanceIPKSt4pairIK11NonTerminalSt6vectorIS3_IiSaIiEESaIS5_EEEENSt15iterator_traitsIT_E15difference_typeESC_SC_
FNDA:0,_ZSt8distanceIPKSt4pairIK11NonTerminalSt6vectorIS3_IiSaIiEESaIS5_EEEENSt15iterator_traitsIT_E15difference_typeESC_SC_
FN:138,_ZSt8distanceIPKSt6vectorIiSaIiEEENSt15iterator_traitsIT_E15difference_typeES6_S6_
FNDA:0,_ZSt8distanceIPKSt6vectorIiSaIiEEENSt15iterator_traitsIT_E15difference_typeES6_S6_
FN:138,_ZSt8distanceIPKiENSt15iterator_traitsIT_E15difference_typeES3_S3_
FNDA:0,_ZSt8distanceIPKiENSt15iterator_traitsIT_E15difference_typeES3_S3_
DA:98,0
DA:104,0
DA:98,0
DA:104,0
DA:98,0
DA:104,0
DA:138,0
DA:141,0
DA:142,0
DA:138,0
DA:141,0
DA:142,0
DA:138,0
DA:141,0
DA:142,0
end_of_record
SF:/usr/include/c++/9/bits/stl_construct.h
FN:74,_ZSt10_ConstructISt6vectorIiSaIiEEJRKS2_EEvPT_DpOT0_
FNDA:0,_ZSt10_ConstructISt6vectorIiSaIiEEJRKS2_EEvPT_DpOT0_
FN:97,_ZSt8_DestroyISt6vectorIiSaIiEEEvPT_
FNDA:0,_ZSt8_DestroyISt6vectorIiSaIiEEEvPT_
FN:105,_ZNSt12_Destroy_auxILb0EE9__destroyIPSt6vectorIiSaIiEEEEvT_S6_
FNDA:0,_ZNSt12_Destroy_auxILb0EE9__destroyIPSt6vectorIiSaIiEEEEvT_S6_
FN:117,_ZNSt12_Destroy_auxILb1EE9__destroyIPiEEvT_S3_
FNDA:0,_ZNSt12_Destroy_auxILb1EE9__destroyIPiEEvT_S3_
FN:127,_ZSt8_DestroyIPSt6vectorIiSaIiEEEvT_S4_
FNDA:0,_ZSt8_DestroyIPSt6vectorIiSaIiEEEvT_S4_
FN:127,_ZSt8_DestroyIPiEvT_S1_
FNDA:0,_ZSt8_DestroyIPiEvT_S1_
FN:203,_ZSt8_DestroyIPSt6vectorIiSaIiEES2_EvT_S4_RSaIT0_E
FNDA:0,_ZSt8_DestroyIPSt6vectorIiSaIiEES2_EvT_S4_RSaIT0_E
FN:203,_ZSt8_DestroyIPiiEvT_S1_RSaIT0_E
FNDA:0,_ZSt8_DestroyIPiiEvT_S1_RSaIT0_E
DA:74,0
DA:75,0
DA:97,0
DA:98,0
DA:105,0
DA:107,0
DA:108,0
DA:109,0
DA:117,0
DA:127,0
DA:137,0
DA:138,0
DA:127,0
DA:137,0
DA:138,0
DA:203,0
DA:206,0
DA:207,0
DA:203,0
DA:206,0
DA:207,0
end_of_record
SF:/usr/include/c++/9/bits/stl_iterator_base_types.h
FN:205,_ZSt19__iterator_categoryIPKSt4pairIK11NonTerminalSt6vectorIS3_IiSaIiEESaIS5_EEEENSt15iterator_traitsIT_E17iterator_categoryERKSC_
FNDA:0,_ZSt19__iterator_categoryIPKSt4pairIK11NonTerminalSt6vectorIS3_IiSaIiEESaIS5_EEEENSt15iterator_traitsIT_E17iterator_categoryERKSC_
FN:205,_ZSt19__iterator_categoryIPKSt6vectorIiSaIiEEENSt15iterator_traitsIT_E17iterator_categoryERKS6_
FNDA:0,_ZSt19__iterator_categoryIPKSt6vectorIiSaIiEEENSt15iterator_traitsIT_E17iterator_categoryERKS6_
FN:205,_ZSt19__iterator_categoryIPKiENSt15iterator_traitsIT_E17iterator_categoryERKS3_
FNDA:0,_ZSt19__iterator_categoryIPKiENSt15iterator_traitsIT_E17iterator_categoryERKS3_
DA:205,0
DA:206,0
DA:205,0
DA:206,0
DA:205,0
DA:206,0
end_of_record
SF:/usr/include/c++/9/bits/stl_set.h
FN:94,_ZNSt3setIiSt4lessIiESaIiEEaSERKS3_
FNDA:0,_ZNSt3setIiSt4lessIiESaIiEEaSERKS3_
FN:167,_ZNSt3setIiSt4lessIiESaIiEEC2Ev
FNDA:0,_ZNSt3setIiSt4lessIiESaIiEEC2Ev
FN:281,_ZNSt3setIiSt4lessIiESaIiEED2Ev
FNDA:0,_ZNSt3setIiSt4lessIiESaIiEED2Ev
FN:344,_ZNKSt3setIiSt4lessIiESaIiEE5beginEv
FNDA:0,_ZNKSt3setIiSt4lessIiESaIiEE5beginEv
FN:353,_ZNKSt3setIiSt4lessIiESaIiEE3endEv
FNDA:0,_ZNKSt3setIiSt4lessIiESaIiEE3endEv
FN:509,_ZNSt3setIiSt4lessIiESaIiEE6insertERKi
FNDA:0,_ZNSt3setIiSt4lessIiESaIiEE6insertERKi
FN:748,_ZNKSt3setIiSt4lessIiESaIiEE5countERKi
FNDA:0,_ZNKSt3setIiSt4lessIiESaIiEE5countERKi
DA:94,0
DA:167,0
DA:281,0
DA:344,0
DA:345,0
DA:353,0
DA:354,0
DA:509,0
DA:511,0
DA:513,0
DA:748,0
DA:749,0
end_of_record
SF:/usr/include/c++/9/bits/move.h
FN:47,_ZSt11__addressofINSt8__detail10_Hash_nodeISt4pairIKiSt3setIiSt4lessIiESaIiEEELb0EEEEPT_RSB_
FNDA:0,_ZSt11__addressofINSt8__detail10_Hash_nodeISt4pairIKiSt3setIiSt4lessIiESaIiEEELb0EEEEPT_RSB_
FN:47,_ZSt11__addressofISt6vectorIiSaIiEEEPT_RS3_
FNDA:0,_ZSt11__addressofISt6vectorIiSaIiEEEPT_RS3_
FN:47,_ZSt11__addressofIPNSt8__detail15_Hash_node_baseEEPT_RS3_
FNDA:0,_ZSt11__addressofIPNSt8__detail15_Hash_node_baseEEPT_RS3_
FN:47,_ZSt11__addressofINSt8__detail10_Hash_nodeISt4pairIK11NonTerminalSt6vectorIS5_IiSaIiEESaIS7_EEELb0EEEEPT_RSC_
FNDA:0,_ZSt11__addressofINSt8__detail10_Hash_nodeISt4pairIK11NonTerminalSt6vectorIS5_IiSaIiEESaIS7_EEELb0EEEEPT_RSC_
FN:74,_ZSt7forwardIRKSt6vectorIiSaIiEEEOT_RNSt16remove_referenceIS5_E4typeE
FNDA:0,_ZSt7forwardIRKSt6vectorIiSaIiEEEOT_RNSt16remove_referenceIS5_E4typeE
FN:74,_ZSt7forwardIbEOT_RNSt16remove_referenceIS0_E4typeE
FNDA:0,_ZSt7forwardIbEOT_RNSt16remove_referenceIS0_E4typeE
FN:74,_ZSt7forwardI11NonTerminalEOT_RNSt16remove_referenceIS1_E4typeE
FNDA:0,_ZSt7forwardI11NonTerminalEOT_RNSt16remove_referenceIS1_E4typeE
FN:74,_ZSt7forwardIRKiEOT_RNSt16remove_referenceIS2_E4typeE
FNDA:0,_ZSt7forwardIRKiEOT_RNSt16remove_referenceIS2_E4typeE
FN:74,_ZSt7forwardIRSt17_Rb_tree_iteratorIiEEOT_RNSt16remove_referenceIS3_E4typeE
FNDA:0,_ZSt7forwardIRSt17_Rb_tree_iteratorIiEEOT_RNSt16remove_referenceIS3_E4typeE
FN:74,_ZSt7forwardIRbEOT_RNSt16remove_referenceIS1_E4typeE
FNDA:0,_ZSt7forwardIRbEOT_RNSt16remove_referenceIS1_E4typeE
FN:74,_ZSt7forwardISt17_Rb_tree_iteratorIiEEOT_RNSt16remove_referenceIS2_E4typeE
FNDA:0,_ZSt7forwardISt17_Rb_tree_iteratorIiEEOT_RNSt16remove_referenceIS2_E4typeE
FN:74,_ZSt7forwardIRPSt13_Rb_tree_nodeIiEEOT_RNSt16remove_referenceIS4_E4typeE
FNDA:0,_ZSt7forwardIRPSt13_Rb_tree_nodeIiEEOT_RNSt16remove_referenceIS4_E4typeE
FN:74,_ZSt7forwardIRPSt18_Rb_tree_node_baseEOT_RNSt16remove_referenceIS3_E4typeE
FNDA:0,_ZSt7forwardIRPSt18_Rb_tree_node_baseEOT_RNSt16remove_referenceIS3_E4typeE
FN:74,_ZSt7forwardISaINSt8__detail10_Hash_nodeISt4pairIK11NonTerminalSt6vectorIS5_IiSaIiEESaIS7_EEELb0EEEEEOT_RNSt16remove_referenceISD_E4typeE
FNDA:0,_ZSt7forwardISaINSt8__detail10_Hash_nodeISt4pairIK11NonTerminalSt6vectorIS5_IiSaIiEESaIS7_EEELb0EEEEEOT_RNSt16remove_referenceISD_E4typeE
FN:74,_ZSt7forwardIRKSt4pairIK11NonTerminalSt6vectorIS3_IiSaIiEESaIS5_EEEEOT_RNSt16remove_referenceISB_E4typeE
FNDA:0,_ZSt7forwardIRKSt4pairIK11NonTerminalSt6vectorIS3_IiSaIiEESaIS5_EEEEOT_RNSt16remove_referenceISB_E4typeE
FN:74,_ZSt7forwardIRKSt8equal_toI11NonTerminalEEOT_RNSt16remove_referenceIS5_E4typeE
FNDA:0,_ZSt7forwardIRKSt8equal_toI11NonTerminalEEOT_RNSt16remove_referenceIS5_E4typeE
FN:74,_ZSt7forwardINSt8__detail14_Node_iteratorISt4pairIK11NonTerminalSt6vectorIS5_IiSaIiEESaIS7_EEELb0ELb0EEEEOT_RNSt16remove_referenceISC_E4typeE
FNDA:0,_ZSt7forwardINSt8__detail14_Node_iteratorISt4pairIK11NonTerminalSt6vectorIS5_IiSaIiEESaIS7_EEELb0ELb0EEEEOT_RNSt16remove_referenceISC_E4typeE
FN:74,_ZSt7forwardIRKNSt8__detail10_Select1stEEOT_RNSt16remove_referenceIS4_E4typeE
FNDA:0,_ZSt7forwardIRKNSt8__detail10_Select1stEEOT_RNSt16remove_referenceIS4_E4typeE
FN:74,_ZSt7forwardIRKSt4hashI11NonTerminalEEOT_RNSt16remove_referenceIS5_E4typeE
FNDA:0,_ZSt7forwardIRKSt4hashI11NonTerminalEEOT_RNSt16remove_referenceIS5_E4typeE
FN:74,_ZSt7forwardIRKNSt8__detail18_Mod_range_hashingEEOT_RNSt16remove_referenceIS4_E4typeE
FNDA:0,_ZSt7forwardIRKNSt8__detail18_Mod_range_hashingEEOT_RNSt16remove_referenceIS4_E4typeE
FN:74,_ZSt7forwardIRSt4pairIK11NonTerminalSt6vectorIS3_IiSaIiEESaIS5_EEEEOT_RNSt16remove_referenceISA_E4typeE
FNDA:0,_ZSt7forwardIRSt4pairIK11NonTerminalSt6vectorIS3_IiSaIiEESaIS5_EEEEOT_RNSt16remove_referenceISA_E4typeE
FN:74,_ZSt7forwardIRSt4pairIKiSt3setIiSt4lessIiESaIiEEEEOT_RNSt16remove_referenceIS9_E4typeE
FNDA:0,_ZSt7forwardIRSt4pairIKiSt3setIiSt4lessIiESaIiEEEEOT_RNSt16remove_referenceIS9_E4typeE
FN:74,_ZSt7forwardIRKSt4pairIKiSt3setIiSt4lessIiESaIiEEEEOT_RNSt16remove_referenceISA_E4typeE
FNDA:0,_ZSt7forwardIRKSt4pairIKiSt3setIiSt4lessIiESaIiEEEEOT_RNSt16remove_referenceISA_E4typeE
FN:138,_ZSt9addressofIPNSt8__detail15_Hash_node_baseEEPT_RS3_
FNDA:0,_ZSt9addressofIPNSt8__detail15_Hash_node_baseEEPT_RS3_
FN:138,_ZSt9addressofINSt8__detail10_Hash_nodeISt4pairIKiSt3setIiSt4lessIiESaIiEEELb0EEEEPT_RSB_
FNDA:0,_ZSt9addressofINSt8__detail10_Hash_nodeISt4pairIKiSt3setIiSt4lessIiESaIiEEELb0EEEEPT_RSB_
FN:138,_ZSt9addressofINSt8__detail10_Hash_nodeISt4pairIK11NonTerminalSt6vectorIS5_IiSaIiEESaIS7_EEELb0EEEEPT_RSC_
FNDA:0,_ZSt9addressofINSt8__detail10_Hash_nodeISt4pairIK11NonTerminalSt6vectorIS5_IiSaIiEESaIS7_EEELb0EEEEPT_RSC_
DA:47,0
DA:48,0
DA:47,0
DA:48,0
DA:47,0
DA:48,0
DA:47,0
DA:48,0
DA:74,0
DA:75,0
DA:74,0
DA:75,0
DA:74,0
DA:75,0
DA:74,0
DA:75,0
DA:74,0
DA:75,0
DA:74,0
DA:75,0
DA:74,0
DA:75,0
DA:74,0
DA:75,0
DA:74,0
DA:75,0
DA:74,0
DA:75,0
DA:74,0
DA:75,0
DA:74,0
DA:75,0
DA:74,0
DA:75,0
DA:74,0
DA:75,0
DA:74,0
DA:75,0
DA:74,0
DA:75,0
DA:74,0
DA:75,0
DA:74,0
DA:75,0
DA:74,0
DA:75,0
DA:138,0
DA:139,0
DA:138,0
DA:139,0
DA:138,0
DA:139,0
end_of_record
SF:/usr/include/c++/9/ext/alloc_traits.h
FN:97,_ZN9__gnu_cxx14__alloc_traitsISaIiEiE17_S_select_on_copyERKS1_
FNDA:0,_ZN9__gnu_cxx14__alloc_traitsISaIiEiE17_S_select_on_copyERKS1_
FN:97,_ZN9__gnu_cxx14__alloc_traitsISaISt6vectorIiSaIiEEES3_E17_S_select_on_copyERKS4_
FNDA:0,_ZN9__gnu_cxx14__alloc_traitsISaISt6vectorIiSaIiEEES3_E17_S_select_on_copyERKS4_
FN:103,_ZN9__gnu_cxx14__alloc_traitsISaISt13_Rb_tree_nodeIiEES2_E27_S_propagate_on_copy_assignEv
FNDA:0,_ZN9__gnu_cxx14__alloc_traitsISaISt13_Rb_tree_nodeIiEES2_E27_S_propagate_on_copy_assignEv
FN:112,_ZN9__gnu_cxx14__alloc_traitsISaISt13_Rb_tree_nodeIiEES2_E15_S_always_equalEv
FNDA:0,_ZN9__gnu_cxx14__alloc_traitsISaISt13_Rb_tree_nodeIiEES2_E15_S_always_equalEv
DA:97,0
DA:98,0
DA:97,0
DA:98,0
DA:103,0
DA:104,0
DA:112,0
DA:113,0
end_of_record
SF:/usr/include/c++/9/bits/stl_pair.h
FN:303,_ZNSt4pairIK11NonTerminalSt6vectorIS2_IiSaIiEESaIS4_EEEC2ERKS7_
FNDA:0,_ZNSt4pairIK11NonTerminalSt6vectorIS2_IiSaIiEESaIS4_EEEC2ERKS7_
FN:311,_ZNSt4pairIPSt18_Rb_tree_node_baseS1_EC2IRS1_Lb1EEEOT_RKS1_
FNDA:0,_ZNSt4pairIPSt18_Rb_tree_node_baseS1_EC2IRS1_Lb1EEEOT_RKS1_
FN:311,_ZNSt4pairIK11NonTerminalSt6vectorIS2_IiSaIiEESaIS4_EEEC2IS0_Lb1EEEOT_RKS6_
FNDA:0,_ZNSt4pairIK11NonTerminalSt6vectorIS2_IiSaIiEESaIS4_EEEC2IS0_Lb1EEEOT_RKS6_
FN:341,_ZNSt4pairINSt8__detail14_Node_iteratorIS_IK11NonTerminalSt6vectorIS4_IiSaIiEESaIS6_EEELb0ELb0EEEbEC2ISA_bLb1EEEOT_OT0_
FNDA:0,_ZNSt4pairINSt8__detail14_Node_iteratorIS_IK11NonTerminalSt6vectorIS4_IiSaIiEESaIS6_EEELb0ELb0EEEbEC2ISA_bLb1EEEOT_OT0_
FN:341,_ZNSt4pairIPSt18_Rb_tree_node_baseS1_EC2IRPSt13_Rb_tree_nodeIiERS1_Lb1EEEOT_OT0_
FNDA:0,_ZNSt4pairIPSt18_Rb_tree_node_baseS1_EC2IRPSt13_Rb_tree_nodeIiERS1_Lb1EEEOT_OT0_
FN:341,_ZNSt4pairISt17_Rb_tree_iteratorIiEbEC2IS1_bLb1EEEOT_OT0_
FNDA:0,_ZNSt4pairISt17_Rb_tree_iteratorIiEbEC2IS1_bLb1EEEOT_OT0_
FN:341,_ZNSt4pairISt23_Rb_tree_const_iteratorIiEbEC2IRSt17_Rb_tree_iteratorIiERbLb1EEEOT_OT0_
FNDA:0,_ZNSt4pairISt23_Rb_tree_const_iteratorIiEbEC2IRSt17_Rb_tree_iteratorIiERbLb1EEEOT_OT0_
FN:524,_ZSt9make_pairINSt8__detail14_Node_iteratorISt4pairIK11NonTerminalSt6vectorIS5_IiSaIiEESaIS7_EEELb0ELb0EEEbES2_INSt17__decay_and_stripIT_E6__typeENSC_IT0_E6__typeEEOSD_OSG_
FNDA:0,_ZSt9make_pairINSt8__detail14_Node_iteratorISt4pairIK11NonTerminalSt6vectorIS5_IiSaIiEESaIS7_EEELb0ELb0EEEbES2_INSt17__decay_and_stripIT_E6__typeENSC_IT0_E6__typeEEOSD_OSG_
DA:303,0
DA:311,0
DA:312,0
DA:311,0
DA:312,0
DA:341,0
DA:342,0
DA:341,0
DA:342,0
DA:341,0
DA:342,0
DA:341,0
DA:342,0
DA:524,0
DA:529,0
end_of_record
TN:
SF:/usr/include/c++/9/ext/aligned_buffer.h
FN:64,_ZN9__gnu_cxx16__aligned_membufIiE7_M_addrEv
FNDA:0,_ZN9__gnu_cxx16__aligned_membufIiE7_M_addrEv
FN:68,_ZNK9__gnu_cxx16__aligned_membufIiE7_M_addrEv
FNDA:0,_ZNK9__gnu_cxx16__aligned_membufIiE7_M_addrEv
FN:72,_ZN9__gnu_cxx16__aligned_membufIiE6_M_ptrEv
FNDA:0,_ZN9__gnu_cxx16__aligned_membufIiE6_M_ptrEv
FN:76,_ZNK9__gnu_cxx16__aligned_membufIiE6_M_ptrEv
FNDA:0,_ZNK9__gnu_cxx16__aligned_membufIiE6_M_ptrEv
FN:102,_ZN9__gnu_cxx16__aligned_bufferISt4pairIKiSt3setIiSt4lessIiESaIiEEEE7_M_addrEv
FNDA:0,_ZN9__gnu_cxx16__aligned_bufferISt4pairIKiSt3setIiSt4lessIiESaIiEEEE7_M_addrEv
FN:102,_ZN9__gnu_cxx16__aligned_bufferISt4pairIK11NonTerminalSt6vectorIS4_IiSaIiEESaIS6_EEEE7_M_addrEv
FNDA:0,_ZN9__gnu_cxx16__aligned_bufferISt4pairIK11NonTerminalSt6vectorIS4_IiSaIiEESaIS6_EEEE7_M_addrEv
FN:108,_ZNK9__gnu_cxx16__aligned_bufferISt4pairIK11NonTerminalSt6vectorIS4_IiSaIiEESaIS6_EEEE7_M_addrEv
FNDA:0,_ZNK9__gnu_cxx16__aligned_bufferISt4pairIK11NonTerminalSt6vectorIS4_IiSaIiEESaIS6_EEEE7_M_addrEv
FN:108,_ZNK9__gnu_cxx16__aligned_bufferISt4pairIKiSt3setIiSt4lessIiESaIiEEEE7_M_addrEv
FNDA:0,_ZNK9__gnu_cxx16__aligned_bufferISt4pairIKiSt3setIiSt4lessIiESaIiEEEE7_M_addrEv
FN:114,_ZN9__gnu_cxx16__aligned_bufferISt4pairIKiSt3setIiSt4lessIiESaIiEEEE6_M_ptrEv
FNDA:0,_ZN9__gnu_cxx16__aligned_bufferISt4pairIKiSt3setIiSt4lessIiESaIiEEEE6_M_ptrEv
FN:114,_ZN9__gnu_cxx16__aligned_bufferISt4pairIK11NonTerminalSt6vectorIS4_IiSaIiEESaIS6_EEEE6_M_ptrEv
FNDA:0,_ZN9__gnu_cxx16__aligned_bufferISt4pairIK11NonTerminalSt6vectorIS4_IiSaIiEESaIS6_EEEE6_M_ptrEv
FN:118,_ZNK9__gnu_cxx16__aligned_bufferISt4pairIK11NonTerminalSt6vectorIS4_IiSaIiEESaIS6_EEEE6_M_ptrEv
FNDA:0,_ZNK9__gnu_cxx16__aligned_bufferISt4pairIK11NonTerminalSt6vectorIS4_IiSaIiEESaIS6_EEEE6_M_ptrEv
FN:118,_ZNK9__gnu_cxx16__aligned_bufferISt4pairIKiSt3setIiSt4lessIiESaIiEEEE6_M_ptrEv
FNDA:0,_ZNK9__gnu_cxx16__aligned_bufferISt4pairIKiSt3setIiSt4lessIiESaIiEEEE6_M_ptrEv
DA:64,0
DA:65,0
DA:68,0
DA:69,0
DA:72,0
DA:73,0
DA:76,0
DA:77,0
DA:102,0
DA:104,0
DA:102,0
DA:104,0
DA:108,0
DA:110,0
DA:108,0
DA:110,0
DA:114,0
DA:115,0
DA:114,0
DA:115,0
DA:118,0
DA:119,0
DA:118,0
DA:119,0
end_of_record
SF:/usr/include/c++/9/new
FN:173,_ZnwmPv
FNDA:0,_ZnwmPv
FN:179,_ZdlPvS_
FNDA:0,_ZdlPvS_
DA:173,0
DA:174,0
DA:179,0
end_of_record
SF:/home/idra/Sync/EPQ/src/grammar/productions.hpp
end_of_record
SF:/usr/include/c++/9/bits/stl_iterator_base_types.h
FN:205,_ZSt19__iterator_categoryIPKSt4pairIK11NonTerminalSt6vectorIS3_IiSaIiEESaIS5_EEEENSt15iterator_traitsIT_E17iterator_categoryERKSC_
FNDA:0,_ZSt19__iterator_categoryIPKSt4pairIK11NonTerminalSt6vectorIS3_IiSaIiEESaIS5_EEEENSt15iterator_traitsIT_E17iterator_categoryERKSC_
FN:205,_ZSt19__iterator_categoryIPKSt6vectorIiSaIiEEENSt15iterator_traitsIT_E17iterator_categoryERKS6_
FNDA:0,_ZSt19__iterator_categoryIPKSt6vectorIiSaIiEEENSt15iterator_traitsIT_E17iterator_categoryERKS6_
FN:205,_ZSt19__iterator_categoryIPKiENSt15iterator_traitsIT_E17iterator_categoryERKS3_
FNDA:0,_ZSt19__iterator_categoryIPKiENSt15iterator_traitsIT_E17iterator_categoryERKS3_
DA:205,0
DA:206,0
DA:205,0
DA:206,0
DA:205,0
DA:206,0
end_of_record
SF:/usr/include/c++/9/bits/stl_iterator_base_funcs.h
FN:98,_ZSt10__distanceIPKSt4pairIK11NonTerminalSt6vectorIS3_IiSaIiEESaIS5_EEEENSt15iterator_traitsIT_E15difference_typeESC_SC_St26random_access_iterator_tag
FNDA:0,_ZSt10__distanceIPKSt4pairIK11NonTerminalSt6vectorIS3_IiSaIiEESaIS5_EEEENSt15iterator_traitsIT_E15difference_typeESC_SC_St26random_access_iterator_tag
FN:98,_ZSt10__distanceIPKSt6vectorIiSaIiEEENSt15iterator_traitsIT_E15difference_typeES6_S6_St26random_access_iterator_tag
FNDA:0,_ZSt10__distanceIPKSt6vectorIiSaIiEEENSt15iterator_traitsIT_E15difference_typeES6_S6_St26random_access_iterator_tag
FN:98,_ZSt10__distanceIPKiENSt15iterator_traitsIT_E15difference_typeES3_S3_St26random_access_iterator_tag
FNDA:0,_ZSt10__distanceIPKiENSt15iterator_traitsIT_E15difference_typeES3_S3_St26random_access_iterator_tag
FN:138,_ZSt8distanceIPKSt4pairIK11NonTerminalSt6vectorIS3_IiSaIiEESaIS5_EEEENSt15iterator_traitsIT_E15difference_typeESC_SC_
FNDA:0,_ZSt8distanceIPKSt4pairIK11NonTerminalSt6vectorIS3_IiSaIiEESaIS5_EEEENSt15iterator_traitsIT_E15difference_typeESC_SC_
FN:138,_ZSt8distanceIPKSt6vectorIiSaIiEEENSt15iterator_traitsIT_E15difference_typeES6_S6_
FNDA:0,_ZSt8distanceIPKSt6vectorIiSaIiEEENSt15iterator_traitsIT_E15difference_typeES6_S6_
FN:138,_ZSt8distanceIPKiENSt15iterator_traitsIT_E15difference_typeES3_S3_
FNDA:0,_ZSt8distanceIPKiENSt15iterator_traitsIT_E15difference_typeES3_S3_
DA:98,0
DA:104,0
DA:98,0
DA:104,0
DA:98,0
DA:104,0
DA:138,0
DA:141,0
DA:142,0
DA:138,0
DA:141,0
DA:142,0
DA:138,0
DA:141,0
DA:142,0
end_of_record
SF:/usr/include/c++/9/bits/stl_construct.h
FN:74,_ZSt10_ConstructISt6vectorIiSaIiEEJRKS2_EEvPT_DpOT0_
FNDA:0,_ZSt10_ConstructISt6vectorIiSaIiEEJRKS2_EEvPT_DpOT0_
FN:97,_ZSt8_DestroyISt6vectorIiSaIiEEEvPT_
FNDA:0,_ZSt8_DestroyISt6vectorIiSaIiEEEvPT_
FN:105,_ZNSt12_Destroy_auxILb0EE9__destroyIPSt6vectorIiSaIiEEEEvT_S6_
FNDA:0,_ZNSt12_Destroy_auxILb0EE9__destroyIPSt6vectorIiSaIiEEEEvT_S6_
FN:117,_ZNSt12_Destroy_auxILb1EE9__destroyIPiEEvT_S3_
FNDA:0,_ZNSt12_Destroy_auxILb1EE9__destroyIPiEEvT_S3_
FN:127,_ZSt8_DestroyIPSt6vectorIiSaIiEEEvT_S4_
FNDA:0,_ZSt8_DestroyIPSt6vectorIiSaIiEEEvT_S4_
FN:127,_ZSt8_DestroyIPiEvT_S1_
FNDA:0,_ZSt8_DestroyIPiEvT_S1_
FN:203,_ZSt8_DestroyIPSt6vectorIiSaIiEES2_EvT_S4_RSaIT0_E
FNDA:0,_ZSt8_DestroyIPSt6vectorIiSaIiEES2_EvT_S4_RSaIT0_E
FN:203,_ZSt8_DestroyIPiiEvT_S1_RSaIT0_E
FNDA:0,_ZSt8_DestroyIPiiEvT_S1_RSaIT0_E
DA:74,0
DA:75,0
DA:97,0
DA:98,0
DA:105,0
DA:107,0
DA:108,0
DA:109,0
DA:117,0
DA:127,0
DA:137,0
DA:138,0
DA:127,0
DA:137,0
DA:138,0
DA:203,0
DA:206,0
DA:207,0
DA:203,0
DA:206,0
DA:207,0
end_of_record
SF:/usr/include/c++/9/bits/stl_function.h
FN:355,_ZNKSt8equal_toI11NonTerminalEclERKS0_S3_
FNDA:0,_ZNKSt8equal_toI11NonTerminalEclERKS0_S3_
FN:355,_ZNKSt8equal_toIiEclERKiS2_
FNDA:0,_ZNKSt8equal_toIiEclERKiS2_
FN:385,_ZNKSt4lessIiEclERKiS2_
FNDA:0,_ZNKSt4lessIiEclERKiS2_
FN:1139,_ZNKSt9_IdentityIiEclERKi
FNDA:0,_ZNKSt9_IdentityIiEclERKi
DA:355,0
DA:356,0
DA:355,0
DA:356,0
DA:385,0
DA:386,0
DA:1139,0
DA:1140,0
end_of_record
SF:/usr/include/c++/9/bits/hashtable_policy.h
FN:70,_ZNSt8__detail13__distance_fwIPKSt4pairIK11NonTerminalSt6vectorIS4_IiSaIiEESaIS6_EEEEENSt15iterator_traitsIT_E15difference_typeESD_SD_St20forward_iterator_tag
FNDA:0,_ZNSt8__detail13__distance_fwIPKSt4pairIK11NonTerminalSt6vectorIS4_IiSaIiEESaIS6_EEEEENSt15iterator_traitsIT_E15difference_typeESD_SD_St20forward_iterator_tag
FN:76,_ZNSt8__detail13__distance_fwIPKSt4pairIK11NonTerminalSt6vectorIS4_IiSaIiEESaIS6_EEEEENSt15iterator_traitsIT_E15difference_typeESD_SD_
FNDA:0,_ZNSt8__detail13__distance_fwIPKSt4pairIK11NonTerminalSt6vectorIS4_IiSaIiEESaIS6_EEEEENSt15iterator_traitsIT_E15difference_typeESD_SD_
FN:92,_ZNKSt8__detail10_Select1stclIRSt4pairIKiSt3setIiSt4lessIiESaIiEEEEEDTcl3getILi0EEcl7forwardIT_Efp_EEEOSB_
FNDA:0,_ZNKSt8__detail10_Select1stclIRSt4pairIKiSt3setIiSt4lessIiESaIiEEEEEDTcl3getILi0EEcl7forwardIT_Efp_EEEOSB_
FN:92,_ZNKSt8__detail10_Select1stclIRKSt4pairIK11NonTerminalSt6vectorIS5_IiSaIiEESaIS7_EEEEEDTcl3getILi0EEcl7forwardIT_Efp_EEEOSD_
FNDA:0,_ZNKSt8__detail10_Select1stclIRKSt4pairIK11NonTerminalSt6vectorIS5_IiSaIiEESaIS7_EEEEEDTcl3getILi0EEcl7forwardIT_Efp_EEEOSD_
FN:92,_ZNKSt8__detail10_Select1stclIRSt4pairIK11NonTerminalSt6vectorIS5_IiSaIiEESaIS7_EEEEEDTcl3getILi0EEcl7forwardIT_Efp_EEEOSC_
FNDA:0,_ZNKSt8__detail10_Select1stclIRSt4pairIK11NonTerminalSt6vectorIS5_IiSaIiEESaIS7_EEEEEDTcl3getILi0EEcl7forwardIT_Efp_EEEOSC_
FN:92,_ZNKSt8__detail10_Select1stclIRKSt4pairIKiSt3setIiSt4lessIiESaIiEEEEEDTcl3getILi0EEcl7forwardIT_Efp_EEEOSC_
FNDA:0,_ZNKSt8__detail10_Select1stclIRKSt4pairIKiSt3setIiSt4lessIiESaIiEEEEEDTcl3getILi0EEcl7forwardIT_Efp_EEEOSC_
FN:161,_ZNSt8__detail10_AllocNodeISaINS_10_Hash_nodeISt4pairIK11NonTerminalSt6vectorIS5_IiSaIiEESaIS7_EEELb0EEEEEC2ERNS_16_Hashtable_allocISC_EE
FNDA:0,_ZNSt8__detail10_AllocNodeISaINS_10_Hash_nodeISt4pairIK11NonTerminalSt6vectorIS5_IiSaIiEESaIS7_EEELb0EEEEEC2ERNS_16_Hashtable_allocISC_EE
FN:166,_ZNKSt8__detail10_AllocNodeISaINS_10_Hash_nodeISt4pairIK11NonTerminalSt6vectorIS5_IiSaIiEESaIS7_EEELb0EEEEEclIRKSA_EEPSB_OT_
FNDA:0,_ZNKSt8__detail10_AllocNodeISaINS_10_Hash_nodeISt4pairIK11NonTerminalSt6vectorIS5_IiSaIiEESaIS7_EEELb0EEEEEclIRKSA_EEPSB_OT_
FN:218,_ZNSt8__detail15_Hash_node_baseC2Ev
FNDA:0,_ZNSt8__detail15_Hash_node_baseC2Ev
FN:236,_ZNSt8__detail21_Hash_node_value_baseISt4pairIKiSt3setIiSt4lessIiESaIiEEEE9_M_valptrEv
FNDA:0,_ZNSt8__detail21_Hash_node_value_baseISt4pairIKiSt3setIiSt4lessIiESaIiEEEE9_M_valptrEv
FN:236,_ZNSt8__detail21_Hash_node_value_baseISt4pairIK11NonTerminalSt6vectorIS4_IiSaIiEESaIS6_EEEE9_M_valptrEv
FNDA:0,_ZNSt8__detail21_Hash_node_value_baseISt4pairIK11NonTerminalSt6vectorIS4_IiSaIiEESaIS6_EEEE9_M_valptrEv
FN:240,_ZNKSt8__detail21_Hash_node_value_baseISt4pairIK11NonTerminalSt6vectorIS4_IiSaIiEESaIS6_EEEE9_M_valptrEv
FNDA:0,_ZNKSt8__detail21_Hash_node_value_baseISt4pairIK11NonTerminalSt6vectorIS4_IiSaIiEESaIS6_EEEE9_M_valptrEv
FN:240,_ZNKSt8__detail21_Hash_node_value_baseISt4pairIKiSt3setIiSt4lessIiESaIiEEEE9_M_valptrEv
FNDA:0,_ZNKSt8__detail21_Hash_node_value_baseISt4pairIKiSt3setIiSt4lessIiESaIiEEEE9_M_valptrEv
FN:244,_ZNSt8__detail21_Hash_node_value_baseISt4pairIK11NonTerminalSt6vectorIS4_IiSaIiEESaIS6_EEEE4_M_vEv
FNDA:0,_ZNSt8__detail21_Hash_node_value_baseISt4pairIK11NonTerminalSt6vectorIS4_IiSaIiEESaIS6_EEEE4_M_vEv
FN:244,_ZNSt8__detail21_Hash_node_value_baseISt4pairIKiSt3setIiSt4lessIiESaIiEEEE4_M_vEv
FNDA:0,_ZNSt8__detail21_Hash_node_value_baseISt4pairIKiSt3setIiSt4lessIiESaIiEEEE4_M_vEv
FN:248,_ZNKSt8__detail21_Hash_node_value_baseISt4pairIKiSt3setIiSt4lessIiESaIiEEEE4_M_vEv
FNDA:0,_ZNKSt8__detail21_Hash_node_value_baseISt4pairIKiSt3setIiSt4lessIiESaIiEEEE4_M_vEv
FN:248,_ZNKSt8__detail21_Hash_node_value_baseISt4pairIK11NonTerminalSt6vectorIS4_IiSaIiEESaIS6_EEEE4_M_vEv
FNDA:0,_ZNKSt8__detail21_Hash_node_value_baseISt4pairIK11NonTerminalSt6vectorIS4_IiSaIiEESaIS6_EEEE4_M_vEv
FN:282,_ZNKSt8__detail10_Hash_nodeISt4pairIK11NonTerminalSt6vectorIS4_IiSaIiEESaIS6_EEELb0EE7_M_nextEv
FNDA:0,_ZNKSt8__detail10_Hash_nodeISt4pairIK11NonTerminalSt6vectorIS4_IiSaIiEESaIS6_EEELb0EE7_M_nextEv
FN:282,_ZNKSt8__detail10_Hash_nodeISt4pairIKiSt3setIiSt4lessIiESaIiEEELb0EE7_M_nextEv
FNDA:0,_ZNKSt8__detail10_Hash_nodeISt4pairIKiSt3setIiSt4lessIiESaIiEEELb0EE7_M_nextEv
FN:294,_ZNSt8__detail19_Node_iterator_baseISt4pairIK11NonTerminalSt6vectorIS4_IiSaIiEESaIS6_EEELb0EEC2EPNS_10_Hash_nodeIS9_Lb0EEE
FNDA:0,_ZNSt8__detail19_Node_iterator_baseISt4pairIK11NonTerminalSt6vectorIS4_IiSaIiEESaIS6_EEELb0EEC2EPNS_10_Hash_nodeIS9_Lb0EEE
FN:294,_ZNSt8__detail19_Node_iterator_baseISt4pairIKiSt3setIiSt4lessIiESaIiEEELb0EEC2EPNS_10_Hash_nodeIS8_Lb0EEE
FNDA:0,_ZNSt8__detail19_Node_iterator_baseISt4pairIKiSt3setIiSt4lessIiESaIiEEELb0EEC2EPNS_10_Hash_nodeIS8_Lb0EEE
FN:298,_ZNSt8__detail19_Node_iterator_baseISt4pairIK11NonTerminalSt6vectorIS4_IiSaIiEESaIS6_EEELb0EE7_M_incrEv
FNDA:330,_ZNSt8__detail19_Node_iterator_baseISt4pairIK11NonTerminalSt6vectorIS4_IiSaIiEESaIS6_EEELb0EE7_M_incrEv
FN:298,_ZNSt8__detail19_Node_iterator_baseISt4pairIKiSt3setIiSt4lessIiESaIiEEELb0EE7_M_incrEv
FNDA:1500,_ZNSt8__detail19_Node_iterator_baseISt4pairIKiSt3setIiSt4lessIiESaIiEEELb0EE7_M_incrEv
FN:311,_ZNSt8__detailneISt4pairIK11NonTerminalSt6vectorIS4_IiSaIiEESaIS6_EEELb0EEEbRKNS_19_Node_iterator_baseIT_XT0_EEESE_
FNDA:335,_ZNSt8__detailneISt4pairIK11NonTerminalSt6vectorIS4_IiSaIiEESaIS6_EEELb0EEEbRKNS_19_Node_iterator_baseIT_XT0_EEESE_
FN:311,_ZNSt8__detailneISt4pairIKiSt3setIiSt4lessIiESaIiEEELb0EEEbRKNS_19_Node_iterator_baseIT_XT0_EEESD_
FNDA:1512,_ZNSt8__detailneISt4pairIKiSt3setIiSt4lessIiESaIiEEELb0EEEbRKNS_19_Node_iterator_baseIT_XT0_EEESD_
FN:340,_ZNSt8__detail14_Node_iteratorISt4pairIKiSt3setIiSt4lessIiESaIiEEELb0ELb0EEC2EPNS_10_Hash_nodeIS8_Lb0EEE
FNDA:0,_ZNSt8__detail14_Node_iteratorISt4pairIKiSt3setIiSt4lessIiESaIiEEELb0ELb0EEC2EPNS_10_Hash_nodeIS8_Lb0EEE
FN:340,_ZNSt8__detail14_Node_iteratorISt4pairIK11NonTerminalSt6vectorIS4_IiSaIiEESaIS6_EEELb0ELb0EEC2EPNS_10_Hash_nodeIS9_Lb0EEE
FNDA:0,_ZNSt8__detail14_Node_iteratorISt4pairIK11NonTerminalSt6vectorIS4_IiSaIiEESaIS6_EEELb0ELb0EEC2EPNS_10_Hash_nodeIS9_Lb0EEE
FN:344,_ZNKSt8__detail14_Node_iteratorISt4pairIKiSt3setIiSt4lessIiESaIiEEELb0ELb0EEdeEv
FNDA:1500,_ZNKSt8__detail14_Node_iteratorISt4pairIKiSt3setIiSt4lessIiESaIiEEELb0ELb0EEdeEv
FN:348,_ZNKSt8__detail14_Node_iteratorISt4pairIKiSt3setIiSt4lessIiESaIiEEELb0ELb0EEptEv
FNDA:0,_ZNKSt8__detail14_Node_iteratorISt4pairIKiSt3setIiSt4lessIiESaIiEEELb0ELb0EEptEv
FN:352,_ZNSt8__detail14_Node_iteratorISt4pairIKiSt3setIiSt4lessIiESaIiEEELb0ELb0EEppEv
FNDA:1500,_ZNSt8__detail14_Node_iteratorISt4pairIKiSt3setIiSt4lessIiESaIiEEELb0ELb0EEppEv
FN:388,_ZNSt8__detail20_Node_const_iteratorISt4pairIK11NonTerminalSt6vectorIS4_IiSaIiEESaIS6_EEELb0ELb0EEC2EPNS_10_Hash_nodeIS9_Lb0EEE
FNDA:10,_ZNSt8__detail20_Node_const_iteratorISt4pairIK11NonTerminalSt6vectorIS4_IiSaIiEESaIS6_EEELb0ELb0EEC2EPNS_10_Hash_nodeIS9_Lb0EEE
FN:396,_ZNKSt8__detail20_Node_const_iteratorISt4pairIK11NonTerminalSt6vectorIS4_IiSaIiEESaIS6_EEELb0ELb0EEdeEv
FNDA:330,_ZNKSt8__detail20_Node_const_iteratorISt4pairIK11NonTerminalSt6vectorIS4_IiSaIiEESaIS6_EEELb0ELb0EEdeEv
FN:404,_ZNSt8__detail20_Node_const_iteratorISt4pairIK11NonTerminalSt6vectorIS4_IiSaIiEESaIS6_EEELb0ELb0EEppEv
FNDA:330,_ZNSt8__detail20_Node_const_iteratorISt4pairIK11NonTerminalSt6vectorIS4_IiSaIiEESaIS6_EEELb0ELb0EEppEv
FN:431,_ZNKSt8__detail18_Mod_range_hashingclEmm
FNDA:0,_ZNKSt8__detail18_Mod_range_hashingclEmm
FN:449,_ZNSt8__detail20_Prime_rehash_policyC2Ef
FNDA:0,_ZNSt8__detail20_Prime_rehash_policyC2Ef
FN:462,_ZNKSt8__detail20_Prime_rehash_policy19_M_bkt_for_elementsEm
FNDA:0,_ZNKSt8__detail20_Prime_rehash_policy19_M_bkt_for_elementsEm
FN:476,_ZNKSt8__detail20_Prime_rehash_policy8_M_stateEv
FNDA:0,_ZNKSt8__detail20_Prime_rehash_policy8_M_stateEv
FN:484,_ZNSt8__detail20_Prime_rehash_policy8_M_resetEm
FNDA:0,_ZNSt8__detail20_Prime_rehash_policy8_M_resetEm
FN:714,_ZNSt8__detail9_Map_baseIiSt4pairIKiSt3setIiSt4lessIiESaIiEEESaIS8_ENS_10_Select1stESt8equal_toIiESt4hashIiENS_18_Mod_range_hashingENS_20_Default_ranged_hashENS_20_Prime_rehash_policyENS_17_Hashtable_traitsILb0ELb0ELb1EEELb1EEixEOi
FNDA:264,_ZNSt8__detail9_Map_baseIiSt4pairIKiSt3setIiSt4lessIiESaIiEEESaIS8_ENS_10_Select1stESt8equal_toIiESt4hashIiENS_18_Mod_range_hashingENS_20_Default_ranged_hashENS_20_Prime_rehash_policyENS_17_Hashtable_traitsILb0ELb0ELb1EEELb1EEixEOi
FN:739,_ZNSt8__detail9_Map_baseIiSt4pairIKiSt3setIiSt4lessIiESaIiEEESaIS8_ENS_10_Select1stESt8equal_toIiESt4hashIiENS_18_Mod_range_hashingENS_20_Default_ranged_hashENS_20_Prime_rehash_policyENS_17_Hashtable_traitsILb0ELb0ELb1EEELb1EE2atERS2_
FNDA:0,_ZNSt8__detail9_Map_baseIiSt4pairIKiSt3setIiSt4lessIiESaIiEEESaIS8_ENS_10_Select1stESt8equal_toIiESt4hashIiENS_18_Mod_range_hashingENS_20_Default_ranged_hashENS_20_Prime_rehash_policyENS_17_Hashtable_traitsILb0ELb0ELb1EEELb1EE2atERS2_
FN:805,_ZNSt8__detail12_Insert_baseI11NonTerminalSt4pairIKS1_St6vectorIS4_IiSaIiEESaIS6_EEESaIS9_ENS_10_Select1stESt8equal_toIS1_ESt4hashIS1_ENS_18_Mod_range_hashingENS_20_Default_ranged_hashENS_20_Prime_rehash_policyENS_17_Hashtable_traitsILb0ELb0ELb1EEEE20_M_conjure_hashtableEv
FNDA:0,_ZNSt8__detail12_Insert_baseI11NonTerminalSt4pairIKS1_St6vectorIS4_IiSaIiEESaIS6_EEESaIS9_ENS_10_Select1stESt8equal_toIS1_ESt4hashIS1_ENS_18_Mod_range_hashingENS_20_Default_ranged_hashENS_20_Prime_rehash_policyENS_17_Hashtable_traitsILb0ELb0ELb1EEEE20_M_conjure_hashtableEv
FN:820,_ZNSt8__detail12_Insert_baseI11NonTerminalSt4pairIKS1_St6vectorIS4_IiSaIiEESaIS6_EEESaIS9_ENS_10_Select1stESt8equal_toIS1_ESt4hashIS1_ENS_18_Mod_range_hashingENS_20_Default_ranged_hashENS_20_Prime_rehash_policyENS_17_Hashtable_traitsILb0ELb0ELb1EEEE6insertERKS9_
FNDA:0,_ZNSt8__detail12_Insert_baseI11NonTerminalSt4pairIKS1_St6vectorIS4_IiSaIiEESaIS6_EEESaIS9_ENS_10_Select1stESt8equal_toIS1_ESt4hashIS1_ENS_18_Mod_range_hashingENS_20_Default_ranged_hashENS_20_Prime_rehash_policyENS_17_Hashtable_traitsILb0ELb0ELb1EEEE6insertERKS9_
FN:1096,_ZNSt8__detail21_Hashtable_ebo_helperILi0ESaINS_10_Hash_nodeISt4pairIKiSt3setIiSt4lessIiESaIiEEELb0EEEELb1EEC2Ev
FNDA:2,_ZNSt8__detail21_Hashtable_ebo_helperILi0ESaINS_10_Hash_nodeISt4pairIKiSt3setIiSt4lessIiESaIiEEELb0EEEELb1EEC2Ev
FN:1099,_ZNSt8__detail21_Hashtable_ebo_helperILi0ESt8equal_toI11NonTerminalELb1EEC2IRKS3_EEOT_
FNDA:0,_ZNSt8__detail21_Hashtable_ebo_helperILi0ESt8equal_toI11NonTerminalELb1EEC2IRKS3_EEOT_
FN:1099,_ZNSt8__detail21_Hashtable_ebo_helperILi0ESaINS_10_Hash_nodeISt4pairIK11NonTerminalSt6vectorIS5_IiSaIiEESaIS7_EEELb0EEEELb1EEC2ISC_EEOT_
FNDA:0,_ZNSt8__detail21_Hashtable_ebo_helperILi0ESaINS_10_Hash_nodeISt4pairIK11NonTerminalSt6vectorIS5_IiSaIiEESaIS7_EEELb0EEEELb1EEC2ISC_EEOT_
FN:1099,_ZNSt8__detail21_Hashtable_ebo_helperILi0ENS_10_Select1stELb1EEC2IRKS1_EEOT_
FNDA:0,_ZNSt8__detail21_Hashtable_ebo_helperILi0ENS_10_Select1stELb1EEC2IRKS1_EEOT_
FN:1099,_ZNSt8__detail21_Hashtable_ebo_helperILi1ESt4hashI11NonTerminalELb1EEC2IRKS3_EEOT_
FNDA:0,_ZNSt8__detail21_Hashtable_ebo_helperILi1ESt4hashI11NonTerminalELb1EEC2IRKS3_EEOT_
FN:1099,_ZNSt8__detail21_Hashtable_ebo_helperILi2ENS_18_Mod_range_hashingELb1EEC2IRKS1_EEOT_
FNDA:0,_ZNSt8__detail21_Hashtable_ebo_helperILi2ENS_18_Mod_range_hashingELb1EEC2IRKS1_EEOT_
FN:1104,_ZNSt8__detail21_Hashtable_ebo_helperILi1ESt4hashI11NonTerminalELb1EE7_S_cgetERKS4_
FNDA:0,_ZNSt8__detail21_Hashtable_ebo_helperILi1ESt4hashI11NonTerminalELb1EE7_S_cgetERKS4_
FN:1104,_ZNSt8__detail21_Hashtable_ebo_helperILi0ESt8equal_toI11NonTerminalELb1EE7_S_cgetERKS4_
FNDA:0,_ZNSt8__detail21_Hashtable_ebo_helperILi0ESt8equal_toI11NonTerminalELb1EE7_S_cgetERKS4_
FN:1104,_ZNSt8__detail21_Hashtable_ebo_helperILi0ENS_10_Select1stELb1EE7_S_cgetERKS2_
FNDA:0,_ZNSt8__detail21_Hashtable_ebo_helperILi0ENS_10_Select1stELb1EE7_S_cgetERKS2_
FN:1104,_ZNSt8__detail21_Hashtable_ebo_helperILi0ESt8equal_toIiELb1EE7_S_cgetERKS3_
FNDA:0,_ZNSt8__detail21_Hashtable_ebo_helperILi0ESt8equal_toIiELb1EE7_S_cgetERKS3_
FN:1104,_ZNSt8__detail21_Hashtable_ebo_helperILi2ENS_18_Mod_range_hashingELb1EE7_S_cgetERKS2_
FNDA:0,_ZNSt8__detail21_Hashtable_ebo_helperILi2ENS_18_Mod_range_hashingELb1EE7_S_cgetERKS2_
FN:1104,_ZNSt8__detail21_Hashtable_ebo_helperILi1ESt4hashIiELb1EE7_S_cgetERKS3_
FNDA:0,_ZNSt8__detail21_Hashtable_ebo_helperILi1ESt4hashIiELb1EE7_S_cgetERKS3_
FN:1108,_ZNSt8__detail21_Hashtable_ebo_helperILi0ESaINS_10_Hash_nodeISt4pairIK11NonTerminalSt6vectorIS5_IiSaIiEESaIS7_EEELb0EEEELb1EE6_S_getERSD_
FNDA:0,_ZNSt8__detail21_Hashtable_ebo_helperILi0ESaINS_10_Hash_nodeISt4pairIK11NonTerminalSt6vectorIS5_IiSaIiEESaIS7_EEELb0EEEELb1EE6_S_getERSD_
FN:1108,_ZNSt8__detail21_Hashtable_ebo_helperILi0ENS_10_Select1stELb1EE6_S_getERS2_
FNDA:0,_ZNSt8__detail21_Hashtable_ebo_helperILi0ENS_10_Select1stELb1EE6_S_getERS2_
FN:1108,_ZNSt8__detail21_Hashtable_ebo_helperILi0ESaINS_10_Hash_nodeISt4pairIKiSt3setIiSt4lessIiESaIiEEELb0EEEELb1EE6_S_getERSC_
FNDA:0,_ZNSt8__detail21_Hashtable_ebo_helperILi0ESaINS_10_Hash_nodeISt4pairIKiSt3setIiSt4lessIiESaIiEEELb0EEEELb1EE6_S_getERSC_
FN:1282,_ZNSt8__detail15_Hash_code_baseI11NonTerminalSt4pairIKS1_St6vectorIS4_IiSaIiEESaIS6_EEENS_10_Select1stESt4hashIS1_ENS_18_Mod_range_hashingENS_20_Default_ranged_hashELb0EEC2ERKSA_RKSC_RKSD_RKSE_
FNDA:0,_ZNSt8__detail15_Hash_code_baseI11NonTerminalSt4pairIKS1_St6vectorIS4_IiSaIiEESaIS6_EEENS_10_Select1stESt4hashIS1_ENS_18_Mod_range_hashingENS_20_Default_ranged_hashELb0EEC2ERKSA_RKSC_RKSD_RKSE_
FN:1288,_ZNKSt8__detail15_Hash_code_baseI11NonTerminalSt4pairIKS1_St6vectorIS4_IiSaIiEESaIS6_EEENS_10_Select1stESt4hashIS1_ENS_18_Mod_range_hashingENS_20_Default_ranged_hashELb0EE12_M_hash_codeERS3_
FNDA:0,_ZNKSt8__detail15_Hash_code_baseI11NonTerminalSt4pairIKS1_St6vectorIS4_IiSaIiEESaIS6_EEENS_10_Select1stESt4hashIS1_ENS_18_Mod_range_hashingENS_20_Default_ranged_hashELb0EE12_M_hash_codeERS3_
FN:1288,_ZNKSt8__detail15_Hash_code_baseIiSt4pairIKiSt3setIiSt4lessIiESaIiEEENS_10_Select1stESt4hashIiENS_18_Mod_range_hashingENS_20_Default_ranged_hashELb0EE12_M_hash_codeERS2_
FNDA:0,_ZNKSt8__detail15_Hash_code_baseIiSt4pairIKiSt3setIiSt4lessIiESaIiEEENS_10_Select1stESt4hashIiENS_18_Mod_range_hashingENS_20_Default_ranged_hashELb0EE12_M_hash_codeERS2_
FN:1296,_ZNKSt8__detail15_Hash_code_baseI11NonTerminalSt4pairIKS1_St6vectorIS4_IiSaIiEESaIS6_EEENS_10_Select1stESt4hashIS1_ENS_18_Mod_range_hashingENS_20_Default_ranged_hashELb0EE15_M_bucket_indexERS3_mm
FNDA:0,_ZNKSt8__detail15_Hash_code_baseI11NonTerminalSt4pairIKS1_St6vectorIS4_IiSaIiEESaIS6_EEENS_10_Select1stESt4hashIS1_ENS_18_Mod_range_hashingENS_20_Default_ranged_hashELb0EE15_M_bucket_indexERS3_mm
FN:1296,_ZNKSt8__detail15_Hash_code_baseIiSt4pairIKiSt3setIiSt4lessIiESaIiEEENS_10_Select1stESt4hashIiENS_18_Mod_range_hashingENS_20_Default_ranged_hashELb0EE15_M_bucket_indexERS2_mm
FNDA:0,_ZNKSt8__detail15_Hash_code_baseIiSt4pairIKiSt3setIiSt4lessIiESaIiEEENS_10_Select1stESt4hashIiENS_18_Mod_range_hashingENS_20_Default_ranged_hashELb0EE15_M_bucket_indexERS2_mm
FN:1300,_ZNKSt8__detail15_Hash_code_baseI11NonTerminalSt4pairIKS1_St6vectorIS4_IiSaIiEESaIS6_EEENS_10_Select1stESt4hashIS1_ENS_18_Mod_range_hashingENS_20_Default_ranged_hashELb0EE15_M_bucket_indexEPKNS_10_Hash_nodeIS9_Lb0EEEm
FNDA:0,_ZNKSt8__detail15_Hash_code_baseI11NonTerminalSt4pairIKS1_St6vectorIS4_IiSaIiEESaIS6_EEENS_10_Select1stESt4hashIS1_ENS_18_Mod_range_hashingENS_20_Default_ranged_hashELb0EE15_M_bucket_indexEPKNS_10_Hash_nodeIS9_Lb0EEEm
FN:1300,_ZNKSt8__detail15_Hash_code_baseIiSt4pairIKiSt3setIiSt4lessIiESaIiEEENS_10_Select1stESt4hashIiENS_18_Mod_range_hashingENS_20_Default_ranged_hashELb0EE15_M_bucket_indexEPKNS_10_Hash_nodeIS8_Lb0EEEm
FNDA:0,_ZNKSt8__detail15_Hash_code_baseIiSt4pairIKiSt3setIiSt4lessIiESaIiEEENS_10_Select1stESt4hashIiENS_18_Mod_range_hashingENS_20_Default_ranged_hashELb0EE15_M_bucket_indexEPKNS_10_Hash_nodeIS8_Lb0EEEm
FN:1307,_ZNKSt8__detail15_Hash_code_baseI11NonTerminalSt4pairIKS1_St6vectorIS4_IiSaIiEESaIS6_EEENS_10_Select1stESt4hashIS1_ENS_18_Mod_range_hashingENS_20_Default_ranged_hashELb0EE13_M_store_codeEPNS_10_Hash_nodeIS9_Lb0EEEm
FNDA:0,_ZNKSt8__detail15_Hash_code_baseI11NonTerminalSt4pairIKS1_St6vectorIS4_IiSaIiEESaIS6_EEENS_10_Select1stESt4hashIS1_ENS_18_Mod_range_hashingENS_20_Default_ranged_hashELb0EE13_M_store_codeEPNS_10_Hash_nodeIS9_Lb0EEEm
FN:1307,_ZNKSt8__detail15_Hash_code_baseIiSt4pairIKiSt3setIiSt4lessIiESaIiEEENS_10_Select1stESt4hashIiENS_18_Mod_range_hashingENS_20_Default_ranged_hashELb0EE13_M_store_codeEPNS_10_Hash_nodeIS8_Lb0EEEm
FNDA:0,_ZNKSt8__detail15_Hash_code_baseIiSt4pairIKiSt3setIiSt4lessIiESaIiEEENS_10_Select1stESt4hashIiENS_18_Mod_range_hashingENS_20_Default_ranged_hashELb0EE13_M_store_codeEPNS_10_Hash_nodeIS8_Lb0EEEm
FN:1323,_ZNKSt8__detail15_Hash_code_baseIiSt4pairIKiSt3setIiSt4lessIiESaIiEEENS_10_Select1stESt4hashIiENS_18_Mod_range_hashingENS_20_Default_ranged_hashELb0EE10_M_extractEv
FNDA:0,_ZNKSt8__detail15_Hash_code_baseIiSt4pairIKiSt3setIiSt4lessIiESaIiEEENS_10_Select1stESt4hashIiENS_18_Mod_range_hashingENS_20_Default_ranged_hashELb0EE10_M_extractEv
FN:1323,_ZNKSt8__detail15_Hash_code_baseI11NonTerminalSt4pairIKS1_St6vectorIS4_IiSaIiEESaIS6_EEENS_10_Select1stESt4hashIS1_ENS_18_Mod_range_hashingENS_20_Default_ranged_hashELb0EE10_M_extractEv
FNDA:0,_ZNKSt8__detail15_Hash_code_baseI11NonTerminalSt4pairIKS1_St6vectorIS4_IiSaIiEESaIS6_EEENS_10_Select1stESt4hashIS1_ENS_18_Mod_range_hashingENS_20_Default_ranged_hashELb0EE10_M_extractEv
FN:1326,_ZNSt8__detail15_Hash_code_baseIiSt4pairIKiSt3setIiSt4lessIiESaIiEEENS_10_Select1stESt4hashIiENS_18_Mod_range_hashingENS_20_Default_ranged_hashELb0EE10_M_extractEv
FNDA:0,_ZNSt8__detail15_Hash_code_baseIiSt4pairIKiSt3setIiSt4lessIiESaIiEEENS_10_Select1stESt4hashIiENS_18_Mod_range_hashingENS_20_Default_ranged_hashELb0EE10_M_extractEv
FN:1326,_ZNSt8__detail15_Hash_code_baseI11NonTerminalSt4pairIKS1_St6vectorIS4_IiSaIiEESaIS6_EEENS_10_Select1stESt4hashIS1_ENS_18_Mod_range_hashingENS_20_Default_ranged_hashELb0EE10_M_extractEv
FNDA:0,_ZNSt8__detail15_Hash_code_baseI11NonTerminalSt4pairIKS1_St6vectorIS4_IiSaIiEESaIS6_EEENS_10_Select1stESt4hashIS1_ENS_18_Mod_range_hashingENS_20_Default_ranged_hashELb0EE10_M_extractEv
FN:1329,_ZNKSt8__detail15_Hash_code_baseI11NonTerminalSt4pairIKS1_St6vectorIS4_IiSaIiEESaIS6_EEENS_10_Select1stESt4hashIS1_ENS_18_Mod_range_hashingENS_20_Default_ranged_hashELb0EE5_M_h1Ev
FNDA:0,_ZNKSt8__detail15_Hash_code_baseI11NonTerminalSt4pairIKS1_St6vectorIS4_IiSaIiEESaIS6_EEENS_10_Select1stESt4hashIS1_ENS_18_Mod_range_hashingENS_20_Default_ranged_hashELb0EE5_M_h1Ev
FN:1329,_ZNKSt8__detail15_Hash_code_baseIiSt4pairIKiSt3setIiSt4lessIiESaIiEEENS_10_Select1stESt4hashIiENS_18_Mod_range_hashingENS_20_Default_ranged_hashELb0EE5_M_h1Ev
FNDA:0,_ZNKSt8__detail15_Hash_code_baseIiSt4pairIKiSt3setIiSt4lessIiESaIiEEENS_10_Select1stESt4hashIiENS_18_Mod_range_hashingENS_20_Default_ranged_hashELb0EE5_M_h1Ev
FN:1335,_ZNKSt8__detail15_Hash_code_baseI11NonTerminalSt4pairIKS1_St6vectorIS4_IiSaIiEESaIS6_EEENS_10_Select1stESt4hashIS1_ENS_18_Mod_range_hashingENS_20_Default_ranged_hashELb0EE5_M_h2Ev
FNDA:0,_ZNKSt8__detail15_Hash_code_baseI11NonTerminalSt4pairIKS1_St6vectorIS4_IiSaIiEESaIS6_EEENS_10_Select1stESt4hashIS1_ENS_18_Mod_range_hashingENS_20_Default_ranged_hashELb0EE5_M_h2Ev
FN:1335,_ZNKSt8__detail15_Hash_code_baseIiSt4pairIKiSt3setIiSt4lessIiESaIiEEENS_10_Select1stESt4hashIiENS_18_Mod_range_hashingENS_20_Default_ranged_hashELb0EE5_M_h2Ev
FNDA:0,_ZNKSt8__detail15_Hash_code_baseIiSt4pairIKiSt3setIiSt4lessIiESaIiEEENS_10_Select1stESt4hashIiENS_18_Mod_range_hashingENS_20_Default_ranged_hashELb0EE5_M_h2Ev
FN:1459,_ZNSt8__detail13_Equal_helperI11NonTerminalSt4pairIKS1_St6vectorIS4_IiSaIiEESaIS6_EEENS_10_Select1stESt8equal_toIS1_EmLb0EE9_S_equalsERKSC_RKSA_RS3_mPNS_10_Hash_nodeIS9_Lb0EEE
FNDA:0,_ZNSt8__detail13_Equal_helperI11NonTerminalSt4pairIKS1_St6vectorIS4_IiSaIiEESaIS6_EEENS_10_Select1stESt8equal_toIS1_EmLb0EE9_S_equalsERKSC_RKSA_RS3_mPNS_10_Hash_nodeIS9_Lb0EEE
FN:1459,_ZNSt8__detail13_Equal_helperIiSt4pairIKiSt3setIiSt4lessIiESaIiEEENS_10_Select1stESt8equal_toIiEmLb0EE9_S_equalsERKSB_RKS9_RS2_mPNS_10_Hash_nodeIS8_Lb0EEE
FNDA:0,_ZNSt8__detail13_Equal_helperIiSt4pairIKiSt3setIiSt4lessIiESaIiEEENS_10_Select1stESt8equal_toIiEmLb0EE9_S_equalsERKSB_RKS9_RS2_mPNS_10_Hash_nodeIS8_Lb0EEE
FN:1823,_ZNSt8__detail15_Hashtable_baseI11NonTerminalSt4pairIKS1_St6vectorIS4_IiSaIiEESaIS6_EEENS_10_Select1stESt8equal_toIS1_ESt4hashIS1_ENS_18_Mod_range_hashingENS_20_Default_ranged_hashENS_17_Hashtable_traitsILb0ELb0ELb1EEEEC2ERKSA_RKSE_RKSF_RKSG_RKSC_
FNDA:0,_ZNSt8__detail15_Hashtable_baseI11NonTerminalSt4pairIKS1_St6vectorIS4_IiSaIiEESaIS6_EEENS_10_Select1stESt8equal_toIS1_ESt4hashIS1_ENS_18_Mod_range_hashingENS_20_Default_ranged_hashENS_17_Hashtable_traitsILb0ELb0ELb1EEEEC2ERKSA_RKSE_RKSF_RKSG_RKSC_
FN:1829,_ZNKSt8__detail15_Hashtable_baseI11NonTerminalSt4pairIKS1_St6vectorIS4_IiSaIiEESaIS6_EEENS_10_Select1stESt8equal_toIS1_ESt4hashIS1_ENS_18_Mod_range_hashingENS_20_Default_ranged_hashENS_17_Hashtable_traitsILb0ELb0ELb1EEEE9_M_equalsERS3_mPNS_10_Hash_nodeIS9_Lb0EEE
FNDA:0,_ZNKSt8__detail15_Hashtable_baseI11NonTerminalSt4pairIKS1_St6vectorIS4_IiSaIiEESaIS6_EEENS_10_Select1stESt8equal_toIS1_ESt4hashIS1_ENS_18_Mod_range_hashingENS_20_Default_ranged_hashENS_17_Hashtable_traitsILb0ELb0ELb1EEEE9_M_equalsERS3_mPNS_10_Hash_nodeIS9_Lb0EEE
FN:1829,_ZNKSt8__detail15_Hashtable_baseIiSt4pairIKiSt3setIiSt4lessIiESaIiEEENS_10_Select1stESt8equal_toIiESt4hashIiENS_18_Mod_range_hashingENS_20_Default_ranged_hashENS_17_Hashtable_traitsILb0ELb0ELb1EEEE9_M_equalsERS2_mPNS_10_Hash_nodeIS8_Lb0EEE
FNDA:0,_ZNKSt8__detail15_Hashtable_baseIiSt4pairIKiSt3setIiSt4lessIiESaIiEEENS_10_Select1stESt8equal_toIiESt4hashIiENS_18_Mod_range_hashingENS_20_Default_ranged_hashENS_17_Hashtable_traitsILb0ELb0ELb1EEEE9_M_equalsERS2_mPNS_10_Hash_nodeIS8_Lb0EEE
FN:1846,_ZNKSt8__detail15_Hashtable_baseIiSt4pairIKiSt3setIiSt4lessIiESaIiEEENS_10_Select1stESt8equal_toIiESt4hashIiENS_18_Mod_range_hashingENS_20_Default_ranged_hashENS_17_Hashtable_traitsILb0ELb0ELb1EEEE5_M_eqEv
FNDA:0,_ZNKSt8__detail15_Hashtable_baseIiSt4pairIKiSt3setIiSt4lessIiESaIiEEENS_10_Select1stESt8equal_toIiESt4hashIiENS_18_Mod_range_hashingENS_20_Default_ranged_hashENS_17_Hashtable_traitsILb0ELb0ELb1EEEE5_M_eqEv
FN:1846,_ZNKSt8__detail15_Hashtable_baseI11NonTerminalSt4pairIKS1_St6vectorIS4_IiSaIiEESaIS6_EEENS_10_Select1stESt8equal_toIS1_ESt4hashIS1_ENS_18_Mod_range_hashingENS_20_Default_ranged_hashENS_17_Hashtable_traitsILb0ELb0ELb1EEEE5_M_eqEv
FNDA:0,_ZNKSt8__detail15_Hashtable_baseI11NonTerminalSt4pairIKS1_St6vectorIS4_IiSaIiEESaIS6_EEENS_10_Select1stESt8equal_toIS1_ESt4hashIS1_ENS_18_Mod_range_hashingENS_20_Default_ranged_hashENS_17_Hashtable_traitsILb0ELb0ELb1EEEE5_M_eqEv
FN:2036,_ZNSt8__detail16_Hashtable_allocISaINS_10_Hash_nodeISt4pairIKiSt3setIiSt4lessIiESaIiEEELb0EEEEEC2Ev
FNDA:2,_ZNSt8__detail16_Hashtable_allocISaINS_10_Hash_nodeISt4pairIKiSt3setIiSt4lessIiESaIiEEELb0EEEEEC2Ev
FN:2041,_ZNSt8__detail16_Hashtable_allocISaINS_10_Hash_nodeISt4pairIK11NonTerminalSt6vectorIS5_IiSaIiEESaIS7_EEELb0EEEEEC2ISC_EEOT_
FNDA:0,_ZNSt8__detail16_Hashtable_allocISaINS_10_Hash_nodeISt4pairIK11NonTerminalSt6vectorIS5_IiSaIiEESaIS7_EEELb0EEEEEC2ISC_EEOT_
FN:2046,_ZNSt8__detail16_Hashtable_allocISaINS_10_Hash_nodeISt4pairIK11NonTerminalSt6vectorIS5_IiSaIiEESaIS7_EEELb0EEEEE17_M_node_allocatorEv
FNDA:0,_ZNSt8__detail16_Hashtable_allocISaINS_10_Hash_nodeISt4pairIK11NonTerminalSt6vectorIS5_IiSaIiEESaIS7_EEELb0EEEEE17_M_node_allocatorEv
FN:2046,_ZNSt8__detail16_Hashtable_allocISaINS_10_Hash_nodeISt4pairIKiSt3setIiSt4lessIiESaIiEEELb0EEEEE17_M_node_allocatorEv
FNDA:0,_ZNSt8__detail16_Hashtable_allocISaINS_10_Hash_nodeISt4pairIKiSt3setIiSt4lessIiESaIiEEELb0EEEEE17_M_node_allocatorEv
FN:2079,_ZNSt8__detail16_Hashtable_allocISaINS_10_Hash_nodeISt4pairIK11NonTerminalSt6vectorIS5_IiSaIiEESaIS7_EEELb0EEEEE16_M_allocate_nodeIJRKSA_EEEPSB_DpOT_
FNDA:0,_ZNSt8__detail16_Hashtable_allocISaINS_10_Hash_nodeISt4pairIK11NonTerminalSt6vectorIS5_IiSaIiEESaIS7_EEELb0EEEEE16_M_allocate_nodeIJRKSA_EEEPSB_DpOT_
FN:2079,_ZNSt8__detail16_Hashtable_allocISaINS_10_Hash_nodeISt4pairIKiSt3setIiSt4lessIiESaIiEEELb0EEEEE16_M_allocate_nodeIJRKSt21piecewise_construct_tSt5tupleIJOiEESH_IJEEEEEPSA_DpOT_
FNDA:0,_ZNSt8__detail16_Hashtable_allocISaINS_10_Hash_nodeISt4pairIKiSt3setIiSt4lessIiESaIiEEELb0EEEEE16_M_allocate_nodeIJRKSt21piecewise_construct_tSt5tupleIJOiEESH_IJEEEEEPSA_DpOT_
FN:2100,_ZNSt8__detail16_Hashtable_allocISaINS_10_Hash_nodeISt4pairIK11NonTerminalSt6vectorIS5_IiSaIiEESaIS7_EEELb0EEEEE18_M_deallocate_nodeEPSB_
FNDA:0,_ZNSt8__detail16_Hashtable_allocISaINS_10_Hash_nodeISt4pairIK11NonTerminalSt6vectorIS5_IiSaIiEESaIS7_EEELb0EEEEE18_M_deallocate_nodeEPSB_
FN:2100,_ZNSt8__detail16_Hashtable_allocISaINS_10_Hash_nodeISt4pairIKiSt3setIiSt4lessIiESaIiEEELb0EEEEE18_M_deallocate_nodeEPSA_
FNDA:0,_ZNSt8__detail16_Hashtable_allocISaINS_10_Hash_nodeISt4pairIKiSt3setIiSt4lessIiESaIiEEELb0EEEEE18_M_deallocate_nodeEPSA_
FN:2108,_ZNSt8__detail16_Hashtable_allocISaINS_10_Hash_nodeISt4pairIK11NonTerminalSt6vectorIS5_IiSaIiEESaIS7_EEELb0EEEEE22_M_deallocate_node_ptrEPSB_
FNDA:0,_ZNSt8__detail16_Hashtable_allocISaINS_10_Hash_nodeISt4pairIK11NonTerminalSt6vectorIS5_IiSaIiEESaIS7_EEELb0EEEEE22_M_deallocate_node_ptrEPSB_
FN:2108,_ZNSt8__detail16_Hashtable_allocISaINS_10_Hash_nodeISt4pairIKiSt3setIiSt4lessIiESaIiEEELb0EEEEE22_M_deallocate_node_ptrEPSA_
FNDA:0,_ZNSt8__detail16_Hashtable_allocISaINS_10_Hash_nodeISt4pairIKiSt3setIiSt4lessIiESaIiEEELb0EEEEE22_M_deallocate_node_ptrEPSA_
FN:2118,_ZNSt8__detail16_Hashtable_allocISaINS_10_Hash_nodeISt4pairIK11NonTerminalSt6vectorIS5_IiSaIiEESaIS7_EEELb0EEEEE19_M_deallocate_nodesEPSB_
FNDA:0,_ZNSt8__detail16_Hashtable_allocISaINS_10_Hash_nodeISt4pairIK11NonTerminalSt6vectorIS5_IiSaIiEESaIS7_EEELb0EEEEE19_M_deallocate_nodesEPSB_
FN:2118,_ZNSt8__detail16_Hashtable_allocISaINS_10_Hash_nodeISt4pairIKiSt3setIiSt4lessIiESaIiEEELb0EEEEE19_M_deallocate_nodesEPSA_
FNDA:2,_ZNSt8__detail16_Hashtable_allocISaINS_10_Hash_nodeISt4pairIKiSt3setIiSt4lessIiESaIiEEELb0EEEEE19_M_deallocate_nodesEPSA_
FN:2130,_ZNSt8__detail16_Hashtable_allocISaINS_10_Hash_nodeISt4pairIK11NonTerminalSt6vectorIS5_IiSaIiEESaIS7_EEELb0EEEEE19_M_allocate_bucketsEm
FNDA:0,_ZNSt8__detail16_Hashtable_allocISaINS_10_Hash_nodeISt4pairIK11NonTerminalSt6vectorIS5_IiSaIiEESaIS7_EEELb0EEEEE19_M_allocate_bucketsEm
FN:2130,_ZNSt8__detail16_Hashtable_allocISaINS_10_Hash_nodeISt4pairIKiSt3setIiSt4lessIiESaIiEEELb0EEEEE19_M_allocate_bucketsEm
FNDA:0,_ZNSt8__detail16_Hashtable_allocISaINS_10_Hash_nodeISt4pairIKiSt3setIiSt4lessIiESaIiEEELb0EEEEE19_M_allocate_bucketsEm
FN:2142,_ZNSt8__detail16_Hashtable_allocISaINS_10_Hash_nodeISt4pairIK11NonTerminalSt6vectorIS5_IiSaIiEESaIS7_EEELb0EEEEE21_M_deallocate_bucketsEPPNS_15_Hash_node_baseEm
FNDA:0,_ZNSt8__detail16_Hashtable_allocISaINS_10_Hash_nodeISt4pairIK11NonTerminalSt6vectorIS5_IiSaIiEESaIS7_EEELb0EEEEE21_M_deallocate_bucketsEPPNS_15_Hash_node_baseEm
FN:2142,_ZNSt8__detail16_Hashtable_allocISaINS_10_Hash_nodeISt4pairIKiSt3setIiSt4lessIiESaIiEEELb0EEEEE21_M_deallocate_bucketsEPPNS_15_Hash_node_baseEm
FNDA:0,_ZNSt8__detail16_Hashtable_allocISaINS_10_Hash_nodeISt4pairIKiSt3setIiSt4lessIiESaIiEEELb0EEEEE21_M_deallocate_bucketsEPPNS_15_Hash_node_baseEm
DA:70,0
DA:72,0
DA:76,0
DA:77,0
DA:78,0
DA:92,0
DA:94,0
DA:92,0
DA:94,0
DA:92,0
DA:94,0
DA:92,0
DA:94,0
DA:161,0
DA:162,0
DA:166,0
DA:167,0
DA:218,0
DA:236,0
DA:237,0
DA:236,0
DA:237,0
DA:240,0
DA:241,0
DA:240,0
DA:241,0
DA:244,0
DA:245,0
DA:244,0
DA:245,0
DA:248,0
DA:249,0
DA:248,0
DA:249,0
DA:282,0
DA:283,0
DA:282,0
DA:283,0
DA:294,0
DA:295,0
DA:294,0
DA:295,0
DA:298,1500
DA:299,1500
DA:298,330
DA:299,330
DA:311,1512
DA:314,1512
DA:311,335
DA:314,335
DA:340,0
DA:341,0
DA:340,0
DA:341,0
DA:344,1500
DA:345,1500
DA:348,0
DA:349,0
DA:352,1500
DA:354,1500
DA:355,1500
DA:388,10
DA:389,10
DA:396,330
DA:397,330
DA:404,330
DA:406,330
DA:407,330
DA:431,0
DA:433,0
DA:449,0
DA:450,0
DA:462,0
DA:463,0
DA:476,0
DA:477,0
DA:484,0
DA:485,0
DA:714,264
DA:719,264
DA:720,264
DA:721,264
DA:722,264
DA:724,264
DA:726,0
DA:727,0
DA:729,0
DA:732,264
DA:739,0
DA:744,0
DA:745,0
DA:746,0
DA:747,0
DA:749,0
DA:750,0
DA:751,0
DA:805,0
DA:806,0
DA:820,0
DA:822,0
DA:823,0
DA:824,0
DA:1096,2
DA:1099,0
DA:1100,0
DA:1101,0
DA:1099,0
DA:1100,0
DA:1101,0
DA:1099,0
DA:1100,0
DA:1101,0
DA:1099,0
DA:1100,0
DA:1101,0
DA:1099,0
DA:1100,0
DA:1101,0
DA:1104,0
DA:1105,0
DA:1104,0
DA:1105,0
DA:1104,0
DA:1105,0
DA:1104,0
DA:1105,0
DA:1104,0
DA:1105,0
DA:1104,0
DA:1105,0
DA:1108,0
DA:1109,0
DA:1108,0
DA:1109,0
DA:1108,0
DA:1109,0
DA:1282,0
DA:1285,0
DA:1288,0
DA:1292,0
DA:1288,0
DA:1292,0
DA:1296,0
DA:1297,0
DA:1296,0
DA:1297,0
DA:1300,0
DA:1304,0
DA:1300,0
DA:1304,0
DA:1307,0
DA:1308,0
DA:1307,0
DA:1308,0
DA:1323,0
DA:1323,0
DA:1326,0
DA:1326,0
DA:1329,0
DA:1329,0
DA:1335,0
DA:1335,0
DA:1459,0
DA:1461,0
DA:1459,0
DA:1461,0
DA:1823,0
DA:1825,0
DA:1826,0
DA:1829,0
DA:1834,0
DA:1835,0
DA:1829,0
DA:1834,0
DA:1835,0
DA:1846,0
DA:1846,0
DA:2036,2
DA:2041,0
DA:2042,0
DA:2043,0
DA:2046,0
DA:2047,0
DA:2046,0
DA:2047,0
DA:2079,0
DA:2081,0
DA:2082,0
DA:2085,0
DA:2086,0
DA:2089,0
DA:2091,0
DA:2093,0
DA:2094,0
DA:2079,0
DA:2081,0
DA:2082,0
DA:2085,0
DA:2086,0
DA:2089,0
DA:2091,0
DA:2093,0
DA:2094,0
DA:2100,0
DA:2102,0
DA:2103,0
DA:2104,0
DA:2100,0
DA:2102,0
DA:2103,0
DA:2104,0
DA:2108,0
DA:2111,0
DA:2112,0
DA:2113,0
DA:2114,0
DA:2108,0
DA:2111,0
DA:2112,0
DA:2113,0
DA:2114,0
DA:2118,0
DA:2120,0
DA:2122,0
DA:2123,0
DA:2124,0
DA:2126,0
DA:2118,252
DA:2120,252
DA:2122,250
DA:2123,250
DA:2124,250
DA:2126,2
DA:2130,0
DA:2132,0
DA:2134,0
DA:2135,0
DA:2136,0
DA:2137,0
DA:2130,0
DA:2132,0
DA:2134,0
DA:2135,0
DA:2136,0
DA:2137,0
DA:2142,0
DA:2146,0
DA:2147,0
DA:2148,0
DA:2149,0
DA:2142,0
DA:2146,0
DA:2147,0
DA:2148,0
DA:2149,0
end_of_record
SF:/usr/include/c++/9/bits/stl_set.h
FN:94,_ZNSt3setIiSt4lessIiESaIiEEaSERKS3_
FNDA:1500,_ZNSt3setIiSt4lessIiESaIiEEaSERKS3_
FN:167,_ZNSt3setIiSt4lessIiESaIiEEC2Ev
FNDA:0,_ZNSt3setIiSt4lessIiESaIiEEC2Ev
FN:281,_ZNSt3setIiSt4lessIiESaIiEED2Ev
FNDA:0,_ZNSt3setIiSt4lessIiESaIiEED2Ev
FN:344,_ZNKSt3setIiSt4lessIiESaIiEE5beginEv
FNDA:0,_ZNKSt3setIiSt4lessIiESaIiEE5beginEv
FN:353,_ZNKSt3setIiSt4lessIiESaIiEE3endEv
FNDA:0,_ZNKSt3setIiSt4lessIiESaIiEE3endEv
FN:509,_ZNSt3setIiSt4lessIiESaIiEE6insertERKi
FNDA:0,_ZNSt3setIiSt4lessIiESaIiEE6insertERKi
FN:748,_ZNKSt3setIiSt4lessIiESaIiEE5countERKi
FNDA:0,_ZNKSt3setIiSt4lessIiESaIiEE5countERKi
DA:94,1500
DA:167,0
DA:281,0
DA:344,0
DA:345,0
DA:353,0
DA:354,0
DA:509,0
DA:511,0
DA:513,0
DA:748,0
DA:749,0
end_of_record
SF:/usr/include/c++/9/bits/move.h
FN:47,_ZSt11__addressofIPNSt8__detail15_Hash_node_baseEEPT_RS3_
FNDA:0,_ZSt11__addressofIPNSt8__detail15_Hash_node_baseEEPT_RS3_
FN:47,_ZSt11__addressofINSt8__detail10_Hash_nodeISt4pairIK11NonTerminalSt6vectorIS5_IiSaIiEESaIS7_EEELb0EEEEPT_RSC_
FNDA:0,_ZSt11__addressofINSt8__detail10_Hash_nodeISt4pairIK11NonTerminalSt6vectorIS5_IiSaIiEESaIS7_EEELb0EEEEPT_RSC_
FN:47,_ZSt11__addressofISt6vectorIiSaIiEEEPT_RS3_
FNDA:0,_ZSt11__addressofISt6vectorIiSaIiEEEPT_RS3_
FN:47,_ZSt11__addressofINSt8__detail10_Hash_nodeISt4pairIKiSt3setIiSt4lessIiESaIiEEELb0EEEEPT_RSB_
FNDA:0,_ZSt11__addressofINSt8__detail10_Hash_nodeISt4pairIKiSt3setIiSt4lessIiESaIiEEELb0EEEEPT_RSB_
FN:74,_ZSt7forwardIbEOT_RNSt16remove_referenceIS0_E4typeE
FNDA:0,_ZSt7forwardIbEOT_RNSt16remove_referenceIS0_E4typeE
FN:74,_ZSt7forwardI11NonTerminalEOT_RNSt16remove_referenceIS1_E4typeE
FNDA:0,_ZSt7forwardI11NonTerminalEOT_RNSt16remove_referenceIS1_E4typeE
FN:74,_ZSt7forwardIRKiEOT_RNSt16remove_referenceIS2_E4typeE
FNDA:0,_ZSt7forwardIRKiEOT_RNSt16remove_referenceIS2_E4typeE
FN:74,_ZSt7forwardIRSt17_Rb_tree_iteratorIiEEOT_RNSt16remove_referenceIS3_E4typeE
FNDA:0,_ZSt7forwardIRSt17_Rb_tree_iteratorIiEEOT_RNSt16remove_referenceIS3_E4typeE
FN:74,_ZSt7forwardIRbEOT_RNSt16remove_referenceIS1_E4typeE
FNDA:0,_ZSt7forwardIRbEOT_RNSt16remove_referenceIS1_E4typeE
FN:74,_ZSt7forwardIRSt4pairIKiSt3setIiSt4lessIiESaIiEEEEOT_RNSt16remove_referenceIS9_E4typeE
FNDA:0,_ZSt7forwardIRSt4pairIKiSt3setIiSt4lessIiESaIiEEEEOT_RNSt16remove_referenceIS9_E4typeE
FN:74,_ZSt7forwardISt17_Rb_tree_iteratorIiEEOT_RNSt16remove_referenceIS2_E4typeE
FNDA:0,_ZSt7forwardISt17_Rb_tree_iteratorIiEEOT_RNSt16remove_referenceIS2_E4typeE
FN:74,_ZSt7forwardIRKSt21piecewise_construct_tEOT_RNSt16remove_referenceIS3_E4typeE
FNDA:0,_ZSt7forwardIRKSt21piecewise_construct_tEOT_RNSt16remove_referenceIS3_E4typeE
FN:74,_ZSt7forwardISt5tupleIJOiEEEOT_RNSt16remove_referenceIS3_E4typeE
FNDA:0,_ZSt7forwardISt5tupleIJOiEEEOT_RNSt16remove_referenceIS3_E4typeE
FN:74,_ZSt7forwardISt5tupleIJEEEOT_RNSt16remove_referenceIS2_E4typeE
FNDA:0,_ZSt7forwardISt5tupleIJEEEOT_RNSt16remove_referenceIS2_E4typeE
FN:74,_ZSt7forwardIRPSt13_Rb_tree_nodeIiEEOT_RNSt16remove_referenceIS4_E4typeE
FNDA:0,_ZSt7forwardIRPSt13_Rb_tree_nodeIiEEOT_RNSt16remove_referenceIS4_E4typeE
FN:74,_ZSt7forwardIRPSt18_Rb_tree_node_baseEOT_RNSt16remove_referenceIS3_E4typeE
FNDA:0,_ZSt7forwardIRPSt18_Rb_tree_node_baseEOT_RNSt16remove_referenceIS3_E4typeE
FN:74,_ZSt7forwardIiEOT_RNSt16remove_referenceIS0_E4typeE
FNDA:0,_ZSt7forwardIiEOT_RNSt16remove_referenceIS0_E4typeE
FN:74,_ZSt7forwardIOiEOT_RNSt16remove_referenceIS1_E4typeE
FNDA:0,_ZSt7forwardIOiEOT_RNSt16remove_referenceIS1_E4typeE
FN:74,_ZSt7forwardISaINSt8__detail10_Hash_nodeISt4pairIK11NonTerminalSt6vectorIS5_IiSaIiEESaIS7_EEELb0EEEEEOT_RNSt16remove_referenceISD_E4typeE
FNDA:0,_ZSt7forwardISaINSt8__detail10_Hash_nodeISt4pairIK11NonTerminalSt6vectorIS5_IiSaIiEESaIS7_EEELb0EEEEEOT_RNSt16remove_referenceISD_E4typeE
FN:74,_ZSt7forwardIRKSt4pairIK11NonTerminalSt6vectorIS3_IiSaIiEESaIS5_EEEEOT_RNSt16remove_referenceISB_E4typeE
FNDA:0,_ZSt7forwardIRKSt4pairIK11NonTerminalSt6vectorIS3_IiSaIiEESaIS5_EEEEOT_RNSt16remove_referenceISB_E4typeE
FN:74,_ZSt7forwardIRKSt6vectorIiSaIiEEEOT_RNSt16remove_referenceIS5_E4typeE
FNDA:0,_ZSt7forwardIRKSt6vectorIiSaIiEEEOT_RNSt16remove_referenceIS5_E4typeE
FN:74,_ZSt7forwardIRKSt8equal_toI11NonTerminalEEOT_RNSt16remove_referenceIS5_E4typeE
FNDA:0,_ZSt7forwardIRKSt8equal_toI11NonTerminalEEOT_RNSt16remove_referenceIS5_E4typeE
FN:74,_ZSt7forwardINSt8__detail14_Node_iteratorISt4pairIK11NonTerminalSt6vectorIS5_IiSaIiEESaIS7_EEELb0ELb0EEEEOT_RNSt16remove_referenceISC_E4typeE
FNDA:0,_ZSt7forwardINSt8__detail14_Node_iteratorISt4pairIK11NonTerminalSt6vectorIS5_IiSaIiEESaIS7_EEELb0ELb0EEEEOT_RNSt16remove_referenceISC_E4typeE
FN:74,_ZSt7forwardIRKNSt8__detail10_Select1stEEOT_RNSt16remove_referenceIS4_E4typeE
FNDA:0,_ZSt7forwardIRKNSt8__detail10_Select1stEEOT_RNSt16remove_referenceIS4_E4typeE
FN:74,_ZSt7forwardIRKSt4hashI11NonTerminalEEOT_RNSt16remove_referenceIS5_E4typeE
FNDA:0,_ZSt7forwardIRKSt4hashI11NonTerminalEEOT_RNSt16remove_referenceIS5_E4typeE
FN:74,_ZSt7forwardIRKNSt8__detail18_Mod_range_hashingEEOT_RNSt16remove_referenceIS4_E4typeE
FNDA:0,_ZSt7forwardIRKNSt8__detail18_Mod_range_hashingEEOT_RNSt16remove_referenceIS4_E4typeE
FN:74,_ZSt7forwardIRSt4pairIK11NonTerminalSt6vectorIS3_IiSaIiEESaIS5_EEEEOT_RNSt16remove_referenceISA_E4typeE
FNDA:0,_ZSt7forwardIRSt4pairIK11NonTerminalSt6vectorIS3_IiSaIiEESaIS5_EEEEOT_RNSt16remove_referenceISA_E4typeE
FN:74,_ZSt7forwardIRKSt4pairIKiSt3setIiSt4lessIiESaIiEEEEOT_RNSt16remove_referenceISA_E4typeE
FNDA:0,_ZSt7forwardIRKSt4pairIKiSt3setIiSt4lessIiESaIiEEEEOT_RNSt16remove_referenceISA_E4typeE
FN:99,_ZSt4moveIRiEONSt16remove_referenceIT_E4typeEOS2_
FNDA:313,_ZSt4moveIRiEONSt16remove_referenceIT_E4typeEOS2_
FN:138,_ZSt9addressofIPNSt8__detail15_Hash_node_baseEEPT_RS3_
FNDA:0,_ZSt9addressofIPNSt8__detail15_Hash_node_baseEEPT_RS3_
FN:138,_ZSt9addressofINSt8__detail10_Hash_nodeISt4pairIKiSt3setIiSt4lessIiESaIiEEELb0EEEEPT_RSB_
FNDA:0,_ZSt9addressofINSt8__detail10_Hash_nodeISt4pairIKiSt3setIiSt4lessIiESaIiEEELb0EEEEPT_RSB_
FN:138,_ZSt9addressofINSt8__detail10_Hash_nodeISt4pairIK11NonTerminalSt6vectorIS5_IiSaIiEESaIS7_EEELb0EEEEPT_RSC_
FNDA:0,_ZSt9addressofINSt8__detail10_Hash_nodeISt4pairIK11NonTerminalSt6vectorIS5_IiSaIiEESaIS7_EEELb0EEEEPT_RSC_
DA:47,0
DA:48,0
DA:47,0
DA:48,0
DA:47,0
DA:48,0
DA:47,0
DA:48,0
DA:74,0
DA:75,0
DA:74,0
DA:75,0
DA:74,0
DA:75,0
DA:74,0
DA:75,0
DA:74,0
DA:75,0
DA:74,0
DA:75,0
DA:74,0
DA:75,0
DA:74,0
DA:75,0
DA:74,0
DA:75,0
DA:74,0
DA:75,0
DA:74,0
DA:75,0
DA:74,0
DA:75,0
DA:74,0
DA:75,0
DA:74,0
DA:75,0
DA:74,0
DA:75,0
DA:74,0
DA:75,0
DA:74,0
DA:75,0
DA:74,0
DA:75,0
DA:74,0
DA:75,0
DA:74,0
DA:75,0
DA:74,0
DA:75,0
DA:74,0
DA:75,0
DA:74,0
DA:75,0
DA:74,0
DA:75,0
DA:99,313
DA:100,313
DA:138,0
DA:139,0
DA:138,0
DA:139,0
DA:138,0
DA:139,0
end_of_record
SF:/usr/include/c++/9/bits/stl_pair.h
FN:303,_ZNSt4pairIK11NonTerminalSt6vectorIS2_IiSaIiEESaIS4_EEEC2ERKS7_
FNDA:0,_ZNSt4pairIK11NonTerminalSt6vectorIS2_IiSaIiEESaIS4_EEEC2ERKS7_
FN:311,_ZNSt4pairIPSt18_Rb_tree_node_baseS1_EC2IRS1_Lb1EEEOT_RKS1_
FNDA:0,_ZNSt4pairIPSt18_Rb_tree_node_baseS1_EC2IRS1_Lb1EEEOT_RKS1_
FN:311,_ZNSt4pairIK11NonTerminalSt6vectorIS2_IiSaIiEESaIS4_EEEC2IS0_Lb1EEEOT_RKS6_
FNDA:0,_ZNSt4pairIK11NonTerminalSt6vectorIS2_IiSaIiEESaIS4_EEEC2IS0_Lb1EEEOT_RKS6_
FN:341,_ZNSt4pairINSt8__detail14_Node_iteratorIS_IK11NonTerminalSt6vectorIS4_IiSaIiEESaIS6_EEELb0ELb0EEEbEC2ISA_bLb1EEEOT_OT0_
FNDA:0,_ZNSt4pairINSt8__detail14_Node_iteratorIS_IK11NonTerminalSt6vectorIS4_IiSaIiEESaIS6_EEELb0ELb0EEEbEC2ISA_bLb1EEEOT_OT0_
FN:341,_ZNSt4pairIPSt18_Rb_tree_node_baseS1_EC2IRPSt13_Rb_tree_nodeIiERS1_Lb1EEEOT_OT0_
FNDA:0,_ZNSt4pairIPSt18_Rb_tree_node_baseS1_EC2IRPSt13_Rb_tree_nodeIiERS1_Lb1EEEOT_OT0_
FN:341,_ZNSt4pairISt17_Rb_tree_iteratorIiEbEC2IS1_bLb1EEEOT_OT0_
FNDA:0,_ZNSt4pairISt17_Rb_tree_iteratorIiEbEC2IS1_bLb1EEEOT_OT0_
FN:341,_ZNSt4pairISt23_Rb_tree_const_iteratorIiEbEC2IRSt17_Rb_tree_iteratorIiERbLb1EEEOT_OT0_
FNDA:0,_ZNSt4pairISt23_Rb_tree_const_iteratorIiEbEC2IRSt17_Rb_tree_iteratorIiERbLb1EEEOT_OT0_
FN:524,_ZSt9make_pairINSt8__detail14_Node_iteratorISt4pairIK11NonTerminalSt6vectorIS5_IiSaIiEESaIS7_EEELb0ELb0EEEbES2_INSt17__decay_and_stripIT_E6__typeENSC_IT0_E6__typeEEOSD_OSG_
FNDA:0,_ZSt9make_pairINSt8__detail14_Node_iteratorISt4pairIK11NonTerminalSt6vectorIS5_IiSaIiEESaIS7_EEELb0ELb0EEEbES2_INSt17__decay_and_stripIT_E6__typeENSC_IT0_E6__typeEEOSD_OSG_
DA:303,0
DA:311,0
DA:312,0
DA:311,0
DA:312,0
DA:341,0
DA:342,0
DA:341,0
DA:342,0
DA:341,0
DA:342,0
DA:341,0
DA:342,0
DA:524,0
DA:529,0
end_of_record
SF:/usr/include/c++/9/ext/alloc_traits.h
FN:97,_ZN9__gnu_cxx14__alloc_traitsISaIiEiE17_S_select_on_copyERKS1_
FNDA:0,_ZN9__gnu_cxx14__alloc_traitsISaIiEiE17_S_select_on_copyERKS1_
FN:97,_ZN9__gnu_cxx14__alloc_traitsISaISt6vectorIiSaIiEEES3_E17_S_select_on_copyERKS4_
FNDA:0,_ZN9__gnu_cxx14__alloc_traitsISaISt6vectorIiSaIiEEES3_E17_S_select_on_copyERKS4_
FN:103,_ZN9__gnu_cxx14__alloc_traitsISaISt13_Rb_tree_nodeIiEES2_E27_S_propagate_on_copy_assignEv
FNDA:1500,_ZN9__gnu_cxx14__alloc_traitsISaISt13_Rb_tree_nodeIiEES2_E27_S_propagate_on_copy_assignEv
FN:112,_ZN9__gnu_cxx14__alloc_traitsISaISt13_Rb_tree_nodeIiEES2_E15_S_always_equalEv
FNDA:0,_ZN9__gnu_cxx14__alloc_traitsISaISt13_Rb_tree_nodeIiEES2_E15_S_always_equalEv
DA:97,0
DA:98,0
DA:97,0
DA:98,0
DA:103,1500
DA:104,1500
DA:112,0
DA:113,0
end_of_record
SF:/usr/include/c++/9/bits/allocator.h
FN:137,_ZNSaISt13_Rb_tree_nodeIiEEC2Ev
FNDA:0,_ZNSaISt13_Rb_tree_nodeIiEEC2Ev
FN:137,_ZNSaIiEC2Ev
FNDA:0,_ZNSaIiEC2Ev
FN:137,_ZNSaISt6vectorIiSaIiEEEC2Ev
FNDA:0,_ZNSaISt6vectorIiSaIiEEEC2Ev
FN:137,_ZNSaISt4pairIK11NonTerminalSt6vectorIS2_IiSaIiEESaIS4_EEEEC2Ev
FNDA:0,_ZNSaISt4pairIK11NonTerminalSt6vectorIS2_IiSaIiEESaIS4_EEEEC2Ev
FN:137,_ZNSaINSt8__detail10_Hash_nodeISt4pairIKiSt3setIiSt4lessIiESaIiEEELb0EEEEC2Ev
FNDA:2,_ZNSaINSt8__detail10_Hash_nodeISt4pairIKiSt3setIiSt4lessIiESaIiEEELb0EEEEC2Ev
FN:140,_ZNSaISt6vectorIiSaIiEEEC2ERKS2_
FNDA:0,_ZNSaISt6vectorIiSaIiEEEC2ERKS2_
FN:140,_ZNSaIiEC2ERKS_
FNDA:0,_ZNSaIiEC2ERKS_
FN:140,_ZNSaINSt8__detail10_Hash_nodeISt4pairIK11NonTerminalSt6vectorIS4_IiSaIiEESaIS6_EEELb0EEEEC2ERKSB_
FNDA:0,_ZNSaINSt8__detail10_Hash_nodeISt4pairIK11NonTerminalSt6vectorIS4_IiSaIiEESaIS6_EEELb0EEEEC2ERKSB_
FN:150,_ZNSaINSt8__detail10_Hash_nodeISt4pairIK11NonTerminalSt6vectorIS4_IiSaIiEESaIS6_EEELb0EEEEC2IS9_EERKSaIT_E
FNDA:0,_ZNSaINSt8__detail10_Hash_nodeISt4pairIK11NonTerminalSt6vectorIS4_IiSaIiEESaIS6_EEELb0EEEEC2IS9_EERKSaIT_E
FN:150,_ZNSaIPNSt8__detail15_Hash_node_baseEEC2INS_10_Hash_nodeISt4pairIKiSt3setIiSt4lessIiESaIiEEELb0EEEEERKSaIT_E
FNDA:0,_ZNSaIPNSt8__detail15_Hash_node_baseEEC2INS_10_Hash_nodeISt4pairIKiSt3setIiSt4lessIiESaIiEEELb0EEEEERKSaIT_E
FN:150,_ZNSaIPNSt8__detail15_Hash_node_baseEEC2INS_10_Hash_nodeISt4pairIK11NonTerminalSt6vectorIS8_IiSaIiEESaISA_EEELb0EEEEERKSaIT_E
FNDA:0,_ZNSaIPNSt8__detail15_Hash_node_baseEEC2INS_10_Hash_nodeISt4pairIK11NonTerminalSt6vectorIS8_IiSaIiEESaISA_EEELb0EEEEERKSaIT_E
FN:152,_ZNSaINSt8__detail10_Hash_nodeISt4pairIK11NonTerminalSt6vectorIS4_IiSaIiEESaIS6_EEELb0EEEED2Ev
FNDA:0,_ZNSaINSt8__detail10_Hash_nodeISt4pairIK11NonTerminalSt6vectorIS4_IiSaIiEESaIS6_EEELb0EEEED2Ev
FN:152,_ZNSaISt13_Rb_tree_nodeIiEED2Ev
FNDA:0,_ZNSaISt13_Rb_tree_nodeIiEED2Ev
FN:152,_ZNSaINSt8__detail10_Hash_nodeISt4pairIKiSt3setIiSt4lessIiESaIiEEELb0EEEED2Ev
FNDA:2,_ZNSaINSt8__detail10_Hash_nodeISt4pairIKiSt3setIiSt4lessIiESaIiEEELb0EEEED2Ev
FN:152,_ZNSaISt4pairIK11NonTerminalSt6vectorIS2_IiSaIiEESaIS4_EEEED2Ev
FNDA:0,_ZNSaISt4pairIK11NonTerminalSt6vectorIS2_IiSaIiEESaIS4_EEEED2Ev
FN:152,_ZNSaISt6vectorIiSaIiEEED2Ev
FNDA:0,_ZNSaISt6vectorIiSaIiEEED2Ev
FN:152,_ZNSaIPNSt8__detail15_Hash_node_baseEED2Ev
FNDA:0,_ZNSaIPNSt8__detail15_Hash_node_baseEED2Ev
FN:152,_ZNSaIiED2Ev
FNDA:0,_ZNSaIiED2Ev
FN:159,_ZStneRKSaISt13_Rb_tree_nodeIiEES3_
FNDA:0,_ZStneRKSaISt13_Rb_tree_nodeIiEES3_
DA:137,0
DA:137,2
DA:137,0
DA:137,0
DA:137,0
DA:140,0
DA:141,0
DA:140,0
DA:141,0
DA:140,0
DA:141,0
DA:150,0
DA:150,0
DA:150,0
DA:152,0
DA:152,0
DA:152,0
DA:152,2
DA:152,0
DA:152,0
DA:152,0
DA:159,0
DA:160,0
end_of_record
SF:/usr/include/c++/9/tuple
FN:132,_ZNSt10_Head_baseILm0EOiLb0EEC2IiEEOT_
FNDA:0,_ZNSt10_Head_baseILm0EOiLb0EEC2IiEEOT_
FN:160,_ZNSt10_Head_baseILm0EOiLb0EE7_M_headERS1_
FNDA:0,_ZNSt10_Head_baseILm0EOiLb0EE7_M_headERS1_
FN:334,_ZNSt11_Tuple_implILm0EJOiEE7_M_headERS1_
FNDA:0,_ZNSt11_Tuple_implILm0EJOiEE7_M_headERS1_
FN:348,_ZNSt11_Tuple_implILm0EJOiEEC2IiEEOT_
FNDA:0,_ZNSt11_Tuple_implILm0EJOiEEC2IiEEOT_
FN:358,_ZNSt11_Tuple_implILm0EJOiEEC2EOS1_
FNDA:0,_ZNSt11_Tuple_implILm0EJOiEEC2EOS1_
FN:626,_ZNSt5tupleIJOiEEC2IJiELb1EEEDpOT_
FNDA:0,_ZNSt5tupleIJOiEEC2IJiELb1EEEDpOT_
FN:642,_ZNSt5tupleIJOiEEC2EOS1_
FNDA:0,_ZNSt5tupleIJOiEEC2EOS1_
FN:1309,_ZSt12__get_helperILm0EOiJEERT0_RSt11_Tuple_implIXT_EJS1_DpT1_EE
FNDA:0,_ZSt12__get_helperILm0EOiJEERT0_RSt11_Tuple_implIXT_EJS1_DpT1_EE
FN:1320,_ZSt3getILm0EJOiEERNSt13tuple_elementIXT_ESt5tupleIJDpT0_EEE4typeERS5_
FNDA:0,_ZSt3getILm0EJOiEERNSt13tuple_elementIXT_ESt5tupleIJDpT0_EEE4typeERS5_
FN:1482,_ZSt16forward_as_tupleIJiEESt5tupleIJDpOT_EES3_
FNDA:0,_ZSt16forward_as_tupleIJiEESt5tupleIJDpOT_EES3_
FN:1658,_ZNSt4pairIKiSt3setIiSt4lessIiESaIiEEEC2IJOiEJEEESt21piecewise_construct_tSt5tupleIJDpT_EESA_IJDpT0_EE
FNDA:0,_ZNSt4pairIKiSt3setIiSt4lessIiESaIiEEEC2IJOiEJEEESt21piecewise_construct_tSt5tupleIJDpT_EESA_IJDpT0_EE
FN:1670,_ZNSt4pairIKiSt3setIiSt4lessIiESaIiEEEC2IJOiEJLm0EEJEJEEERSt5tupleIJDpT_EERS9_IJDpT1_EESt12_Index_tupleIJXspT0_EEESI_IJXspT2_EEE
FNDA:0,_ZNSt4pairIKiSt3setIiSt4lessIiESaIiEEEC2IJOiEJLm0EEJEJEEERSt5tupleIJDpT_EERS9_IJDpT1_EESt12_Index_tupleIJXspT0_EEESI_IJXspT2_EEE
DA:132,0
DA:133,0
DA:160,0
DA:334,0
DA:348,0
DA:349,0
DA:358,0
DA:360,0
DA:626,0
DA:627,0
DA:642,0
DA:1309,0
DA:1310,0
DA:1320,0
DA:1321,0
DA:1482,0
DA:1483,0
DA:1658,0
DA:1663,0
DA:1664,0
DA:1670,0
DA:1673,0
DA:1674,0
DA:1675,0
end_of_record
SF:/usr/include/c++/9/bits/unordered_map.h
FN:141,_ZNSt13unordered_mapIiSt3setIiSt4lessIiESaIiEESt4hashIiESt8equal_toIiESaISt4pairIKiS4_EEEC2Ev
FNDA:2,_ZNSt13unordered_mapIiSt3setIiSt4lessIiESaIiEESt4hashIiESt8equal_toIiESaISt4pairIKiS4_EEEC2Ev
FN:227,_ZNSt13unordered_mapI11NonTerminalSt6vectorIS1_IiSaIiEESaIS3_EESt4hashIS0_ESt8equal_toIS0_ESaISt4pairIKS0_S5_EEEC2ESt16initializer_listISC_EmRKS7_RKS9_RKSD_
FNDA:0,_ZNSt13unordered_mapI11NonTerminalSt6vectorIS1_IiSaIiEESaIS3_EESt4hashIS0_ESt8equal_toIS0_ESaISt4pairIKS0_S5_EEEC2ESt16initializer_listISC_EmRKS7_RKS9_RKSD_
FN:325,_ZNSt13unordered_mapIiSt3setIiSt4lessIiESaIiEESt4hashIiESt8equal_toIiESaISt4pairIKiS4_EEE5beginEv
FNDA:12,_ZNSt13unordered_mapIiSt3setIiSt4lessIiESaIiEESt4hashIiESt8equal_toIiESaISt4pairIKiS4_EEE5beginEv
FN:334,_ZNKSt13unordered_mapI11NonTerminalSt6vectorIS1_IiSaIiEESaIS3_EESt4hashIS0_ESt8equal_toIS0_ESaISt4pairIKS0_S5_EEE5beginEv
FNDA:5,_ZNKSt13unordered_mapI11NonTerminalSt6vectorIS1_IiSaIiEESaIS3_EESt4hashIS0_ESt8equal_toIS0_ESaISt4pairIKS0_S5_EEE5beginEv
FN:347,_ZNSt13unordered_mapIiSt3setIiSt4lessIiESaIiEESt4hashIiESt8equal_toIiESaISt4pairIKiS4_EEE3endEv
FNDA:12,_ZNSt13unordered_mapIiSt3setIiSt4lessIiESaIiEESt4hashIiESt8equal_toIiESaISt4pairIKiS4_EEE3endEv
FN:356,_ZNKSt13unordered_mapI11NonTerminalSt6vectorIS1_IiSaIiEESaIS3_EESt4hashIS0_ESt8equal_toIS0_ESaISt4pairIKS0_S5_EEE3endEv
FNDA:5,_ZNKSt13unordered_mapI11NonTerminalSt6vectorIS1_IiSaIiEESaIS3_EESt4hashIS0_ESt8equal_toIS0_ESaISt4pairIKS0_S5_EEE3endEv
FN:989,_ZNSt13unordered_mapIiSt3setIiSt4lessIiESaIiEESt4hashIiESt8equal_toIiESaISt4pairIKiS4_EEEixEOi
FNDA:264,_ZNSt13unordered_mapIiSt3setIiSt4lessIiESaIiEESt4hashIiESt8equal_toIiESaISt4pairIKiS4_EEEixEOi
FN:1002,_ZNSt13unordered_mapIiSt3setIiSt4lessIiESaIiEESt4hashIiESt8equal_toIiESaISt4pairIKiS4_EEE2atERSA_
FNDA:0,_ZNSt13unordered_mapIiSt3setIiSt4lessIiESaIiEESt4hashIiESt8equal_toIiESaISt4pairIKiS4_EEE2atERSA_
DA:141,2
DA:227,0
DA:232,0
DA:233,0
DA:325,12
DA:326,12
DA:334,5
DA:335,5
DA:347,12
DA:348,12
DA:356,5
DA:357,5
DA:989,264
DA:990,264
DA:1002,0
DA:1003,0
end_of_record
SF:/usr/include/c++/9/bits/alloc_traits.h
FN:442,_ZNSt16allocator_traitsISaISt6vectorIiSaIiEEEE8allocateERS3_m
FNDA:0,_ZNSt16allocator_traitsISaISt6vectorIiSaIiEEEE8allocateERS3_m
FN:442,_ZNSt16allocator_traitsISaINSt8__detail10_Hash_nodeISt4pairIK11NonTerminalSt6vectorIS5_IiSaIiEESaIS7_EEELb0EEEEE8allocateERSC_m
FNDA:0,_ZNSt16allocator_traitsISaINSt8__detail10_Hash_nodeISt4pairIK11NonTerminalSt6vectorIS5_IiSaIiEESaIS7_EEELb0EEEEE8allocateERSC_m
FN:442,_ZNSt16allocator_traitsISaISt13_Rb_tree_nodeIiEEE8allocateERS2_m
FNDA:0,_ZNSt16allocator_traitsISaISt13_Rb_tree_nodeIiEEE8allocateERS2_m
FN:442,_ZNSt16allocator_traitsISaINSt8__detail10_Hash_nodeISt4pairIKiSt3setIiSt4lessIiESaIiEEELb0EEEEE8allocateERSB_m
FNDA:0,_ZNSt16allocator_traitsISaINSt8__detail10_Hash_nodeISt4pairIKiSt3setIiSt4lessIiESaIiEEELb0EEEEE8allocateERSB_m
FN:442,_ZNSt16allocator_traitsISaIPNSt8__detail15_Hash_node_baseEEE8allocateERS3_m
FNDA:0,_ZNSt16allocator_traitsISaIPNSt8__detail15_Hash_node_baseEEE8allocateERS3_m
FN:442,_ZNSt16allocator_traitsISaIiEE8allocateERS0_m
FNDA:0,_ZNSt16allocator_traitsISaIiEE8allocateERS0_m
FN:468,_ZNSt16allocator_traitsISaISt6vectorIiSaIiEEEE10deallocateERS3_PS2_m
FNDA:0,_ZNSt16allocator_traitsISaISt6vectorIiSaIiEEEE10deallocateERS3_PS2_m
FN:468,_ZNSt16allocator_traitsISaINSt8__detail10_Hash_nodeISt4pairIK11NonTerminalSt6vectorIS5_IiSaIiEESaIS7_EEELb0EEEEE10deallocateERSC_PSB_m
FNDA:0,_ZNSt16allocator_traitsISaINSt8__detail10_Hash_nodeISt4pairIK11NonTerminalSt6vectorIS5_IiSaIiEESaIS7_EEELb0EEEEE10deallocateERSC_PSB_m
FN:468,_ZNSt16allocator_traitsISaISt13_Rb_tree_nodeIiEEE10deallocateERS2_PS1_m
FNDA:0,_ZNSt16allocator_traitsISaISt13_Rb_tree_nodeIiEEE10deallocateERS2_PS1_m
FN:468,_ZNSt16allocator_traitsISaIPNSt8__detail15_Hash_node_baseEEE10deallocateERS3_PS2_m
FNDA:0,_ZNSt16allocator_traitsISaIPNSt8__detail15_Hash_node_baseEEE10deallocateERS3_PS2_m
FN:468,_ZNSt16allocator_traitsISaINSt8__detail10_Hash_nodeISt4pairIKiSt3setIiSt4lessIiESaIiEEELb0EEEEE10deallocateERSB_PSA_m
FNDA:0,_ZNSt16allocator_traitsISaINSt8__detail10_Hash_nodeISt4pairIKiSt3setIiSt4lessIiESaIiEEELb0EEEEE10deallocateERSB_PSA_m
FN:468,_ZNSt16allocator_traitsISaIiEE10deallocateERS0_Pim
FNDA:0,_ZNSt16allocator_traitsISaIiEE10deallocateERS0_Pim
FN:481,_ZNSt16allocator_traitsISaINSt8__detail10_Hash_nodeISt4pairIK11NonTerminalSt6vectorIS5_IiSaIiEESaIS7_EEELb0EEEEE9constructISA_JRKSA_EEEvRSC_PT_DpOT0_
FNDA:0,_ZNSt16allocator_traitsISaINSt8__detail10_Hash_nodeISt4pairIK11NonTerminalSt6vectorIS5_IiSaIiEESaIS7_EEELb0EEEEE9constructISA_JRKSA_EEEvRSC_PT_DpOT0_
FN:481,_ZNSt16allocator_traitsISaINSt8__detail10_Hash_nodeISt4pairIKiSt3setIiSt4lessIiESaIiEEELb0EEEEE9constructIS9_JRKSt21piecewise_construct_tSt5tupleIJOiEESH_IJEEEEEvRSB_PT_DpOT0_
FNDA:0,_ZNSt16allocator_traitsISaINSt8__detail10_Hash_nodeISt4pairIKiSt3setIiSt4lessIiESaIiEEELb0EEEEE9constructIS9_JRKSt21piecewise_construct_tSt5tupleIJOiEESH_IJEEEEEvRSB_PT_DpOT0_
FN:481,_ZNSt16allocator_traitsISaISt13_Rb_tree_nodeIiEEE9constructIiJRKiEEEvRS2_PT_DpOT0_
FNDA:0,_ZNSt16allocator_traitsISaISt13_Rb_tree_nodeIiEEE9constructIiJRKiEEEvRS2_PT_DpOT0_
FN:494,_ZNSt16allocator_traitsISaINSt8__detail10_Hash_nodeISt4pairIKiSt3setIiSt4lessIiESaIiEEELb0EEEEE7destroyIS9_EEvRSB_PT_
FNDA:0,_ZNSt16allocator_traitsISaINSt8__detail10_Hash_nodeISt4pairIKiSt3setIiSt4lessIiESaIiEEELb0EEEEE7destroyIS9_EEvRSB_PT_
FN:494,_ZNSt16allocator_traitsISaISt13_Rb_tree_nodeIiEEE7destroyIiEEvRS2_PT_
FNDA:0,_ZNSt16allocator_traitsISaISt13_Rb_tree_nodeIiEEE7destroyIiEEvRS2_PT_
FN:494,_ZNSt16allocator_traitsISaINSt8__detail10_Hash_nodeISt4pairIK11NonTerminalSt6vectorIS5_IiSaIiEESaIS7_EEELb0EEEEE7destroyISA_EEvRSC_PT_
FNDA:0,_ZNSt16allocator_traitsISaINSt8__detail10_Hash_nodeISt4pairIK11NonTerminalSt6vectorIS5_IiSaIiEESaIS7_EEELb0EEEEE7destroyISA_EEvRSC_PT_
FN:504,_ZNSt16allocator_traitsISaISt6vectorIiSaIiEEEE8max_sizeERKS3_
FNDA:0,_ZNSt16allocator_traitsISaISt6vectorIiSaIiEEEE8max_sizeERKS3_
FN:504,_ZNSt16allocator_traitsISaIiEE8max_sizeERKS0_
FNDA:0,_ZNSt16allocator_traitsISaIiEE8max_sizeERKS0_
FN:513,_ZNSt16allocator_traitsISaISt6vectorIiSaIiEEEE37select_on_container_copy_constructionERKS3_
FNDA:0,_ZNSt16allocator_traitsISaISt6vectorIiSaIiEEEE37select_on_container_copy_constructionERKS3_
FN:513,_ZNSt16allocator_traitsISaIiEE37select_on_container_copy_constructionERKS0_
FNDA:0,_ZNSt16allocator_traitsISaIiEE37select_on_container_copy_constructionERKS0_
FN:525,_ZSt18__do_alloc_on_copyISaISt13_Rb_tree_nodeIiEEEvRT_RKS3_St17integral_constantIbLb0EE
FNDA:0,_ZSt18__do_alloc_on_copyISaISt13_Rb_tree_nodeIiEEEvRT_RKS3_St17integral_constantIbLb0EE
FN:529,_ZSt15__alloc_on_copyISaISt13_Rb_tree_nodeIiEEEvRT_RKS3_
FNDA:0,_ZSt15__alloc_on_copyISaISt13_Rb_tree_nodeIiEEEvRT_RKS3_
DA:442,0
DA:443,0
DA:442,0
DA:443,0
DA:442,0
DA:443,0
DA:442,0
DA:443,0
DA:442,0
DA:443,0
DA:442,0
DA:443,0
DA:468,0
DA:469,0
DA:468,0
DA:469,0
DA:468,0
DA:469,0
DA:468,0
DA:469,0
DA:468,0
DA:469,0
DA:468,0
DA:469,0
DA:481,0
DA:483,0
DA:481,0
DA:483,0
DA:481,0
DA:483,0
DA:494,0
DA:496,0
DA:494,0
DA:496,0
DA:494,0
DA:496,0
DA:504,0
DA:505,0
DA:504,0
DA:505,0
DA:513,0
DA:514,0
DA:513,0
DA:514,0
DA:525,0
DA:526,0
DA:529,0
DA:533,0
DA:534,0
end_of_record
SF:/usr/include/c++/9/iostream
end_of_record
SF:/usr/include/c++/9/bits/ptr_traits.h
FN:146,_ZNSt14pointer_traitsIPNSt8__detail10_Hash_nodeISt4pairIK11NonTerminalSt6vectorIS5_IiSaIiEESaIS7_EEELb0EEEE10pointer_toERSB_
FNDA:0,_ZNSt14pointer_traitsIPNSt8__detail10_Hash_nodeISt4pairIK11NonTerminalSt6vectorIS5_IiSaIiEESaIS7_EEELb0EEEE10pointer_toERSB_
FN:146,_ZNSt14pointer_traitsIPNSt8__detail10_Hash_nodeISt4pairIKiSt3setIiSt4lessIiESaIiEEELb0EEEE10pointer_toERSA_
FNDA:0,_ZNSt14pointer_traitsIPNSt8__detail10_Hash_nodeISt4pairIKiSt3setIiSt4lessIiESaIiEEELb0EEEE10pointer_toERSA_
FN:146,_ZNSt14pointer_traitsIPPNSt8__detail15_Hash_node_baseEE10pointer_toERS2_
FNDA:0,_ZNSt14pointer_traitsIPPNSt8__detail15_Hash_node_baseEE10pointer_toERS2_
FN:156,_ZSt12__to_addressINSt8__detail10_Hash_nodeISt4pairIK11NonTerminalSt6vectorIS5_IiSaIiEESaIS7_EEELb0EEEEPT_SD_
FNDA:0,_ZSt12__to_addressINSt8__detail10_Hash_nodeISt4pairIK11NonTerminalSt6vectorIS5_IiSaIiEESaIS7_EEELb0EEEEPT_SD_
FN:156,_ZSt12__to_addressIPNSt8__detail15_Hash_node_baseEEPT_S4_
FNDA:0,_ZSt12__to_addressIPNSt8__detail15_Hash_node_baseEEPT_S4_
FN:156,_ZSt12__to_addressINSt8__detail10_Hash_nodeISt4pairIKiSt3setIiSt4lessIiESaIiEEELb0EEEEPT_SC_
FNDA:0,_ZSt12__to_addressINSt8__detail10_Hash_nodeISt4pairIKiSt3setIiSt4lessIiESaIiEEELb0EEEEPT_SC_
DA:146,0
DA:147,0
DA:146,0
DA:147,0
DA:146,0
DA:147,0
DA:156,0
DA:159,0
DA:156,0
DA:159,0
DA:156,0
DA:159,0
end_of_record
SF:/usr/include/c++/9/bits/stl_algobase.h
FN:198,_ZSt3minImERKT_S2_S2_
FNDA:0,_ZSt3minImERKT_S2_S2_
FN:222,_ZSt3maxImERKT_S2_S2_
FNDA:0,_ZSt3maxImERKT_S2_S2_
FN:280,_ZSt12__niter_baseIPiET_S1_
FNDA:0,_ZSt12__niter_baseIPiET_S1_
FN:280,_ZSt12__niter_baseIPKiET_S2_
FNDA:0,_ZSt12__niter_baseIPKiET_S2_
FN:295,_ZSt12__niter_wrapIPiET_RKS1_S1_
FNDA:0,_ZSt12__niter_wrapIPiET_RKS1_S1_
FN:375,_ZNSt11__copy_moveILb0ELb1ESt26random_access_iterator_tagE8__copy_mIiEEPT_PKS3_S6_S4_
FNDA:0,_ZNSt11__copy_moveILb0ELb1ESt26random_access_iterator_tagE8__copy_mIiEEPT_PKS3_S6_S4_
FN:393,_ZSt13__copy_move_aILb0EPKiPiET1_T0_S4_S3_
FNDA:0,_ZSt13__copy_move_aILb0EPKiPiET1_T0_S4_S3_
FN:438,_ZSt14__copy_move_a2ILb0EN9__gnu_cxx17__normal_iteratorIPKiSt6vectorIiSaIiEEEEPiET1_T0_SA_S9_
FNDA:0,_ZSt14__copy_move_a2ILb0EN9__gnu_cxx17__normal_iteratorIPKiSt6vectorIiSaIiEEEEPiET1_T0_SA_S9_
FN:438,_ZSt14__copy_move_a2ILb0EPKiPiET1_T0_S4_S3_
FNDA:0,_ZSt14__copy_move_a2ILb0EPKiPiET1_T0_S4_S3_
FN:465,_ZSt4copyIN9__gnu_cxx17__normal_iteratorIPKiSt6vectorIiSaIiEEEEPiET0_T_SA_S9_
FNDA:0,_ZSt4copyIN9__gnu_cxx17__normal_iteratorIPKiSt6vectorIiSaIiEEEEPiET0_T_SA_S9_
FN:465,_ZSt4copyIPKiPiET0_T_S4_S3_
FNDA:0,_ZSt4copyIPKiPiET0_T_S4_S3_
DA:198,0
DA:203,0
DA:204,0
DA:205,0
DA:222,0
DA:227,0
DA:228,0
DA:229,0
DA:280,0
DA:282,0
DA:280,0
DA:282,0
DA:295,0
DA:296,0
DA:375,0
DA:384,0
DA:385,0
DA:386,0
DA:387,0
DA:393,0
DA:398,0
DA:404,0
DA:438,0
DA:440,0
DA:443,0
DA:438,0
DA:440,0
DA:443,0
DA:465,0
DA:474,0
DA:465,0
DA:474,0
end_of_record
SF:/usr/include/c++/9/bits/functional_hash.h
FN:91,_ZNKSt11__hash_enumI11NonTerminalLb1EEclES0_
FNDA:0,_ZNKSt11__hash_enumI11NonTerminalLb1EEclES0_
FN:153,_ZNKSt4hashIiEclEi
FNDA:0,_ZNKSt4hashIiEclEi
FN:165,_ZNKSt4hashIjEclEj
FNDA:0,_ZNKSt4hashIjEclEj
DA:91,0
DA:94,0
DA:153,0
DA:165,0
end_of_record
SF:/home/idra/Sync/EPQ/src/parser/sets/first.cpp
FN:18,_ZN5first12_GLOBAL__N_120AddUnexpandedSymbols33AddProductionRightToFirstSetRightERbRKSt6vectorIiSaIiEERSt3setIiSt4lessIiES4_E
FNDA:528,_ZN5first12_GLOBAL__N_120AddUnexpandedSymbols33AddProductionRightToFirstSetRightERbRKSt6vectorIiSaIiEERSt3setIiSt4lessIiES4_E
FN:26,_ZN5first12_GLOBAL__N_120AddUnexpandedSymbols20AddUnexpandedSymbolsERb
FNDA:4,_ZN5first12_GLOBAL__N_120AddUnexpandedSymbols20AddUnexpandedSymbolsERb
FN:36,_ZN5first12_GLOBAL__N_120AddUnexpandedSymbols20AddUnexpandedSymbolsEv
FNDA:2,_ZN5first12_GLOBAL__N_120AddUnexpandedSymbols20AddUnexpandedSymbolsEv
FN:47,_ZN5first12_GLOBAL__N_115ExpandFirstSets29ContainsFirstSetOfNonTerminalERSt3setIiSt4lessIiESaIiEEi
FNDA:158,_ZN5first12_GLOBAL__N_115ExpandFirstSets29ContainsFirstSetOfNonTerminalERSt3setIiSt4lessIiESaIiEEi
FN:57,_ZN5first12_GLOBAL__N_115ExpandFirstSets17ExpandNonTerminalERSt3setIiSt4lessIiESaIiEEi
FNDA:0,_ZN5first12_GLOBAL__N_115ExpandFirstSets17ExpandNonTerminalERSt3setIiSt4lessIiESaIiEEi
FN:64,_ZN5first12_GLOBAL__N_115ExpandFirstSets27ExpandFirstSetsOneIterationERbRSt3setIiSt4lessIiESaIiEE
FNDA:1125,_ZN5first12_GLOBAL__N_115ExpandFirstSets27ExpandFirstSetsOneIterationERbRSt3setIiSt4lessIiESaIiEE
FN:86,_ZN5first12_GLOBAL__N_115ExpandFirstSets15ExpandFirstSetsEv
FNDA:2,_ZN5first12_GLOBAL__N_115ExpandFirstSets15ExpandFirstSetsEv
FN:98,_ZN5first15ComputeFirstSetEv
FNDA:2,_ZN5first15ComputeFirstSetEv
FN:106,_ZN5first11GetFirstSetEv
FNDA:322,_ZN5first11GetFirstSetEv
DA:18,528
DA:20,528
DA:21,180
DA:22,180
DA:24,528
DA:26,4
DA:27,268
DA:28,264
DA:29,264
DA:30,792
DA:31,528
DA:34,4
DA:36,2
DA:38,2
DA:39,6
DA:40,4
DA:41,4
DA:43,2
DA:47,158
DA:49,397
DA:50,350
DA:51,111
DA:54,47
DA:57,0
DA:59,0
DA:60,0
DA:62,0
DA:64,1125
DA:66,2250
DA:67,3289
DA:70,2164
DA:71,2006
DA:77,158
DA:78,111
DA:79,111
DA:83,1125
DA:84,1125
DA:86,2
DA:87,2
DA:88,11
DA:89,9
DA:90,1134
DA:91,1125
DA:94,2
DA:98,2
DA:99,2
DA:100,2
DA:101,2
DA:102,2
DA:103,2
DA:104,2
DA:106,322
DA:107,322
end_of_record
SF:/usr/include/c++/9/bits/stl_vector.h
FN:94,_ZNSt12_Vector_baseIiSaIiEE17_Vector_impl_dataC2Ev
FNDA:0,_ZNSt12_Vector_baseIiSaIiEE17_Vector_impl_dataC2Ev
FN:94,_ZNSt12_Vector_baseISt6vectorIiSaIiEESaIS2_EE17_Vector_impl_dataC2Ev
FNDA:0,_ZNSt12_Vector_baseISt6vectorIiSaIiEESaIS2_EE17_Vector_impl_dataC2Ev
FN:133,_ZNSt12_Vector_baseISt6vectorIiSaIiEESaIS2_EE12_Vector_implC2ERKS3_
FNDA:0,_ZNSt12_Vector_baseISt6vectorIiSaIiEESaIS2_EE12_Vector_implC2ERKS3_
FN:133,_ZNSt12_Vector_baseIiSaIiEE12_Vector_implC2ERKS0_
FNDA:0,_ZNSt12_Vector_baseIiSaIiEE12_Vector_implC2ERKS0_
FN:273,_ZNSt12_Vector_baseISt6vectorIiSaIiEESaIS2_EE19_M_get_Tp_allocatorEv
FNDA:0,_ZNSt12_Vector_baseISt6vectorIiSaIiEESaIS2_EE19_M_get_Tp_allocatorEv
FN:273,_ZNSt12_Vector_baseIiSaIiEE19_M_get_Tp_allocatorEv
FNDA:0,_ZNSt12_Vector_baseIiSaIiEE19_M_get_Tp_allocatorEv
FN:277,_ZNKSt12_Vector_baseIiSaIiEE19_M_get_Tp_allocatorEv
FNDA:0,_ZNKSt12_Vector_baseIiSaIiEE19_M_get_Tp_allocatorEv
FN:277,_ZNKSt12_Vector_baseISt6vectorIiSaIiEESaIS2_EE19_M_get_Tp_allocatorEv
FNDA:0,_ZNKSt12_Vector_baseISt6vectorIiSaIiEESaIS2_EE19_M_get_Tp_allocatorEv
FN:290,_ZNSt12_Vector_baseIiSaIiEEC2ERKS0_
FNDA:0,_ZNSt12_Vector_baseIiSaIiEEC2ERKS0_
FN:290,_ZNSt12_Vector_baseISt6vectorIiSaIiEESaIS2_EEC2ERKS3_
FNDA:0,_ZNSt12_Vector_baseISt6vectorIiSaIiEESaIS2_EEC2ERKS3_
FN:300,_ZNSt12_Vector_baseIiSaIiEEC2EmRKS0_
FNDA:0,_ZNSt12_Vector_baseIiSaIiEEC2EmRKS0_
FN:300,_ZNSt12_Vector_baseISt6vectorIiSaIiEESaIS2_EEC2EmRKS3_
FNDA:0,_ZNSt12_Vector_baseISt6vectorIiSaIiEESaIS2_EEC2EmRKS3_
FN:330,_ZNSt12_Vector_baseIiSaIiEED2Ev
FNDA:0,_ZNSt12_Vector_baseIiSaIiEED2Ev
FN:330,_ZNSt12_Vector_baseISt6vectorIiSaIiEESaIS2_EED2Ev
FNDA:0,_ZNSt12_Vector_baseISt6vectorIiSaIiEESaIS2_EED2Ev
FN:340,_ZNSt12_Vector_baseIiSaIiEE11_M_allocateEm
FNDA:0,_ZNSt12_Vector_baseIiSaIiEE11_M_allocateEm
FN:340,_ZNSt12_Vector_baseISt6vectorIiSaIiEESaIS2_EE11_M_allocateEm
FNDA:0,_ZNSt12_Vector_baseISt6vectorIiSaIiEESaIS2_EE11_M_allocateEm
FN:347,_ZNSt12_Vector_baseIiSaIiEE13_M_deallocateEPim
FNDA:0,_ZNSt12_Vector_baseIiSaIiEE13_M_deallocateEPim
FN:347,_ZNSt12_Vector_baseISt6vectorIiSaIiEESaIS2_EE13_M_deallocateEPS2_m
FNDA:0,_ZNSt12_Vector_baseISt6vectorIiSaIiEESaIS2_EE13_M_deallocateEPS2_m
FN:356,_ZNSt12_Vector_baseIiSaIiEE17_M_create_storageEm
FNDA:0,_ZNSt12_Vector_baseIiSaIiEE17_M_create_storageEm
FN:356,_ZNSt12_Vector_baseISt6vectorIiSaIiEESaIS2_EE17_M_create_storageEm
FNDA:0,_ZNSt12_Vector_baseISt6vectorIiSaIiEESaIS2_EE17_M_create_storageEm
FN:550,_ZNSt6vectorIiSaIiEEC2ERKS1_
FNDA:0,_ZNSt6vectorIiSaIiEEC2ERKS1_
FN:550,_ZNSt6vectorIS_IiSaIiEESaIS1_EEC2ERKS3_
FNDA:0,_ZNSt6vectorIS_IiSaIiEESaIS1_EEC2ERKS3_
FN:622,_ZNSt6vectorIS_IiSaIiEESaIS1_EEC2ESt16initializer_listIS1_ERKS2_
FNDA:0,_ZNSt6vectorIS_IiSaIiEESaIS1_EEC2ESt16initializer_listIS1_ERKS2_
FN:622,_ZNSt6vectorIiSaIiEEC2ESt16initializer_listIiERKS0_
FNDA:0,_ZNSt6vectorIiSaIiEEC2ESt16initializer_listIiERKS0_
FN:675,_ZNSt6vectorIS_IiSaIiEESaIS1_EED2Ev
FNDA:0,_ZNSt6vectorIS_IiSaIiEESaIS1_EED2Ev
FN:675,_ZNSt6vectorIiSaIiEED2Ev
FNDA:0,_ZNSt6vectorIiSaIiEED2Ev
FN:817,_ZNKSt6vectorIS_IiSaIiEESaIS1_EE5beginEv
FNDA:0,_ZNKSt6vectorIS_IiSaIiEESaIS1_EE5beginEv
FN:817,_ZNKSt6vectorIiSaIiEE5beginEv
FNDA:0,_ZNKSt6vectorIiSaIiEE5beginEv
FN:835,_ZNKSt6vectorIS_IiSaIiEESaIS1_EE3endEv
FNDA:0,_ZNKSt6vectorIS_IiSaIiEESaIS1_EE3endEv
FN:835,_ZNKSt6vectorIiSaIiEE3endEv
FNDA:0,_ZNKSt6vectorIiSaIiEE3endEv
FN:915,_ZNKSt6vectorIS_IiSaIiEESaIS1_EE4sizeEv
FNDA:0,_ZNKSt6vectorIS_IiSaIiEESaIS1_EE4sizeEv
FN:915,_ZNKSt6vectorIiSaIiEE4sizeEv
FNDA:0,_ZNKSt6vectorIiSaIiEE4sizeEv
FN:1058,_ZNKSt6vectorIiSaIiEEixEm
FNDA:1369,_ZNKSt6vectorIiSaIiEEixEm
FN:1574,_ZNSt6vectorIS_IiSaIiEESaIS1_EE19_M_range_initializeIPKS1_EEvT_S7_St20forward_iterator_tag
FNDA:0,_ZNSt6vectorIS_IiSaIiEESaIS1_EE19_M_range_initializeIPKS1_EEvT_S7_St20forward_iterator_tag
FN:1574,_ZNSt6vectorIiSaIiEE19_M_range_initializeIPKiEEvT_S5_St20forward_iterator_tag
FNDA:0,_ZNSt6vectorIiSaIiEE19_M_range_initializeIPKiEEvT_S5_St20forward_iterator_tag
FN:1764,_ZNSt6vectorIiSaIiEE17_S_check_init_lenEmRKS0_
FNDA:0,_ZNSt6vectorIiSaIiEE17_S_check_init_lenEmRKS0_
FN:1764,_ZNSt6vectorIS_IiSaIiEESaIS1_EE17_S_check_init_lenEmRKS2_
FNDA:0,_ZNSt6vectorIS_IiSaIiEESaIS1_EE17_S_check_init_lenEmRKS2_
FN:1773,_ZNSt6vectorIiSaIiEE11_S_max_sizeERKS0_
FNDA:0,_ZNSt6vectorIiSaIiEE11_S_max_sizeERKS0_
FN:1773,_ZNSt6vectorIS_IiSaIiEESaIS1_EE11_S_max_sizeERKS2_
FNDA:0,_ZNSt6vectorIS_IiSaIiEESaIS1_EE11_S_max_sizeERKS2_
DA:94,0
DA:95,0
DA:96,0
DA:94,0
DA:95,0
DA:96,0
DA:133,0
DA:134,0
DA:135,0
DA:133,0
DA:134,0
DA:135,0
DA:273,0
DA:274,0
DA:273,0
DA:274,0
DA:277,0
DA:278,0
DA:277,0
DA:278,0
DA:290,0
DA:291,0
DA:290,0
DA:291,0
DA:300,0
DA:301,0
DA:302,0
DA:300,0
DA:301,0
DA:302,0
DA:330,0
DA:332,0
DA:333,0
DA:334,0
DA:330,0
DA:332,0
DA:333,0
DA:334,0
DA:340,0
DA:343,0
DA:340,0
DA:343,0
DA:347,0
DA:350,0
DA:351,0
DA:352,0
DA:347,0
DA:350,0
DA:351,0
DA:352,0
DA:356,0
DA:358,0
DA:359,0
DA:360,0
DA:361,0
DA:356,0
DA:358,0
DA:359,0
DA:360,0
DA:361,0
DA:550,0
DA:552,0
DA:554,0
DA:555,0
DA:557,0
DA:558,0
DA:550,0
DA:552,0
DA:554,0
DA:555,0
DA:557,0
DA:558,0
DA:622,0
DA:624,0
DA:626,0
DA:628,0
DA:622,0
DA:624,0
DA:626,0
DA:628,0
DA:675,0
DA:677,0
DA:678,0
DA:680,0
DA:675,0
DA:677,0
DA:678,0
DA:680,0
DA:817,0
DA:818,0
DA:817,0
DA:818,0
DA:835,0
DA:836,0
DA:835,0
DA:836,0
DA:915,0
DA:916,0
DA:915,0
DA:916,0
DA:1058,1369
DA:1061,1369
DA:1574,0
DA:1577,0
DA:1578,0
DA:1579,0
DA:1580,0
DA:1581,0
DA:1582,0
DA:1584,0
DA:1585,0
DA:1574,0
DA:1577,0
DA:1578,0
DA:1579,0
DA:1580,0
DA:1581,0
DA:1582,0
DA:1584,0
DA:1585,0
DA:1764,0
DA:1766,0
DA:1767,0
DA:1769,0
DA:1764,0
DA:1766,0
DA:1767,0
DA:1769,0
DA:1773,0
DA:1778,0
DA:1780,0
DA:1781,0
DA:1773,0
DA:1778,0
DA:1780,0
DA:1781,0
end_of_record
SF:/usr/include/c++/9/bits/stl_uninitialized.h
FN:76,_ZNSt20__uninitialized_copyILb0EE13__uninit_copyIN9__gnu_cxx17__normal_iteratorIPKSt6vectorIiSaIiEES4_IS6_SaIS6_EEEEPS6_EET0_T_SE_SD_
FNDA:0,_ZNSt20__uninitialized_copyILb0EE13__uninit_copyIN9__gnu_cxx17__normal_iteratorIPKSt6vectorIiSaIiEES4_IS6_SaIS6_EEEEPS6_EET0_T_SE_SD_
FN:76,_ZNSt20__uninitialized_copyILb0EE13__uninit_copyIPKSt6vectorIiSaIiEEPS4_EET0_T_S9_S8_
FNDA:0,_ZNSt20__uninitialized_copyILb0EE13__uninit_copyIPKSt6vectorIiSaIiEEPS4_EET0_T_S9_S8_
FN:99,_ZNSt20__uninitialized_copyILb1EE13__uninit_copyIN9__gnu_cxx17__normal_iteratorIPKiSt6vectorIiSaIiEEEEPiEET0_T_SC_SB_
FNDA:0,_ZNSt20__uninitialized_copyILb1EE13__uninit_copyIN9__gnu_cxx17__normal_iteratorIPKiSt6vectorIiSaIiEEEEPiEET0_T_SC_SB_
FN:99,_ZNSt20__uninitialized_copyILb1EE13__uninit_copyIPKiPiEET0_T_S6_S5_
FNDA:0,_ZNSt20__uninitialized_copyILb1EE13__uninit_copyIPKiPiEET0_T_S6_S5_
FN:115,_ZSt18uninitialized_copyIN9__gnu_cxx17__normal_iteratorIPKiSt6vectorIiSaIiEEEEPiET0_T_SA_S9_
FNDA:0,_ZSt18uninitialized_copyIN9__gnu_cxx17__normal_iteratorIPKiSt6vectorIiSaIiEEEEPiET0_T_SA_S9_
FN:115,_ZSt18uninitialized_copyIN9__gnu_cxx17__normal_iteratorIPKSt6vectorIiSaIiEES2_IS4_SaIS4_EEEEPS4_ET0_T_SC_SB_
FNDA:0,_ZSt18uninitialized_copyIN9__gnu_cxx17__normal_iteratorIPKSt6vectorIiSaIiEES2_IS4_SaIS4_EEEEPS4_ET0_T_SC_SB_
FN:115,_ZSt18uninitialized_copyIPKSt6vectorIiSaIiEEPS2_ET0_T_S7_S6_
FNDA:0,_ZSt18uninitialized_copyIPKSt6vectorIiSaIiEEPS2_ET0_T_S7_S6_
FN:115,_ZSt18uninitialized_copyIPKiPiET0_T_S4_S3_
FNDA:0,_ZSt18uninitialized_copyIPKiPiET0_T_S4_S3_
FN:305,_ZSt22__uninitialized_copy_aIN9__gnu_cxx17__normal_iteratorIPKiSt6vectorIiSaIiEEEEPiiET0_T_SA_S9_RSaIT1_E
FNDA:0,_ZSt22__uninitialized_copy_aIN9__gnu_cxx17__normal_iteratorIPKiSt6vectorIiSaIiEEEEPiiET0_T_SA_S9_RSaIT1_E
FN:305,_ZSt22__uninitialized_copy_aIN9__gnu_cxx17__normal_iteratorIPKSt6vectorIiSaIiEES2_IS4_SaIS4_EEEEPS4_S4_ET0_T_SC_SB_RSaIT1_E
FNDA:0,_ZSt22__uninitialized_copy_aIN9__gnu_cxx17__normal_iteratorIPKSt6vectorIiSaIiEES2_IS4_SaIS4_EEEEPS4_S4_ET0_T_SC_SB_RSaIT1_E
FN:305,_ZSt22__uninitialized_copy_aIPKSt6vectorIiSaIiEEPS2_S2_ET0_T_S7_S6_RSaIT1_E
FNDA:0,_ZSt22__uninitialized_copy_aIPKSt6vectorIiSaIiEEPS2_S2_ET0_T_S7_S6_RSaIT1_E
FN:305,_ZSt22__uninitialized_copy_aIPKiPiiET0_T_S4_S3_RSaIT1_E
FNDA:0,_ZSt22__uninitialized_copy_aIPKiPiiET0_T_S4_S3_RSaIT1_E
DA:76,0
DA:79,0
DA:82,0
DA:83,0
DA:84,0
DA:86,0
DA:88,0
DA:89,0
DA:76,0
DA:79,0
DA:82,0
DA:83,0
DA:84,0
DA:86,0
DA:88,0
DA:89,0
DA:99,0
DA:101,0
DA:99,0
DA:101,0
DA:115,0
DA:134,0
DA:140,0
DA:115,0
DA:134,0
DA:140,0
DA:115,0
DA:134,0
DA:140,0
DA:115,0
DA:134,0
DA:140,0
DA:305,0
DA:307,0
DA:305,0
DA:307,0
DA:305,0
DA:307,0
DA:305,0
DA:307,0
end_of_record
SF:/usr/include/c++/9/bits/stl_tree.h
FN:112,_ZNSt18_Rb_tree_node_base10_S_minimumEPS_
FNDA:0,_ZNSt18_Rb_tree_node_base10_S_minimumEPS_
FN:126,_ZNSt18_Rb_tree_node_base10_S_maximumEPS_
FNDA:0,_ZNSt18_Rb_tree_node_base10_S_maximumEPS_
FN:146,_ZNSt20_Rb_tree_key_compareISt4lessIiEEC2Ev
FNDA:0,_ZNSt20_Rb_tree_key_compareISt4lessIiEEC2Ev
FN:173,_ZNSt15_Rb_tree_headerC2Ev
FNDA:0,_ZNSt15_Rb_tree_headerC2Ev
FN:206,_ZNSt15_Rb_tree_header8_M_resetEv
FNDA:0,_ZNSt15_Rb_tree_header8_M_resetEv
FN:234,_ZNSt13_Rb_tree_nodeIiE9_M_valptrEv
FNDA:0,_ZNSt13_Rb_tree_nodeIiE9_M_valptrEv
FN:238,_ZNKSt13_Rb_tree_nodeIiE9_M_valptrEv
FNDA:0,_ZNKSt13_Rb_tree_nodeIiE9_M_valptrEv
FN:273,_ZNSt17_Rb_tree_iteratorIiEC2EPSt18_Rb_tree_node_base
FNDA:0,_ZNSt17_Rb_tree_iteratorIiEC2EPSt18_Rb_tree_node_base
FN:300,_ZNSt17_Rb_tree_iteratorIiEmmEv
FNDA:0,_ZNSt17_Rb_tree_iteratorIiEmmEv
FN:315,_ZSteqRKSt17_Rb_tree_iteratorIiES2_
FNDA:0,_ZSteqRKSt17_Rb_tree_iteratorIiES2_
FN:345,_ZNSt23_Rb_tree_const_iteratorIiEC2EPKSt18_Rb_tree_node_base
FNDA:0,_ZNSt23_Rb_tree_const_iteratorIiEC2EPKSt18_Rb_tree_node_base
FN:348,_ZNSt23_Rb_tree_const_iteratorIiEC2ERKSt17_Rb_tree_iteratorIiE
FNDA:0,_ZNSt23_Rb_tree_const_iteratorIiEC2ERKSt17_Rb_tree_iteratorIiE
FN:356,_ZNKSt23_Rb_tree_const_iteratorIiEdeEv
FNDA:0,_ZNKSt23_Rb_tree_const_iteratorIiEdeEv
FN:364,_ZNSt23_Rb_tree_const_iteratorIiEppEv
FNDA:0,_ZNSt23_Rb_tree_const_iteratorIiEppEv
FN:394,_ZSteqRKSt23_Rb_tree_const_iteratorIiES2_
FNDA:0,_ZSteqRKSt23_Rb_tree_const_iteratorIiES2_
FN:398,_ZStneRKSt23_Rb_tree_const_iteratorIiES2_
FNDA:0,_ZStneRKSt23_Rb_tree_const_iteratorIiES2_
FN:454,_ZNSt8_Rb_treeIiiSt9_IdentityIiESt4lessIiESaIiEE20_Reuse_or_alloc_nodeC2ERS5_
FNDA:0,_ZNSt8_Rb_treeIiiSt9_IdentityIiESt4lessIiESaIiEE20_Reuse_or_alloc_nodeC2ERS5_
FN:472,_ZNSt8_Rb_treeIiiSt9_IdentityIiESt4lessIiESaIiEE20_Reuse_or_alloc_nodeD2Ev
FNDA:0,_ZNSt8_Rb_treeIiiSt9_IdentityIiESt4lessIiESaIiEE20_Reuse_or_alloc_nodeD2Ev
FN:480,_ZNSt8_Rb_treeIiiSt9_IdentityIiESt4lessIiESaIiEE20_Reuse_or_alloc_nodeclIRKiEEPSt13_Rb_tree_nodeIiEOT_
FNDA:0,_ZNSt8_Rb_treeIiiSt9_IdentityIiESt4lessIiESaIiEE20_Reuse_or_alloc_nodeclIRKiEEPSt13_Rb_tree_nodeIiEOT_
FN:496,_ZNSt8_Rb_treeIiiSt9_IdentityIiESt4lessIiESaIiEE20_Reuse_or_alloc_node10_M_extractEv
FNDA:0,_ZNSt8_Rb_treeIiiSt9_IdentityIiESt4lessIiESaIiEE20_Reuse_or_alloc_node10_M_extractEv
FN:538,_ZNSt8_Rb_treeIiiSt9_IdentityIiESt4lessIiESaIiEE11_Alloc_nodeC2ERS5_
FNDA:0,_ZNSt8_Rb_treeIiiSt9_IdentityIiESt4lessIiESaIiEE11_Alloc_nodeC2ERS5_
FN:546,_ZNKSt8_Rb_treeIiiSt9_IdentityIiESt4lessIiESaIiEE11_Alloc_nodeclIRKiEEPSt13_Rb_tree_nodeIiEOT_
FNDA:0,_ZNKSt8_Rb_treeIiiSt9_IdentityIiESt4lessIiESaIiEE11_Alloc_nodeclIRKiEEPSt13_Rb_tree_nodeIiEOT_
FN:566,_ZNSt8_Rb_treeIiiSt9_IdentityIiESt4lessIiESaIiEE21_M_get_Node_allocatorEv
FNDA:0,_ZNSt8_Rb_treeIiiSt9_IdentityIiESt4lessIiESaIiEE21_M_get_Node_allocatorEv
FN:570,_ZNKSt8_Rb_treeIiiSt9_IdentityIiESt4lessIiESaIiEE21_M_get_Node_allocatorEv
FNDA:0,_ZNKSt8_Rb_treeIiiSt9_IdentityIiESt4lessIiESaIiEE21_M_get_Node_allocatorEv
FN:579,_ZNSt8_Rb_treeIiiSt9_IdentityIiESt4lessIiESaIiEE11_M_get_nodeEv
FNDA:0,_ZNSt8_Rb_treeIiiSt9_IdentityIiESt4lessIiESaIiEE11_M_get_nodeEv
FN:583,_ZNSt8_Rb_treeIiiSt9_IdentityIiESt4lessIiESaIiEE11_M_put_nodeEPSt13_Rb_tree_nodeIiE
FNDA:0,_ZNSt8_Rb_treeIiiSt9_IdentityIiESt4lessIiESaIiEE11_M_put_nodeEPSt13_Rb_tree_nodeIiE
FN:609,_ZNSt8_Rb_treeIiiSt9_IdentityIiESt4lessIiESaIiEE17_M_construct_nodeIJRKiEEEvPSt13_Rb_tree_nodeIiEDpOT_
FNDA:0,_ZNSt8_Rb_treeIiiSt9_IdentityIiESt4lessIiESaIiEE17_M_construct_nodeIJRKiEEEvPSt13_Rb_tree_nodeIiEDpOT_
FN:628,_ZNSt8_Rb_treeIiiSt9_IdentityIiESt4lessIiESaIiEE14_M_create_nodeIJRKiEEEPSt13_Rb_tree_nodeIiEDpOT_
FNDA:0,_ZNSt8_Rb_treeIiiSt9_IdentityIiESt4lessIiESaIiEE14_M_create_nodeIJRKiEEEPSt13_Rb_tree_nodeIiEDpOT_
FN:637,_ZNSt8_Rb_treeIiiSt9_IdentityIiESt4lessIiESaIiEE15_M_destroy_nodeEPSt13_Rb_tree_nodeIiE
FNDA:0,_ZNSt8_Rb_treeIiiSt9_IdentityIiESt4lessIiESaIiEE15_M_destroy_nodeEPSt13_Rb_tree_nodeIiE
FN:648,_ZNSt8_Rb_treeIiiSt9_IdentityIiESt4lessIiESaIiEE12_M_drop_nodeEPSt13_Rb_tree_nodeIiE
FNDA:0,_ZNSt8_Rb_treeIiiSt9_IdentityIiESt4lessIiESaIiEE12_M_drop_nodeEPSt13_Rb_tree_nodeIiE
FN:656,_ZNSt8_Rb_treeIiiSt9_IdentityIiESt4lessIiESaIiEE13_M_clone_nodeINS5_20_Reuse_or_alloc_nodeEEEPSt13_Rb_tree_nodeIiEPKS9_RT_
FNDA:4362,_ZNSt8_Rb_treeIiiSt9_IdentityIiESt4lessIiESaIiEE13_M_clone_nodeINS5_20_Reuse_or_alloc_nodeEEEPSt13_Rb_tree_nodeIiEPKS9_RT_
FN:680,_ZNSt8_Rb_treeIiiSt9_IdentityIiESt4lessIiESaIiEE13_Rb_tree_implIS3_Lb1EEC2Ev
FNDA:0,_ZNSt8_Rb_treeIiiSt9_IdentityIiESt4lessIiESaIiEE13_Rb_tree_implIS3_Lb1EEC2Ev
FN:725,_ZNSt8_Rb_treeIiiSt9_IdentityIiESt4lessIiESaIiEE7_M_rootEv
FNDA:0,_ZNSt8_Rb_treeIiiSt9_IdentityIiESt4lessIiESaIiEE7_M_rootEv
FN:729,_ZNKSt8_Rb_treeIiiSt9_IdentityIiESt4lessIiESaIiEE7_M_rootEv
FNDA:0,_ZNKSt8_Rb_treeIiiSt9_IdentityIiESt4lessIiESaIiEE7_M_rootEv
FN:733,_ZNSt8_Rb_treeIiiSt9_IdentityIiESt4lessIiESaIiEE11_M_leftmostEv
FNDA:0,_ZNSt8_Rb_treeIiiSt9_IdentityIiESt4lessIiESaIiEE11_M_leftmostEv
FN:741,_ZNSt8_Rb_treeIiiSt9_IdentityIiESt4lessIiESaIiEE12_M_rightmostEv
FNDA:0,_ZNSt8_Rb_treeIiiSt9_IdentityIiESt4lessIiESaIiEE12_M_rightmostEv
FN:749,_ZNSt8_Rb_treeIiiSt9_IdentityIiESt4lessIiESaIiEE8_M_beginEv
FNDA:0,_ZNSt8_Rb_treeIiiSt9_IdentityIiESt4lessIiESaIiEE8_M_beginEv
FN:753,_ZNKSt8_Rb_treeIiiSt9_IdentityIiESt4lessIiESaIiEE8_M_beginEv
FNDA:0,_ZNKSt8_Rb_treeIiiSt9_IdentityIiESt4lessIiESaIiEE8_M_beginEv
FN:760,_ZNSt8_Rb_treeIiiSt9_IdentityIiESt4lessIiESaIiEE6_M_endEv
FNDA:0,_ZNSt8_Rb_treeIiiSt9_IdentityIiESt4lessIiESaIiEE6_M_endEv
FN:764,_ZNKSt8_Rb_treeIiiSt9_IdentityIiESt4lessIiESaIiEE6_M_endEv
FNDA:0,_ZNKSt8_Rb_treeIiiSt9_IdentityIiESt4lessIiESaIiEE6_M_endEv
FN:772,_ZNSt8_Rb_treeIiiSt9_IdentityIiESt4lessIiESaIiEE6_S_keyEPKSt13_Rb_tree_nodeIiE
FNDA:0,_ZNSt8_Rb_treeIiiSt9_IdentityIiESt4lessIiESaIiEE6_S_keyEPKSt13_Rb_tree_nodeIiE
FN:794,_ZNSt8_Rb_treeIiiSt9_IdentityIiESt4lessIiESaIiEE7_S_leftEPSt18_Rb_tree_node_base
FNDA:0,_ZNSt8_Rb_treeIiiSt9_IdentityIiESt4lessIiESaIiEE7_S_leftEPSt18_Rb_tree_node_base
FN:798,_ZNSt8_Rb_treeIiiSt9_IdentityIiESt4lessIiESaIiEE7_S_leftEPKSt18_Rb_tree_node_base
FNDA:0,_ZNSt8_Rb_treeIiiSt9_IdentityIiESt4lessIiESaIiEE7_S_leftEPKSt18_Rb_tree_node_base
FN:802,_ZNSt8_Rb_treeIiiSt9_IdentityIiESt4lessIiESaIiEE8_S_rightEPSt18_Rb_tree_node_base
FNDA:0,_ZNSt8_Rb_treeIiiSt9_IdentityIiESt4lessIiESaIiEE8_S_rightEPSt18_Rb_tree_node_base
FN:806,_ZNSt8_Rb_treeIiiSt9_IdentityIiESt4lessIiESaIiEE8_S_rightEPKSt18_Rb_tree_node_base
FNDA:0,_ZNSt8_Rb_treeIiiSt9_IdentityIiESt4lessIiESaIiEE8_S_rightEPKSt18_Rb_tree_node_base
FN:814,_ZNSt8_Rb_treeIiiSt9_IdentityIiESt4lessIiESaIiEE6_S_keyEPKSt18_Rb_tree_node_base
FNDA:0,_ZNSt8_Rb_treeIiiSt9_IdentityIiESt4lessIiESaIiEE6_S_keyEPKSt18_Rb_tree_node_base
FN:818,_ZNSt8_Rb_treeIiiSt9_IdentityIiESt4lessIiESaIiEE10_S_minimumEPSt18_Rb_tree_node_base
FNDA:0,_ZNSt8_Rb_treeIiiSt9_IdentityIiESt4lessIiESaIiEE10_S_minimumEPSt18_Rb_tree_node_base
FN:826,_ZNSt8_Rb_treeIiiSt9_IdentityIiESt4lessIiESaIiEE10_S_maximumEPSt18_Rb_tree_node_base
FNDA:0,_ZNSt8_Rb_treeIiiSt9_IdentityIiESt4lessIiESaIiEE10_S_maximumEPSt18_Rb_tree_node_base
FN:904,_ZNSt8_Rb_treeIiiSt9_IdentityIiESt4lessIiESaIiEE7_M_copyINS5_20_Reuse_or_alloc_nodeEEEPSt13_Rb_tree_nodeIiERKS5_RT_
FNDA:1172,_ZNSt8_Rb_treeIiiSt9_IdentityIiESt4lessIiESaIiEE7_M_copyINS5_20_Reuse_or_alloc_nodeEEEPSt13_Rb_tree_nodeIiERKS5_RT_
FN:944,_ZNSt8_Rb_treeIiiSt9_IdentityIiESt4lessIiESaIiEEC2Ev
FNDA:0,_ZNSt8_Rb_treeIiiSt9_IdentityIiESt4lessIiESaIiEEC2Ev
FN:999,_ZNSt8_Rb_treeIiiSt9_IdentityIiESt4lessIiESaIiEED2Ev
FNDA:0,_ZNSt8_Rb_treeIiiSt9_IdentityIiESt4lessIiESaIiEED2Ev
FN:1011,_ZNSt8_Rb_treeIiiSt9_IdentityIiESt4lessIiESaIiEE5beginEv
FNDA:0,_ZNSt8_Rb_treeIiiSt9_IdentityIiESt4lessIiESaIiEE5beginEv
FN:1015,_ZNKSt8_Rb_treeIiiSt9_IdentityIiESt4lessIiESaIiEE5beginEv
FNDA:0,_ZNKSt8_Rb_treeIiiSt9_IdentityIiESt4lessIiESaIiEE5beginEv
FN:1023,_ZNKSt8_Rb_treeIiiSt9_IdentityIiESt4lessIiESaIiEE3endEv
FNDA:0,_ZNKSt8_Rb_treeIiiSt9_IdentityIiESt4lessIiESaIiEE3endEv
FN:1269,_ZNSt8_Rb_treeIiiSt9_IdentityIiESt4lessIiESaIiEE5clearEv
FNDA:0,_ZNSt8_Rb_treeIiiSt9_IdentityIiESt4lessIiESaIiEE5clearEv
FN:1762,_ZNSt8_Rb_treeIiiSt9_IdentityIiESt4lessIiESaIiEEaSERKS5_
FNDA:1500,_ZNSt8_Rb_treeIiiSt9_IdentityIiESt4lessIiESaIiEEaSERKS5_
FN:1802,_ZNSt8_Rb_treeIiiSt9_IdentityIiESt4lessIiESaIiEE10_M_insert_IRKiNS5_11_Alloc_nodeEEESt17_Rb_tree_iteratorIiEPSt18_Rb_tree_node_baseSD_OT_RT0_
FNDA:0,_ZNSt8_Rb_treeIiiSt9_IdentityIiESt4lessIiESaIiEE10_M_insert_IRKiNS5_11_Alloc_nodeEEESt17_Rb_tree_iteratorIiEPSt18_Rb_tree_node_baseSD_OT_RT0_
FN:1876,_ZNSt8_Rb_treeIiiSt9_IdentityIiESt4lessIiESaIiEE7_M_copyINS5_20_Reuse_or_alloc_nodeEEEPSt13_Rb_tree_nodeIiEPKS9_PSt18_Rb_tree_node_baseRT_
FNDA:2938,_ZNSt8_Rb_treeIiiSt9_IdentityIiESt4lessIiESaIiEE7_M_copyINS5_20_Reuse_or_alloc_nodeEEEPSt13_Rb_tree_nodeIiEPKS9_PSt18_Rb_tree_node_baseRT_
FN:1912,_ZNSt8_Rb_treeIiiSt9_IdentityIiESt4lessIiESaIiEE8_M_eraseEPSt13_Rb_tree_nodeIiE
FNDA:0,_ZNSt8_Rb_treeIiiSt9_IdentityIiESt4lessIiESaIiEE8_M_eraseEPSt13_Rb_tree_nodeIiE
FN:1945,_ZNKSt8_Rb_treeIiiSt9_IdentityIiESt4lessIiESaIiEE14_M_lower_boundEPKSt13_Rb_tree_nodeIiEPKSt18_Rb_tree_node_baseRKi
FNDA:0,_ZNKSt8_Rb_treeIiiSt9_IdentityIiESt4lessIiESaIiEE14_M_lower_boundEPKSt13_Rb_tree_nodeIiEPKSt18_Rb_tree_node_baseRKi
FN:2090,_ZNSt8_Rb_treeIiiSt9_IdentityIiESt4lessIiESaIiEE24_M_get_insert_unique_posERKi
FNDA:0,_ZNSt8_Rb_treeIiiSt9_IdentityIiESt4lessIiESaIiEE24_M_get_insert_unique_posERKi
FN:2144,_ZNSt8_Rb_treeIiiSt9_IdentityIiESt4lessIiESaIiEE16_M_insert_uniqueIRKiEESt4pairISt17_Rb_tree_iteratorIiEbEOT_
FNDA:0,_ZNSt8_Rb_treeIiiSt9_IdentityIiESt4lessIiESaIiEE16_M_insert_uniqueIRKiEESt4pairISt17_Rb_tree_iteratorIiEbEOT_
FN:2572,_ZNKSt8_Rb_treeIiiSt9_IdentityIiESt4lessIiESaIiEE4findERKi
FNDA:0,_ZNKSt8_Rb_treeIiiSt9_IdentityIiESt4lessIiESaIiEE4findERKi
DA:112,0
DA:114,0
DA:115,0
DA:126,0
DA:128,0
DA:129,0
DA:146,0
DA:150,0
DA:173,0
DA:174,0
DA:175,0
DA:176,0
DA:177,0
DA:206,0
DA:208,0
DA:209,0
DA:210,0
DA:211,0
DA:212,0
DA:234,0
DA:235,0
DA:238,0
DA:239,0
DA:273,0
DA:274,0
DA:300,0
DA:302,0
DA:303,0
DA:315,0
DA:316,0
DA:345,0
DA:346,0
DA:348,0
DA:349,0
DA:356,0
DA:357,0
DA:364,0
DA:366,0
DA:367,0
DA:394,0
DA:395,0
DA:398,0
DA:399,0
DA:454,0
DA:455,0
DA:457,0
DA:459,0
DA:461,0
DA:462,0
DA:465,0
DA:466,0
DA:472,0
DA:473,0
DA:480,0
DA:483,0
DA:484,0
DA:486,0
DA:487,0
DA:488,0
DA:491,0
DA:496,0
DA:498,0
DA:499,0
DA:501,0
DA:502,0
DA:503,0
DA:505,0
DA:507,0
DA:509,0
DA:511,0
DA:513,0
DA:514,0
DA:516,0
DA:517,0
DA:521,0
DA:524,0
DA:526,0
DA:538,0
DA:539,0
DA:546,0
DA:548,0
DA:566,0
DA:567,0
DA:570,0
DA:571,0
DA:579,0
DA:580,0
DA:583,0
DA:584,0
DA:609,0
DA:613,0
DA:614,0
DA:624,0
DA:628,0
DA:630,0
DA:631,0
DA:632,0
DA:637,0
DA:642,0
DA:643,0
DA:645,0
DA:648,0
DA:650,0
DA:651,0
DA:652,0
DA:656,4362
DA:658,4362
DA:659,4362
DA:660,4362
DA:661,4362
DA:662,4362
DA:680,0
DA:684,0
DA:685,0
DA:725,0
DA:726,0
DA:729,0
DA:730,0
DA:733,0
DA:734,0
DA:741,0
DA:742,0
DA:749,0
DA:750,0
DA:753,0
DA:756,0
DA:760,0
DA:761,0
DA:764,0
DA:765,0
DA:772,0
DA:790,0
DA:794,0
DA:795,0
DA:798,0
DA:799,0
DA:802,0
DA:803,0
DA:806,0
DA:807,0
DA:814,0
DA:815,0
DA:818,0
DA:819,0
DA:826,0
DA:827,0
DA:904,1172
DA:906,1172
DA:907,1172
DA:908,1172
DA:909,1172
DA:910,1172
DA:944,0
DA:999,0
DA:1000,0
DA:1011,0
DA:1012,0
DA:1015,0
DA:1016,0
DA:1023,0
DA:1024,0
DA:1269,0
DA:1271,0
DA:1272,0
DA:1273,0
DA:1762,1500
DA:1765,1500
DA:1769,1500
DA:1771,0
DA:1772,0
DA:1773,0
DA:1774,0
DA:1778,0
DA:1779,0
DA:1784,3000
DA:1785,1500
DA:1787,1500
DA:1788,1172
DA:1791,1500
DA:1802,0
DA:1811,0
DA:1812,0
DA:1815,0
DA:1817,0
DA:1818,0
DA:1819,0
DA:1820,0
DA:1876,2938
DA:1880,2938
DA:1881,2938
DA:1885,2938
DA:1886,1409
DA:1887,2938
DA:1888,2938
DA:1890,4362
DA:1892,1424
DA:1893,1424
DA:1894,1424
DA:1895,1424
DA:1896,357
DA:1897,1424
DA:1898,1424
DA:1901,0
DA:1903,0
DA:1904,0
DA:1906,2938
DA:1912,0
DA:1916,0
DA:1918,0
DA:1919,0
DA:1920,0
DA:1921,0
DA:1923,0
DA:1945,0
DA:1949,0
DA:1950,0
DA:1951,0
DA:1953,0
DA:1954,0
DA:2090,0
DA:2094,0
DA:2095,0
DA:2096,0
DA:2097,0
DA:2099,0
DA:2100,0
DA:2101,0
DA:2103,0
DA:2104,0
DA:2106,0
DA:2107,0
DA:2109,0
DA:2111,0
DA:2112,0
DA:2113,0
DA:2144,0
DA:2152,0
DA:2153,0
DA:2155,0
DA:2157,0
DA:2158,0
DA:2160,0
DA:2163,0
DA:2572,0
DA:2575,0
DA:2576,0
DA:2577,0
DA:2578,0
end_of_record
SF:/usr/include/c++/9/initializer_list
FN:71,_ZNKSt16initializer_listISt4pairIK11NonTerminalSt6vectorIS3_IiSaIiEESaIS5_EEEE4sizeEv
FNDA:0,_ZNKSt16initializer_listISt4pairIK11NonTerminalSt6vectorIS3_IiSaIiEESaIS5_EEEE4sizeEv
FN:71,_ZNKSt16initializer_listISt6vectorIiSaIiEEE4sizeEv
FNDA:0,_ZNKSt16initializer_listISt6vectorIiSaIiEEE4sizeEv
FN:71,_ZNKSt16initializer_listIiE4sizeEv
FNDA:0,_ZNKSt16initializer_listIiE4sizeEv
FN:75,_ZNKSt16initializer_listISt4pairIK11NonTerminalSt6vectorIS3_IiSaIiEESaIS5_EEEE5beginEv
FNDA:0,_ZNKSt16initializer_listISt4pairIK11NonTerminalSt6vectorIS3_IiSaIiEESaIS5_EEEE5beginEv
FN:75,_ZNKSt16initializer_listISt6vectorIiSaIiEEE5beginEv
FNDA:0,_ZNKSt16initializer_listISt6vectorIiSaIiEEE5beginEv
FN:75,_ZNKSt16initializer_listIiE5beginEv
FNDA:0,_ZNKSt16initializer_listIiE5beginEv
FN:79,_ZNKSt16initializer_listISt4pairIK11NonTerminalSt6vectorIS3_IiSaIiEESaIS5_EEEE3endEv
FNDA:0,_ZNKSt16initializer_listISt4pairIK11NonTerminalSt6vectorIS3_IiSaIiEESaIS5_EEEE3endEv
FN:79,_ZNKSt16initializer_listISt6vectorIiSaIiEEE3endEv
FNDA:0,_ZNKSt16initializer_listISt6vectorIiSaIiEEE3endEv
FN:79,_ZNKSt16initializer_listIiE3endEv
FNDA:0,_ZNKSt16initializer_listIiE3endEv
DA:71,0
DA:71,0
DA:71,0
DA:75,0
DA:75,0
DA:75,0
DA:79,0
DA:79,0
DA:79,0
end_of_record
SF:/usr/include/c++/9/bits/cpp_type_traits.h
FN:428,_ZSt12__miter_baseIN9__gnu_cxx17__normal_iteratorIPKiSt6vectorIiSaIiEEEEET_S8_
FNDA:0,_ZSt12__miter_baseIN9__gnu_cxx17__normal_iteratorIPKiSt6vectorIiSaIiEEEEET_S8_
FN:428,_ZSt12__miter_baseIPKiET_S2_
FNDA:0,_ZSt12__miter_baseIPKiET_S2_
DA:428,0
DA:429,0
DA:428,0
DA:429,0
end_of_record
SF:/usr/include/c++/9/bits/hashtable.h
FN:342,_ZNKSt10_HashtableIiSt4pairIKiSt3setIiSt4lessIiESaIiEEESaIS7_ENSt8__detail10_Select1stESt8equal_toIiESt4hashIiENS9_18_Mod_range_hashingENS9_20_Default_ranged_hashENS9_20_Prime_rehash_policyENS9_17_Hashtable_traitsILb0ELb0ELb1EEEE21_M_uses_single_bucketEPPNS9_15_Hash_node_baseE
FNDA:0,_ZNKSt10_HashtableIiSt4pairIKiSt3setIiSt4lessIiESaIiEEESaIS7_ENSt8__detail10_Select1stESt8equal_toIiESt4hashIiENS9_18_Mod_range_hashingENS9_20_Default_ranged_hashENS9_20_Prime_rehash_policyENS9_17_Hashtable_traitsILb0ELb0ELb1EEEE21_M_uses_single_bucketEPPNS9_15_Hash_node_baseE
FN:342,_ZNKSt10_HashtableI11NonTerminalSt4pairIKS0_St6vectorIS3_IiSaIiEESaIS5_EEESaIS8_ENSt8__detail10_Select1stESt8equal_toIS0_ESt4hashIS0_ENSA_18_Mod_range_hashingENSA_20_Default_ranged_hashENSA_20_Prime_rehash_policyENSA_17_Hashtable_traitsILb0ELb0ELb1EEEE21_M_uses_single_bucketEPPNSA_15_Hash_node_baseE
FNDA:0,_ZNKSt10_HashtableI11NonTerminalSt4pairIKS0_St6vectorIS3_IiSaIiEESaIS5_EEESaIS8_ENSt8__detail10_Select1stESt8equal_toIS0_ESt4hashIS0_ENSA_18_Mod_range_hashingENSA_20_Default_ranged_hashENSA_20_Prime_rehash_policyENSA_17_Hashtable_traitsILb0ELb0ELb1EEEE21_M_uses_single_bucketEPPNSA_15_Hash_node_baseE
FN:353,_ZNSt10_HashtableIiSt4pairIKiSt3setIiSt4lessIiESaIiEEESaIS7_ENSt8__detail10_Select1stESt8equal_toIiESt4hashIiENS9_18_Mod_range_hashingENS9_20_Default_ranged_hashENS9_20_Prime_rehash_policyENS9_17_Hashtable_traitsILb0ELb0ELb1EEEE19_M_allocate_bucketsEm
FNDA:0,_ZNSt10_HashtableIiSt4pairIKiSt3setIiSt4lessIiESaIiEEESaIS7_ENSt8__detail10_Select1stESt8equal_toIiESt4hashIiENS9_18_Mod_range_hashingENS9_20_Default_ranged_hashENS9_20_Prime_rehash_policyENS9_17_Hashtable_traitsILb0ELb0ELb1EEEE19_M_allocate_bucketsEm
FN:353,_ZNSt10_HashtableI11NonTerminalSt4pairIKS0_St6vectorIS3_IiSaIiEESaIS5_EEESaIS8_ENSt8__detail10_Select1stESt8equal_toIS0_ESt4hashIS0_ENSA_18_Mod_range_hashingENSA_20_Default_ranged_hashENSA_20_Prime_rehash_policyENSA_17_Hashtable_traitsILb0ELb0ELb1EEEE19_M_allocate_bucketsEm
FNDA:0,_ZNSt10_HashtableI11NonTerminalSt4pairIKS0_St6vectorIS3_IiSaIiEESaIS5_EEESaIS8_ENSt8__detail10_Select1stESt8equal_toIS0_ESt4hashIS0_ENSA_18_Mod_range_hashingENSA_20_Default_ranged_hashENSA_20_Prime_rehash_policyENSA_17_Hashtable_traitsILb0ELb0ELb1EEEE19_M_allocate_bucketsEm
FN:365,_ZNSt10_HashtableIiSt4pairIKiSt3setIiSt4lessIiESaIiEEESaIS7_ENSt8__detail10_Select1stESt8equal_toIiESt4hashIiENS9_18_Mod_range_hashingENS9_20_Default_ranged_hashENS9_20_Prime_rehash_policyENS9_17_Hashtable_traitsILb0ELb0ELb1EEEE21_M_deallocate_bucketsEPPNS9_15_Hash_node_baseEm
FNDA:0,_ZNSt10_HashtableIiSt4pairIKiSt3setIiSt4lessIiESaIiEEESaIS7_ENSt8__detail10_Select1stESt8equal_toIiESt4hashIiENS9_18_Mod_range_hashingENS9_20_Default_ranged_hashENS9_20_Prime_rehash_policyENS9_17_Hashtable_traitsILb0ELb0ELb1EEEE21_M_deallocate_bucketsEPPNS9_15_Hash_node_baseEm
FN:365,_ZNSt10_HashtableI11NonTerminalSt4pairIKS0_St6vectorIS3_IiSaIiEESaIS5_EEESaIS8_ENSt8__detail10_Select1stESt8equal_toIS0_ESt4hashIS0_ENSA_18_Mod_range_hashingENSA_20_Default_ranged_hashENSA_20_Prime_rehash_policyENSA_17_Hashtable_traitsILb0ELb0ELb1EEEE21_M_deallocate_bucketsEPPNSA_15_Hash_node_baseEm
FNDA:0,_ZNSt10_HashtableI11NonTerminalSt4pairIKS0_St6vectorIS3_IiSaIiEESaIS5_EEESaIS8_ENSt8__detail10_Select1stESt8equal_toIS0_ESt4hashIS0_ENSA_18_Mod_range_hashingENSA_20_Default_ranged_hashENSA_20_Prime_rehash_policyENSA_17_Hashtable_traitsILb0ELb0ELb1EEEE21_M_deallocate_bucketsEPPNSA_15_Hash_node_baseEm
FN:374,_ZNSt10_HashtableIiSt4pairIKiSt3setIiSt4lessIiESaIiEEESaIS7_ENSt8__detail10_Select1stESt8equal_toIiESt4hashIiENS9_18_Mod_range_hashingENS9_20_Default_ranged_hashENS9_20_Prime_rehash_policyENS9_17_Hashtable_traitsILb0ELb0ELb1EEEE21_M_deallocate_bucketsEv
FNDA:0,_ZNSt10_HashtableIiSt4pairIKiSt3setIiSt4lessIiESaIiEEESaIS7_ENSt8__detail10_Select1stESt8equal_toIiESt4hashIiENS9_18_Mod_range_hashingENS9_20_Default_ranged_hashENS9_20_Prime_rehash_policyENS9_17_Hashtable_traitsILb0ELb0ELb1EEEE21_M_deallocate_bucketsEv
FN:374,_ZNSt10_HashtableI11NonTerminalSt4pairIKS0_St6vectorIS3_IiSaIiEESaIS5_EEESaIS8_ENSt8__detail10_Select1stESt8equal_toIS0_ESt4hashIS0_ENSA_18_Mod_range_hashingENSA_20_Default_ranged_hashENSA_20_Prime_rehash_policyENSA_17_Hashtable_traitsILb0ELb0ELb1EEEE21_M_deallocate_bucketsEv
FNDA:0,_ZNSt10_HashtableI11NonTerminalSt4pairIKS0_St6vectorIS3_IiSaIiEESaIS5_EEESaIS8_ENSt8__detail10_Select1stESt8equal_toIS0_ESt4hashIS0_ENSA_18_Mod_range_hashingENSA_20_Default_ranged_hashENSA_20_Prime_rehash_policyENSA_17_Hashtable_traitsILb0ELb0ELb1EEEE21_M_deallocate_bucketsEv
FN:383,_ZNKSt10_HashtableIiSt4pairIKiSt3setIiSt4lessIiESaIiEEESaIS7_ENSt8__detail10_Select1stESt8equal_toIiESt4hashIiENS9_18_Mod_range_hashingENS9_20_Default_ranged_hashENS9_20_Prime_rehash_policyENS9_17_Hashtable_traitsILb0ELb0ELb1EEEE8_M_beginEv
FNDA:0,_ZNKSt10_HashtableIiSt4pairIKiSt3setIiSt4lessIiESaIiEEESaIS7_ENSt8__detail10_Select1stESt8equal_toIiESt4hashIiENS9_18_Mod_range_hashingENS9_20_Default_ranged_hashENS9_20_Prime_rehash_policyENS9_17_Hashtable_traitsILb0ELb0ELb1EEEE8_M_beginEv
FN:383,_ZNKSt10_HashtableI11NonTerminalSt4pairIKS0_St6vectorIS3_IiSaIiEESaIS5_EEESaIS8_ENSt8__detail10_Select1stESt8equal_toIS0_ESt4hashIS0_ENSA_18_Mod_range_hashingENSA_20_Default_ranged_hashENSA_20_Prime_rehash_policyENSA_17_Hashtable_traitsILb0ELb0ELb1EEEE8_M_beginEv
FNDA:0,_ZNKSt10_HashtableI11NonTerminalSt4pairIKS0_St6vectorIS3_IiSaIiEESaIS5_EEESaIS8_ENSt8__detail10_Select1stESt8equal_toIS0_ESt4hashIS0_ENSA_18_Mod_range_hashingENSA_20_Default_ranged_hashENSA_20_Prime_rehash_policyENSA_17_Hashtable_traitsILb0ELb0ELb1EEEE8_M_beginEv
FN:405,_ZNSt10_HashtableI11NonTerminalSt4pairIKS0_St6vectorIS3_IiSaIiEESaIS5_EEESaIS8_ENSt8__detail10_Select1stESt8equal_toIS0_ESt4hashIS0_ENSA_18_Mod_range_hashingENSA_20_Default_ranged_hashENSA_20_Prime_rehash_policyENSA_17_Hashtable_traitsILb0ELb0ELb1EEEEC2ERKSF_RKSG_RKSH_RKSD_RKSB_RKS9_
FNDA:0,_ZNSt10_HashtableI11NonTerminalSt4pairIKS0_St6vectorIS3_IiSaIiEESaIS5_EEESaIS8_ENSt8__detail10_Select1stESt8equal_toIS0_ESt4hashIS0_ENSA_18_Mod_range_hashingENSA_20_Default_ranged_hashENSA_20_Prime_rehash_policyENSA_17_Hashtable_traitsILb0ELb0ELb1EEEEC2ERKSF_RKSG_RKSH_RKSD_RKSB_RKS9_
FN:438,_ZNSt10_HashtableIiSt4pairIKiSt3setIiSt4lessIiESaIiEEESaIS7_ENSt8__detail10_Select1stESt8equal_toIiESt4hashIiENS9_18_Mod_range_hashingENS9_20_Default_ranged_hashENS9_20_Prime_rehash_policyENS9_17_Hashtable_traitsILb0ELb0ELb1EEEEC2Ev
FNDA:2,_ZNSt10_HashtableIiSt4pairIKiSt3setIiSt4lessIiESaIiEEESaIS7_ENSt8__detail10_Select1stESt8equal_toIiESt4hashIiENS9_18_Mod_range_hashingENS9_20_Default_ranged_hashENS9_20_Prime_rehash_policyENS9_17_Hashtable_traitsILb0ELb0ELb1EEEEC2Ev
FN:492,_ZNSt10_HashtableI11NonTerminalSt4pairIKS0_St6vectorIS3_IiSaIiEESaIS5_EEESaIS8_ENSt8__detail10_Select1stESt8equal_toIS0_ESt4hashIS0_ENSA_18_Mod_range_hashingENSA_20_Default_ranged_hashENSA_20_Prime_rehash_policyENSA_17_Hashtable_traitsILb0ELb0ELb1EEEEC2ESt16initializer_listIS8_EmRKSF_RKSD_RKS9_
FNDA:0,_ZNSt10_HashtableI11NonTerminalSt4pairIKS0_St6vectorIS3_IiSaIiEESaIS5_EEESaIS8_ENSt8__detail10_Select1stESt8equal_toIS0_ESt4hashIS0_ENSA_18_Mod_range_hashingENSA_20_Default_ranged_hashENSA_20_Prime_rehash_policyENSA_17_Hashtable_traitsILb0ELb0ELb1EEEEC2ESt16initializer_listIS8_EmRKSF_RKSD_RKS9_
FN:536,_ZNSt10_HashtableIiSt4pairIKiSt3setIiSt4lessIiESaIiEEESaIS7_ENSt8__detail10_Select1stESt8equal_toIiESt4hashIiENS9_18_Mod_range_hashingENS9_20_Default_ranged_hashENS9_20_Prime_rehash_policyENS9_17_Hashtable_traitsILb0ELb0ELb1EEEE5beginEv
FNDA:12,_ZNSt10_HashtableIiSt4pairIKiSt3setIiSt4lessIiESaIiEEESaIS7_ENSt8__detail10_Select1stESt8equal_toIiESt4hashIiENS9_18_Mod_range_hashingENS9_20_Default_ranged_hashENS9_20_Prime_rehash_policyENS9_17_Hashtable_traitsILb0ELb0ELb1EEEE5beginEv
FN:540,_ZNKSt10_HashtableI11NonTerminalSt4pairIKS0_St6vectorIS3_IiSaIiEESaIS5_EEESaIS8_ENSt8__detail10_Select1stESt8equal_toIS0_ESt4hashIS0_ENSA_18_Mod_range_hashingENSA_20_Default_ranged_hashENSA_20_Prime_rehash_policyENSA_17_Hashtable_traitsILb0ELb0ELb1EEEE5beginEv
FNDA:5,_ZNKSt10_HashtableI11NonTerminalSt4pairIKS0_St6vectorIS3_IiSaIiEESaIS5_EEESaIS8_ENSt8__detail10_Select1stESt8equal_toIS0_ESt4hashIS0_ENSA_18_Mod_range_hashingENSA_20_Default_ranged_hashENSA_20_Prime_rehash_policyENSA_17_Hashtable_traitsILb0ELb0ELb1EEEE5beginEv
FN:544,_ZNSt10_HashtableIiSt4pairIKiSt3setIiSt4lessIiESaIiEEESaIS7_ENSt8__detail10_Select1stESt8equal_toIiESt4hashIiENS9_18_Mod_range_hashingENS9_20_Default_ranged_hashENS9_20_Prime_rehash_policyENS9_17_Hashtable_traitsILb0ELb0ELb1EEEE3endEv
FNDA:12,_ZNSt10_HashtableIiSt4pairIKiSt3setIiSt4lessIiESaIiEEESaIS7_ENSt8__detail10_Select1stESt8equal_toIiESt4hashIiENS9_18_Mod_range_hashingENS9_20_Default_ranged_hashENS9_20_Prime_rehash_policyENS9_17_Hashtable_traitsILb0ELb0ELb1EEEE3endEv
FN:548,_ZNKSt10_HashtableI11NonTerminalSt4pairIKS0_St6vectorIS3_IiSaIiEESaIS5_EEESaIS8_ENSt8__detail10_Select1stESt8equal_toIS0_ESt4hashIS0_ENSA_18_Mod_range_hashingENSA_20_Default_ranged_hashENSA_20_Prime_rehash_policyENSA_17_Hashtable_traitsILb0ELb0ELb1EEEE3endEv
FNDA:5,_ZNKSt10_HashtableI11NonTerminalSt4pairIKS0_St6vectorIS3_IiSaIiEESaIS5_EEESaIS8_ENSt8__detail10_Select1stESt8equal_toIS0_ESt4hashIS0_ENSA_18_Mod_range_hashingENSA_20_Default_ranged_hashENSA_20_Prime_rehash_policyENSA_17_Hashtable_traitsILb0ELb0ELb1EEEE3endEv
FN:671,_ZNKSt10_HashtableI11NonTerminalSt4pairIKS0_St6vectorIS3_IiSaIiEESaIS5_EEESaIS8_ENSt8__detail10_Select1stESt8equal_toIS0_ESt4hashIS0_ENSA_18_Mod_range_hashingENSA_20_Default_ranged_hashENSA_20_Prime_rehash_policyENSA_17_Hashtable_traitsILb0ELb0ELb1EEEE15_M_bucket_indexEPNSA_10_Hash_nodeIS8_Lb0EEE
FNDA:0,_ZNKSt10_HashtableI11NonTerminalSt4pairIKS0_St6vectorIS3_IiSaIiEESaIS5_EEESaIS8_ENSt8__detail10_Select1stESt8equal_toIS0_ESt4hashIS0_ENSA_18_Mod_range_hashingENSA_20_Default_ranged_hashENSA_20_Prime_rehash_policyENSA_17_Hashtable_traitsILb0ELb0ELb1EEEE15_M_bucket_indexEPNSA_10_Hash_nodeIS8_Lb0EEE
FN:671,_ZNKSt10_HashtableIiSt4pairIKiSt3setIiSt4lessIiESaIiEEESaIS7_ENSt8__detail10_Select1stESt8equal_toIiESt4hashIiENS9_18_Mod_range_hashingENS9_20_Default_ranged_hashENS9_20_Prime_rehash_policyENS9_17_Hashtable_traitsILb0ELb0ELb1EEEE15_M_bucket_indexEPNS9_10_Hash_nodeIS7_Lb0EEE
FNDA:0,_ZNKSt10_HashtableIiSt4pairIKiSt3setIiSt4lessIiESaIiEEESaIS7_ENSt8__detail10_Select1stESt8equal_toIiESt4hashIiENS9_18_Mod_range_hashingENS9_20_Default_ranged_hashENS9_20_Prime_rehash_policyENS9_17_Hashtable_traitsILb0ELb0ELb1EEEE15_M_bucket_indexEPNS9_10_Hash_nodeIS7_Lb0EEE
FN:675,_ZNKSt10_HashtableI11NonTerminalSt4pairIKS0_St6vectorIS3_IiSaIiEESaIS5_EEESaIS8_ENSt8__detail10_Select1stESt8equal_toIS0_ESt4hashIS0_ENSA_18_Mod_range_hashingENSA_20_Default_ranged_hashENSA_20_Prime_rehash_policyENSA_17_Hashtable_traitsILb0ELb0ELb1EEEE15_M_bucket_indexERS2_m
FNDA:0,_ZNKSt10_HashtableI11NonTerminalSt4pairIKS0_St6vectorIS3_IiSaIiEESaIS5_EEESaIS8_ENSt8__detail10_Select1stESt8equal_toIS0_ESt4hashIS0_ENSA_18_Mod_range_hashingENSA_20_Default_ranged_hashENSA_20_Prime_rehash_policyENSA_17_Hashtable_traitsILb0ELb0ELb1EEEE15_M_bucket_indexERS2_m
FN:675,_ZNKSt10_HashtableIiSt4pairIKiSt3setIiSt4lessIiESaIiEEESaIS7_ENSt8__detail10_Select1stESt8equal_toIiESt4hashIiENS9_18_Mod_range_hashingENS9_20_Default_ranged_hashENS9_20_Prime_rehash_policyENS9_17_Hashtable_traitsILb0ELb0ELb1EEEE15_M_bucket_indexERS1_m
FNDA:0,_ZNKSt10_HashtableIiSt4pairIKiSt3setIiSt4lessIiESaIiEEESaIS7_ENSt8__detail10_Select1stESt8equal_toIiESt4hashIiENS9_18_Mod_range_hashingENS9_20_Default_ranged_hashENS9_20_Prime_rehash_policyENS9_17_Hashtable_traitsILb0ELb0ELb1EEEE15_M_bucket_indexERS1_m
FN:684,_ZNKSt10_HashtableI11NonTerminalSt4pairIKS0_St6vectorIS3_IiSaIiEESaIS5_EEESaIS8_ENSt8__detail10_Select1stESt8equal_toIS0_ESt4hashIS0_ENSA_18_Mod_range_hashingENSA_20_Default_ranged_hashENSA_20_Prime_rehash_policyENSA_17_Hashtable_traitsILb0ELb0ELb1EEEE12_M_find_nodeEmRS2_m
FNDA:0,_ZNKSt10_HashtableI11NonTerminalSt4pairIKS0_St6vectorIS3_IiSaIiEESaIS5_EEESaIS8_ENSt8__detail10_Select1stESt8equal_toIS0_ESt4hashIS0_ENSA_18_Mod_range_hashingENSA_20_Default_ranged_hashENSA_20_Prime_rehash_policyENSA_17_Hashtable_traitsILb0ELb0ELb1EEEE12_M_find_nodeEmRS2_m
FN:684,_ZNKSt10_HashtableIiSt4pairIKiSt3setIiSt4lessIiESaIiEEESaIS7_ENSt8__detail10_Select1stESt8equal_toIiESt4hashIiENS9_18_Mod_range_hashingENS9_20_Default_ranged_hashENS9_20_Prime_rehash_policyENS9_17_Hashtable_traitsILb0ELb0ELb1EEEE12_M_find_nodeEmRS1_m
FNDA:0,_ZNKSt10_HashtableIiSt4pairIKiSt3setIiSt4lessIiESaIiEEESaIS7_ENSt8__detail10_Select1stESt8equal_toIiESt4hashIiENS9_18_Mod_range_hashingENS9_20_Default_ranged_hashENS9_20_Prime_rehash_policyENS9_17_Hashtable_traitsILb0ELb0ELb1EEEE12_M_find_nodeEmRS1_m
FN:1004,_ZNSt10_HashtableI11NonTerminalSt4pairIKS0_St6vectorIS3_IiSaIiEESaIS5_EEESaIS8_ENSt8__detail10_Select1stESt8equal_toIS0_ESt4hashIS0_ENSA_18_Mod_range_hashingENSA_20_Default_ranged_hashENSA_20_Prime_rehash_policyENSA_17_Hashtable_traitsILb0ELb0ELb1EEEEC2IPKS8_EET_SP_mRKSF_RKSG_RKSH_RKSD_RKSB_RKS9_
FNDA:0,_ZNSt10_HashtableI11NonTerminalSt4pairIKS0_St6vectorIS3_IiSaIiEESaIS5_EEESaIS8_ENSt8__detail10_Select1stESt8equal_toIS0_ESt4hashIS0_ENSA_18_Mod_range_hashingENSA_20_Default_ranged_hashENSA_20_Prime_rehash_policyENSA_17_Hashtable_traitsILb0ELb0ELb1EEEEC2IPKS8_EET_SP_mRKSF_RKSG_RKSH_RKSD_RKSB_RKS9_
FN:1383,_ZNSt10_HashtableI11NonTerminalSt4pairIKS0_St6vectorIS3_IiSaIiEESaIS5_EEESaIS8_ENSt8__detail10_Select1stESt8equal_toIS0_ESt4hashIS0_ENSA_18_Mod_range_hashingENSA_20_Default_ranged_hashENSA_20_Prime_rehash_policyENSA_17_Hashtable_traitsILb0ELb0ELb1EEEED2Ev
FNDA:0,_ZNSt10_HashtableI11NonTerminalSt4pairIKS0_St6vectorIS3_IiSaIiEESaIS5_EEESaIS8_ENSt8__detail10_Select1stESt8equal_toIS0_ESt4hashIS0_ENSA_18_Mod_range_hashingENSA_20_Default_ranged_hashENSA_20_Prime_rehash_policyENSA_17_Hashtable_traitsILb0ELb0ELb1EEEED2Ev
FN:1383,_ZNSt10_HashtableIiSt4pairIKiSt3setIiSt4lessIiESaIiEEESaIS7_ENSt8__detail10_Select1stESt8equal_toIiESt4hashIiENS9_18_Mod_range_hashingENS9_20_Default_ranged_hashENS9_20_Prime_rehash_policyENS9_17_Hashtable_traitsILb0ELb0ELb1EEEED2Ev
FNDA:2,_ZNSt10_HashtableIiSt4pairIKiSt3setIiSt4lessIiESaIiEEESaIS7_ENSt8__detail10_Select1stESt8equal_toIiESt4hashIiENS9_18_Mod_range_hashingENS9_20_Default_ranged_hashENS9_20_Prime_rehash_policyENS9_17_Hashtable_traitsILb0ELb0ELb1EEEED2Ev
FN:1567,_ZNKSt10_HashtableI11NonTerminalSt4pairIKS0_St6vectorIS3_IiSaIiEESaIS5_EEESaIS8_ENSt8__detail10_Select1stESt8equal_toIS0_ESt4hashIS0_ENSA_18_Mod_range_hashingENSA_20_Default_ranged_hashENSA_20_Prime_rehash_policyENSA_17_Hashtable_traitsILb0ELb0ELb1EEEE19_M_find_before_nodeEmRS2_m
FNDA:0,_ZNKSt10_HashtableI11NonTerminalSt4pairIKS0_St6vectorIS3_IiSaIiEESaIS5_EEESaIS8_ENSt8__detail10_Select1stESt8equal_toIS0_ESt4hashIS0_ENSA_18_Mod_range_hashingENSA_20_Default_ranged_hashENSA_20_Prime_rehash_policyENSA_17_Hashtable_traitsILb0ELb0ELb1EEEE19_M_find_before_nodeEmRS2_m
FN:1567,_ZNKSt10_HashtableIiSt4pairIKiSt3setIiSt4lessIiESaIiEEESaIS7_ENSt8__detail10_Select1stESt8equal_toIiESt4hashIiENS9_18_Mod_range_hashingENS9_20_Default_ranged_hashENS9_20_Prime_rehash_policyENS9_17_Hashtable_traitsILb0ELb0ELb1EEEE19_M_find_before_nodeEmRS1_m
FNDA:0,_ZNKSt10_HashtableIiSt4pairIKiSt3setIiSt4lessIiESaIiEEESaIS7_ENSt8__detail10_Select1stESt8equal_toIiESt4hashIiENS9_18_Mod_range_hashingENS9_20_Default_ranged_hashENS9_20_Prime_rehash_policyENS9_17_Hashtable_traitsILb0ELb0ELb1EEEE19_M_find_before_nodeEmRS1_m
FN:1595,_ZNSt10_HashtableI11NonTerminalSt4pairIKS0_St6vectorIS3_IiSaIiEESaIS5_EEESaIS8_ENSt8__detail10_Select1stESt8equal_toIS0_ESt4hashIS0_ENSA_18_Mod_range_hashingENSA_20_Default_ranged_hashENSA_20_Prime_rehash_policyENSA_17_Hashtable_traitsILb0ELb0ELb1EEEE22_M_insert_bucket_beginEmPNSA_10_Hash_nodeIS8_Lb0EEE
FNDA:0,_ZNSt10_HashtableI11NonTerminalSt4pairIKS0_St6vectorIS3_IiSaIiEESaIS5_EEESaIS8_ENSt8__detail10_Select1stESt8equal_toIS0_ESt4hashIS0_ENSA_18_Mod_range_hashingENSA_20_Default_ranged_hashENSA_20_Prime_rehash_policyENSA_17_Hashtable_traitsILb0ELb0ELb1EEEE22_M_insert_bucket_beginEmPNSA_10_Hash_nodeIS8_Lb0EEE
FN:1595,_ZNSt10_HashtableIiSt4pairIKiSt3setIiSt4lessIiESaIiEEESaIS7_ENSt8__detail10_Select1stESt8equal_toIiESt4hashIiENS9_18_Mod_range_hashingENS9_20_Default_ranged_hashENS9_20_Prime_rehash_policyENS9_17_Hashtable_traitsILb0ELb0ELb1EEEE22_M_insert_bucket_beginEmPNS9_10_Hash_nodeIS7_Lb0EEE
FNDA:0,_ZNSt10_HashtableIiSt4pairIKiSt3setIiSt4lessIiESaIiEEESaIS7_ENSt8__detail10_Select1stESt8equal_toIiESt4hashIiENS9_18_Mod_range_hashingENS9_20_Default_ranged_hashENS9_20_Prime_rehash_policyENS9_17_Hashtable_traitsILb0ELb0ELb1EEEE22_M_insert_bucket_beginEmPNS9_10_Hash_nodeIS7_Lb0EEE
FN:1733,_ZNSt10_HashtableI11NonTerminalSt4pairIKS0_St6vectorIS3_IiSaIiEESaIS5_EEESaIS8_ENSt8__detail10_Select1stESt8equal_toIS0_ESt4hashIS0_ENSA_18_Mod_range_hashingENSA_20_Default_ranged_hashENSA_20_Prime_rehash_policyENSA_17_Hashtable_traitsILb0ELb0ELb1EEEE21_M_insert_unique_nodeEmmPNSA_10_Hash_nodeIS8_Lb0EEEm
FNDA:0,_ZNSt10_HashtableI11NonTerminalSt4pairIKS0_St6vectorIS3_IiSaIiEESaIS5_EEESaIS8_ENSt8__detail10_Select1stESt8equal_toIS0_ESt4hashIS0_ENSA_18_Mod_range_hashingENSA_20_Default_ranged_hashENSA_20_Prime_rehash_policyENSA_17_Hashtable_traitsILb0ELb0ELb1EEEE21_M_insert_unique_nodeEmmPNSA_10_Hash_nodeIS8_Lb0EEEm
FN:1733,_ZNSt10_HashtableIiSt4pairIKiSt3setIiSt4lessIiESaIiEEESaIS7_ENSt8__detail10_Select1stESt8equal_toIiESt4hashIiENS9_18_Mod_range_hashingENS9_20_Default_ranged_hashENS9_20_Prime_rehash_policyENS9_17_Hashtable_traitsILb0ELb0ELb1EEEE21_M_insert_unique_nodeEmmPNS9_10_Hash_nodeIS7_Lb0EEEm
FNDA:0,_ZNSt10_HashtableIiSt4pairIKiSt3setIiSt4lessIiESaIiEEESaIS7_ENSt8__detail10_Select1stESt8equal_toIiESt4hashIiENS9_18_Mod_range_hashingENS9_20_Default_ranged_hashENS9_20_Prime_rehash_policyENS9_17_Hashtable_traitsILb0ELb0ELb1EEEE21_M_insert_unique_nodeEmmPNS9_10_Hash_nodeIS7_Lb0EEEm
FN:1838,_ZNSt10_HashtableI11NonTerminalSt4pairIKS0_St6vectorIS3_IiSaIiEESaIS5_EEESaIS8_ENSt8__detail10_Select1stESt8equal_toIS0_ESt4hashIS0_ENSA_18_Mod_range_hashingENSA_20_Default_ranged_hashENSA_20_Prime_rehash_policyENSA_17_Hashtable_traitsILb0ELb0ELb1EEEE9_M_insertIRKS8_NSA_10_AllocNodeISaINSA_10_Hash_nodeIS8_Lb0EEEEEEEES1_INSA_14_Node_iteratorIS8_Lb0ELb0EEEbEOT_RKT0_St17integral_constantIbLb1EEm
FNDA:0,_ZNSt10_HashtableI11NonTerminalSt4pairIKS0_St6vectorIS3_IiSaIiEESaIS5_EEESaIS8_ENSt8__detail10_Select1stESt8equal_toIS0_ESt4hashIS0_ENSA_18_Mod_range_hashingENSA_20_Default_ranged_hashENSA_20_Prime_rehash_policyENSA_17_Hashtable_traitsILb0ELb0ELb1EEEE9_M_insertIRKS8_NSA_10_AllocNodeISaINSA_10_Hash_nodeIS8_Lb0EEEEEEEES1_INSA_14_Node_iteratorIS8_Lb0ELb0EEEbEOT_RKT0_St17integral_constantIbLb1EEm
FN:2059,_ZNSt10_HashtableI11NonTerminalSt4pairIKS0_St6vectorIS3_IiSaIiEESaIS5_EEESaIS8_ENSt8__detail10_Select1stESt8equal_toIS0_ESt4hashIS0_ENSA_18_Mod_range_hashingENSA_20_Default_ranged_hashENSA_20_Prime_rehash_policyENSA_17_Hashtable_traitsILb0ELb0ELb1EEEE5clearEv
FNDA:0,_ZNSt10_HashtableI11NonTerminalSt4pairIKS0_St6vectorIS3_IiSaIiEESaIS5_EEESaIS8_ENSt8__detail10_Select1stESt8equal_toIS0_ESt4hashIS0_ENSA_18_Mod_range_hashingENSA_20_Default_ranged_hashENSA_20_Prime_rehash_policyENSA_17_Hashtable_traitsILb0ELb0ELb1EEEE5clearEv
FN:2059,_ZNSt10_HashtableIiSt4pairIKiSt3setIiSt4lessIiESaIiEEESaIS7_ENSt8__detail10_Select1stESt8equal_toIiESt4hashIiENS9_18_Mod_range_hashingENS9_20_Default_ranged_hashENS9_20_Prime_rehash_policyENS9_17_Hashtable_traitsILb0ELb0ELb1EEEE5clearEv
FNDA:2,_ZNSt10_HashtableIiSt4pairIKiSt3setIiSt4lessIiESaIiEEESaIS7_ENSt8__detail10_Select1stESt8equal_toIiESt4hashIiENS9_18_Mod_range_hashingENS9_20_Default_ranged_hashENS9_20_Prime_rehash_policyENS9_17_Hashtable_traitsILb0ELb0ELb1EEEE5clearEv
FN:2096,_ZNSt10_HashtableI11NonTerminalSt4pairIKS0_St6vectorIS3_IiSaIiEESaIS5_EEESaIS8_ENSt8__detail10_Select1stESt8equal_toIS0_ESt4hashIS0_ENSA_18_Mod_range_hashingENSA_20_Default_ranged_hashENSA_20_Prime_rehash_policyENSA_17_Hashtable_traitsILb0ELb0ELb1EEEE9_M_rehashEmRKm
FNDA:0,_ZNSt10_HashtableI11NonTerminalSt4pairIKS0_St6vectorIS3_IiSaIiEESaIS5_EEESaIS8_ENSt8__detail10_Select1stESt8equal_toIS0_ESt4hashIS0_ENSA_18_Mod_range_hashingENSA_20_Default_ranged_hashENSA_20_Prime_rehash_policyENSA_17_Hashtable_traitsILb0ELb0ELb1EEEE9_M_rehashEmRKm
FN:2096,_ZNSt10_HashtableIiSt4pairIKiSt3setIiSt4lessIiESaIiEEESaIS7_ENSt8__detail10_Select1stESt8equal_toIiESt4hashIiENS9_18_Mod_range_hashingENS9_20_Default_ranged_hashENS9_20_Prime_rehash_policyENS9_17_Hashtable_traitsILb0ELb0ELb1EEEE9_M_rehashEmRKm
FNDA:0,_ZNSt10_HashtableIiSt4pairIKiSt3setIiSt4lessIiESaIiEEESaIS7_ENSt8__detail10_Select1stESt8equal_toIiESt4hashIiENS9_18_Mod_range_hashingENS9_20_Default_ranged_hashENS9_20_Prime_rehash_policyENS9_17_Hashtable_traitsILb0ELb0ELb1EEEE9_M_rehashEmRKm
FN:2119,_ZNSt10_HashtableIiSt4pairIKiSt3setIiSt4lessIiESaIiEEESaIS7_ENSt8__detail10_Select1stESt8equal_toIiESt4hashIiENS9_18_Mod_range_hashingENS9_20_Default_ranged_hashENS9_20_Prime_rehash_policyENS9_17_Hashtable_traitsILb0ELb0ELb1EEEE13_M_rehash_auxEmSt17integral_constantIbLb1EE
FNDA:0,_ZNSt10_HashtableIiSt4pairIKiSt3setIiSt4lessIiESaIiEEESaIS7_ENSt8__detail10_Select1stESt8equal_toIiESt4hashIiENS9_18_Mod_range_hashingENS9_20_Default_ranged_hashENS9_20_Prime_rehash_policyENS9_17_Hashtable_traitsILb0ELb0ELb1EEEE13_M_rehash_auxEmSt17integral_constantIbLb1EE
FN:2119,_ZNSt10_HashtableI11NonTerminalSt4pairIKS0_St6vectorIS3_IiSaIiEESaIS5_EEESaIS8_ENSt8__detail10_Select1stESt8equal_toIS0_ESt4hashIS0_ENSA_18_Mod_range_hashingENSA_20_Default_ranged_hashENSA_20_Prime_rehash_policyENSA_17_Hashtable_traitsILb0ELb0ELb1EEEE13_M_rehash_auxEmSt17integral_constantIbLb1EE
FNDA:0,_ZNSt10_HashtableI11NonTerminalSt4pairIKS0_St6vectorIS3_IiSaIiEESaIS5_EEESaIS8_ENSt8__detail10_Select1stESt8equal_toIS0_ESt4hashIS0_ENSA_18_Mod_range_hashingENSA_20_Default_ranged_hashENSA_20_Prime_rehash_policyENSA_17_Hashtable_traitsILb0ELb0ELb1EEEE13_M_rehash_auxEmSt17integral_constantIbLb1EE
DA:342,0
DA:343,0
DA:342,0
DA:343,0
DA:353,0
DA:355,0
DA:357,0
DA:358,0
DA:361,0
DA:353,0
DA:355,0
DA:357,0
DA:358,0
DA:361,0
DA:365,0
DA:367,0
DA:368,0
DA:370,0
DA:365,0
DA:367,0
DA:368,0
DA:370,0
DA:374,0
DA:375,0
DA:374,0
DA:375,0
DA:383,0
DA:384,0
DA:383,0
DA:384,0
DA:405,0
DA:409,0
DA:410,0
DA:438,2
DA:492,0
DA:498,0
DA:499,0
DA:536,12
DA:537,12
DA:540,5
DA:541,5
DA:544,12
DA:545,12
DA:548,5
DA:549,5
DA:671,0
DA:672,0
DA:671,0
DA:672,0
DA:675,0
DA:676,0
DA:675,0
DA:676,0
DA:684,0
DA:687,0
DA:688,0
DA:689,0
DA:690,0
DA:684,0
DA:687,0
DA:688,0
DA:689,0
DA:690,0
DA:1004,0
DA:1011,0
DA:1013,0
DA:1014,0
DA:1016,0
DA:1019,0
DA:1021,0
DA:1022,0
DA:1025,0
DA:1026,0
DA:1027,0
DA:1383,0
DA:1387,0
DA:1388,0
DA:1389,0
DA:1383,2
DA:1387,2
DA:1388,2
DA:1389,2
DA:1567,0
DA:1573,0
DA:1574,0
DA:1575,0
DA:1577,0
DA:1578,0
DA:1580,0
DA:1581,0
DA:1583,0
DA:1584,0
DA:1585,0
DA:1587,0
DA:1567,0
DA:1573,0
DA:1574,0
DA:1575,0
DA:1577,0
DA:1578,0
DA:1580,0
DA:1581,0
DA:1583,0
DA:1584,0
DA:1585,0
DA:1587,0
DA:1595,0
DA:1599,0
DA:1603,0
DA:1604,0
DA:1611,0
DA:1612,0
DA:1613,0
DA:1616,0
DA:1617,0
DA:1619,0
DA:1595,0
DA:1599,0
DA:1603,0
DA:1604,0
DA:1611,0
DA:1612,0
DA:1613,0
DA:1616,0
DA:1617,0
DA:1619,0
DA:1733,0
DA:1739,0
DA:1740,0
DA:1746,0
DA:1748,0
DA:1749,0
DA:1752,0
DA:1755,0
DA:1756,0
DA:1757,0
DA:1759,0
DA:1761,0
DA:1762,0
DA:1733,0
DA:1739,0
DA:1740,0
DA:1746,0
DA:1748,0
DA:1749,0
DA:1752,0
DA:1755,0
DA:1756,0
DA:1757,0
DA:1759,0
DA:1761,0
DA:1762,0
DA:1838,0
DA:1844,0
DA:1845,0
DA:1846,0
DA:1848,0
DA:1849,0
DA:1850,0
DA:1852,0
DA:1853,0
DA:2059,0
DA:2063,0
DA:2064,0
DA:2065,0
DA:2066,0
DA:2067,0
DA:2059,2
DA:2063,2
DA:2064,2
DA:2065,2
DA:2066,2
DA:2067,2
DA:2096,0
DA:2102,0
DA:2104,0
DA:2108,0
DA:2109,0
DA:2111,0
DA:2096,0
DA:2102,0
DA:2104,0
DA:2108,0
DA:2109,0
DA:2111,0
DA:2119,0
DA:2123,0
DA:2124,0
DA:2125,0
DA:2126,0
DA:2127,0
DA:2129,0
DA:2130,0
DA:2131,0
DA:2133,0
DA:2134,0
DA:2135,0
DA:2136,0
DA:2137,0
DA:2138,0
DA:2142,0
DA:2143,0
DA:2145,0
DA:2148,0
DA:2149,0
DA:2150,0
DA:2151,0
DA:2119,0
DA:2123,0
DA:2124,0
DA:2125,0
DA:2126,0
DA:2127,0
DA:2129,0
DA:2130,0
DA:2131,0
DA:2133,0
DA:2134,0
DA:2135,0
DA:2136,0
DA:2137,0
DA:2138,0
DA:2142,0
DA:2143,0
DA:2145,0
DA:2148,0
DA:2149,0
DA:2150,0
DA:2151,0
end_of_record
SF:/usr/include/c++/9/ext/new_allocator.h
FN:80,_ZN9__gnu_cxx13new_allocatorIiEC2Ev
FNDA:0,_ZN9__gnu_cxx13new_allocatorIiEC2Ev
FN:80,_ZN9__gnu_cxx13new_allocatorISt13_Rb_tree_nodeIiEEC2Ev
FNDA:0,_ZN9__gnu_cxx13new_allocatorISt13_Rb_tree_nodeIiEEC2Ev
FN:80,_ZN9__gnu_cxx13new_allocatorISt6vectorIiSaIiEEEC2Ev
FNDA:0,_ZN9__gnu_cxx13new_allocatorISt6vectorIiSaIiEEEC2Ev
FN:80,_ZN9__gnu_cxx13new_allocatorINSt8__detail10_Hash_nodeISt4pairIK11NonTerminalSt6vectorIS6_IiSaIiEESaIS8_EEELb0EEEEC2Ev
FNDA:0,_ZN9__gnu_cxx13new_allocatorINSt8__detail10_Hash_nodeISt4pairIK11NonTerminalSt6vectorIS6_IiSaIiEESaIS8_EEELb0EEEEC2Ev
FN:80,_ZN9__gnu_cxx13new_allocatorIPNSt8__detail15_Hash_node_baseEEC2Ev
FNDA:0,_ZN9__gnu_cxx13new_allocatorIPNSt8__detail15_Hash_node_baseEEC2Ev
FN:80,_ZN9__gnu_cxx13new_allocatorINSt8__detail10_Hash_nodeISt4pairIKiSt3setIiSt4lessIiESaIiEEELb0EEEEC2Ev
FNDA:2,_ZN9__gnu_cxx13new_allocatorINSt8__detail10_Hash_nodeISt4pairIKiSt3setIiSt4lessIiESaIiEEELb0EEEEC2Ev
FN:80,_ZN9__gnu_cxx13new_allocatorISt4pairIK11NonTerminalSt6vectorIS4_IiSaIiEESaIS6_EEEEC2Ev
FNDA:0,_ZN9__gnu_cxx13new_allocatorISt4pairIK11NonTerminalSt6vectorIS4_IiSaIiEESaIS6_EEEEC2Ev
FN:83,_ZN9__gnu_cxx13new_allocatorIiEC2ERKS1_
FNDA:0,_ZN9__gnu_cxx13new_allocatorIiEC2ERKS1_
FN:83,_ZN9__gnu_cxx13new_allocatorISt6vectorIiSaIiEEEC2ERKS4_
FNDA:0,_ZN9__gnu_cxx13new_allocatorISt6vectorIiSaIiEEEC2ERKS4_
FN:83,_ZN9__gnu_cxx13new_allocatorINSt8__detail10_Hash_nodeISt4pairIK11NonTerminalSt6vectorIS6_IiSaIiEESaIS8_EEELb0EEEEC2ERKSD_
FNDA:0,_ZN9__gnu_cxx13new_allocatorINSt8__detail10_Hash_nodeISt4pairIK11NonTerminalSt6vectorIS6_IiSaIiEESaIS8_EEELb0EEEEC2ERKSD_
FN:89,_ZN9__gnu_cxx13new_allocatorISt4pairIK11NonTerminalSt6vectorIS4_IiSaIiEESaIS6_EEEED2Ev
FNDA:0,_ZN9__gnu_cxx13new_allocatorISt4pairIK11NonTerminalSt6vectorIS4_IiSaIiEESaIS6_EEEED2Ev
FN:89,_ZN9__gnu_cxx13new_allocatorISt6vectorIiSaIiEEED2Ev
FNDA:0,_ZN9__gnu_cxx13new_allocatorISt6vectorIiSaIiEEED2Ev
FN:89,_ZN9__gnu_cxx13new_allocatorIiED2Ev
FNDA:0,_ZN9__gnu_cxx13new_allocatorIiED2Ev
FN:89,_ZN9__gnu_cxx13new_allocatorIPNSt8__detail15_Hash_node_baseEED2Ev
FNDA:0,_ZN9__gnu_cxx13new_allocatorIPNSt8__detail15_Hash_node_baseEED2Ev
FN:89,_ZN9__gnu_cxx13new_allocatorINSt8__detail10_Hash_nodeISt4pairIKiSt3setIiSt4lessIiESaIiEEELb0EEEED2Ev
FNDA:2,_ZN9__gnu_cxx13new_allocatorINSt8__detail10_Hash_nodeISt4pairIKiSt3setIiSt4lessIiESaIiEEELb0EEEED2Ev
FN:89,_ZN9__gnu_cxx13new_allocatorISt13_Rb_tree_nodeIiEED2Ev
FNDA:0,_ZN9__gnu_cxx13new_allocatorISt13_Rb_tree_nodeIiEED2Ev
FN:89,_ZN9__gnu_cxx13new_allocatorINSt8__detail10_Hash_nodeISt4pairIK11NonTerminalSt6vectorIS6_IiSaIiEESaIS8_EEELb0EEEED2Ev
FNDA:0,_ZN9__gnu_cxx13new_allocatorINSt8__detail10_Hash_nodeISt4pairIK11NonTerminalSt6vectorIS6_IiSaIiEESaIS8_EEELb0EEEED2Ev
FN:102,_ZN9__gnu_cxx13new_allocatorIPNSt8__detail15_Hash_node_baseEE8allocateEmPKv
FNDA:0,_ZN9__gnu_cxx13new_allocatorIPNSt8__detail15_Hash_node_baseEE8allocateEmPKv
FN:102,_ZN9__gnu_cxx13new_allocatorIiE8allocateEmPKv
FNDA:0,_ZN9__gnu_cxx13new_allocatorIiE8allocateEmPKv
FN:102,_ZN9__gnu_cxx13new_allocatorISt6vectorIiSaIiEEE8allocateEmPKv
FNDA:0,_ZN9__gnu_cxx13new_allocatorISt6vectorIiSaIiEEE8allocateEmPKv
FN:102,_ZN9__gnu_cxx13new_allocatorINSt8__detail10_Hash_nodeISt4pairIKiSt3setIiSt4lessIiESaIiEEELb0EEEE8allocateEmPKv
FNDA:0,_ZN9__gnu_cxx13new_allocatorINSt8__detail10_Hash_nodeISt4pairIKiSt3setIiSt4lessIiESaIiEEELb0EEEE8allocateEmPKv
FN:102,_ZN9__gnu_cxx13new_allocatorINSt8__detail10_Hash_nodeISt4pairIK11NonTerminalSt6vectorIS6_IiSaIiEESaIS8_EEELb0EEEE8allocateEmPKv
FNDA:0,_ZN9__gnu_cxx13new_allocatorINSt8__detail10_Hash_nodeISt4pairIK11NonTerminalSt6vectorIS6_IiSaIiEESaIS8_EEELb0EEEE8allocateEmPKv
FN:102,_ZN9__gnu_cxx13new_allocatorISt13_Rb_tree_nodeIiEE8allocateEmPKv
FNDA:0,_ZN9__gnu_cxx13new_allocatorISt13_Rb_tree_nodeIiEE8allocateEmPKv
FN:119,_ZN9__gnu_cxx13new_allocatorINSt8__detail10_Hash_nodeISt4pairIKiSt3setIiSt4lessIiESaIiEEELb0EEEE10deallocateEPSB_m
FNDA:0,_ZN9__gnu_cxx13new_allocatorINSt8__detail10_Hash_nodeISt4pairIKiSt3setIiSt4lessIiESaIiEEELb0EEEE10deallocateEPSB_m
FN:119,_ZN9__gnu_cxx13new_allocatorINSt8__detail10_Hash_nodeISt4pairIK11NonTerminalSt6vectorIS6_IiSaIiEESaIS8_EEELb0EEEE10deallocateEPSC_m
FNDA:0,_ZN9__gnu_cxx13new_allocatorINSt8__detail10_Hash_nodeISt4pairIK11NonTerminalSt6vectorIS6_IiSaIiEESaIS8_EEELb0EEEE10deallocateEPSC_m
FN:119,_ZN9__gnu_cxx13new_allocatorISt6vectorIiSaIiEEE10deallocateEPS3_m
FNDA:0,_ZN9__gnu_cxx13new_allocatorISt6vectorIiSaIiEEE10deallocateEPS3_m
FN:119,_ZN9__gnu_cxx13new_allocatorIPNSt8__detail15_Hash_node_baseEE10deallocateEPS3_m
FNDA:0,_ZN9__gnu_cxx13new_allocatorIPNSt8__detail15_Hash_node_baseEE10deallocateEPS3_m
FN:119,_ZN9__gnu_cxx13new_allocatorISt13_Rb_tree_nodeIiEE10deallocateEPS2_m
FNDA:0,_ZN9__gnu_cxx13new_allocatorISt13_Rb_tree_nodeIiEE10deallocateEPS2_m
FN:119,_ZN9__gnu_cxx13new_allocatorIiE10deallocateEPim
FNDA:0,_ZN9__gnu_cxx13new_allocatorIiE10deallocateEPim
FN:132,_ZNK9__gnu_cxx13new_allocatorIiE8max_sizeEv
FNDA:0,_ZNK9__gnu_cxx13new_allocatorIiE8max_sizeEv
FN:132,_ZNK9__gnu_cxx13new_allocatorINSt8__detail10_Hash_nodeISt4pairIK11NonTerminalSt6vectorIS6_IiSaIiEESaIS8_EEELb0EEEE8max_sizeEv
FNDA:0,_ZNK9__gnu_cxx13new_allocatorINSt8__detail10_Hash_nodeISt4pairIK11NonTerminalSt6vectorIS6_IiSaIiEESaIS8_EEELb0EEEE8max_sizeEv
FN:132,_ZNK9__gnu_cxx13new_allocatorISt6vectorIiSaIiEEE8max_sizeEv
FNDA:0,_ZNK9__gnu_cxx13new_allocatorISt6vectorIiSaIiEEE8max_sizeEv
FN:132,_ZNK9__gnu_cxx13new_allocatorINSt8__detail10_Hash_nodeISt4pairIKiSt3setIiSt4lessIiESaIiEEELb0EEEE8max_sizeEv
FNDA:0,_ZNK9__gnu_cxx13new_allocatorINSt8__detail10_Hash_nodeISt4pairIKiSt3setIiSt4lessIiESaIiEEELb0EEEE8max_sizeEv
FN:132,_ZNK9__gnu_cxx13new_allocatorIPNSt8__detail15_Hash_node_baseEE8max_sizeEv
FNDA:0,_ZNK9__gnu_cxx13new_allocatorIPNSt8__detail15_Hash_node_baseEE8max_sizeEv
FN:132,_ZNK9__gnu_cxx13new_allocatorISt13_Rb_tree_nodeIiEE8max_sizeEv
FNDA:0,_ZNK9__gnu_cxx13new_allocatorISt13_Rb_tree_nodeIiEE8max_sizeEv
FN:144,_ZN9__gnu_cxx13new_allocatorINSt8__detail10_Hash_nodeISt4pairIKiSt3setIiSt4lessIiESaIiEEELb0EEEE9constructISA_JRKSt21piecewise_construct_tSt5tupleIJOiEESH_IJEEEEEvPT_DpOT0_
FNDA:0,_ZN9__gnu_cxx13new_allocatorINSt8__detail10_Hash_nodeISt4pairIKiSt3setIiSt4lessIiESaIiEEELb0EEEE9constructISA_JRKSt21piecewise_construct_tSt5tupleIJOiEESH_IJEEEEEvPT_DpOT0_
FN:144,_ZN9__gnu_cxx13new_allocatorISt13_Rb_tree_nodeIiEE9constructIiJRKiEEEvPT_DpOT0_
FNDA:0,_ZN9__gnu_cxx13new_allocatorISt13_Rb_tree_nodeIiEE9constructIiJRKiEEEvPT_DpOT0_
FN:144,_ZN9__gnu_cxx13new_allocatorINSt8__detail10_Hash_nodeISt4pairIK11NonTerminalSt6vectorIS6_IiSaIiEESaIS8_EEELb0EEEE9constructISB_JRKSB_EEEvPT_DpOT0_
FNDA:0,_ZN9__gnu_cxx13new_allocatorINSt8__detail10_Hash_nodeISt4pairIK11NonTerminalSt6vectorIS6_IiSaIiEESaIS8_EEELb0EEEE9constructISB_JRKSB_EEEvPT_DpOT0_
FN:150,_ZN9__gnu_cxx13new_allocatorINSt8__detail10_Hash_nodeISt4pairIKiSt3setIiSt4lessIiESaIiEEELb0EEEE7destroyISA_EEvPT_
FNDA:0,_ZN9__gnu_cxx13new_allocatorINSt8__detail10_Hash_nodeISt4pairIKiSt3setIiSt4lessIiESaIiEEELb0EEEE7destroyISA_EEvPT_
FN:150,_ZN9__gnu_cxx13new_allocatorISt13_Rb_tree_nodeIiEE7destroyIiEEvPT_
FNDA:0,_ZN9__gnu_cxx13new_allocatorISt13_Rb_tree_nodeIiEE7destroyIiEEvPT_
FN:150,_ZN9__gnu_cxx13new_allocatorINSt8__detail10_Hash_nodeISt4pairIK11NonTerminalSt6vectorIS6_IiSaIiEESaIS8_EEELb0EEEE7destroyISB_EEvPT_
FNDA:0,_ZN9__gnu_cxx13new_allocatorINSt8__detail10_Hash_nodeISt4pairIK11NonTerminalSt6vectorIS6_IiSaIiEESaIS8_EEELb0EEEE7destroyISB_EEvPT_
DA:80,0
DA:80,0
DA:80,0
DA:80,2
DA:80,0
DA:80,0
DA:80,0
DA:83,0
DA:83,0
DA:83,0
DA:89,0
DA:89,0
DA:89,0
DA:89,2
DA:89,0
DA:89,0
DA:89,0
DA:102,0
DA:104,0
DA:105,0
DA:114,0
DA:102,0
DA:104,0
DA:105,0
DA:114,0
DA:102,0
DA:104,0
DA:105,0
DA:114,0
DA:102,0
DA:104,0
DA:105,0
DA:114,0
DA:102,0
DA:104,0
DA:105,0
DA:114,0
DA:102,0
DA:104,0
DA:105,0
DA:114,0
DA:119,0
DA:128,0
DA:129,0
DA:119,0
DA:128,0
DA:129,0
DA:119,0
DA:128,0
DA:129,0
DA:119,0
DA:128,0
DA:129,0
DA:119,0
DA:128,0
DA:129,0
DA:119,0
DA:128,0
DA:129,0
DA:132,0
DA:135,0
DA:132,0
DA:135,0
DA:132,0
DA:135,0
DA:132,0
DA:135,0
DA:132,0
DA:135,0
DA:132,0
DA:135,0
DA:144,0
DA:146,0
DA:144,0
DA:146,0
DA:144,0
DA:146,0
DA:150,0
DA:152,0
DA:150,0
DA:152,0
DA:150,0
DA:152,0
end_of_record
SF:/usr/include/c++/9/bits/stl_iterator.h
FN:803,_ZN9__gnu_cxx17__normal_iteratorIPKiSt6vectorIiSaIiEEEC2ERKS2_
FNDA:0,_ZN9__gnu_cxx17__normal_iteratorIPKiSt6vectorIiSaIiEEEC2ERKS2_
FN:803,_ZN9__gnu_cxx17__normal_iteratorIPKSt6vectorIiSaIiEES1_IS3_SaIS3_EEEC2ERKS5_
FNDA:0,_ZN9__gnu_cxx17__normal_iteratorIPKSt6vectorIiSaIiEES1_IS3_SaIS3_EEEC2ERKS5_
FN:816,_ZNK9__gnu_cxx17__normal_iteratorIPKSt6vectorIiSaIiEES1_IS3_SaIS3_EEEdeEv
FNDA:0,_ZNK9__gnu_cxx17__normal_iteratorIPKSt6vectorIiSaIiEES1_IS3_SaIS3_EEEdeEv
FN:824,_ZN9__gnu_cxx17__normal_iteratorIPKSt6vectorIiSaIiEES1_IS3_SaIS3_EEEppEv
FNDA:0,_ZN9__gnu_cxx17__normal_iteratorIPKSt6vectorIiSaIiEES1_IS3_SaIS3_EEEppEv
FN:868,_ZNK9__gnu_cxx17__normal_iteratorIPKiSt6vectorIiSaIiEEE4baseEv
FNDA:0,_ZNK9__gnu_cxx17__normal_iteratorIPKiSt6vectorIiSaIiEEE4baseEv
FN:868,_ZNK9__gnu_cxx17__normal_iteratorIPKSt6vectorIiSaIiEES1_IS3_SaIS3_EEE4baseEv
FNDA:0,_ZNK9__gnu_cxx17__normal_iteratorIPKSt6vectorIiSaIiEES1_IS3_SaIS3_EEE4baseEv
FN:904,_ZN9__gnu_cxxneIPKSt6vectorIiSaIiEES1_IS3_SaIS3_EEEEbRKNS_17__normal_iteratorIT_T0_EESD_
FNDA:0,_ZN9__gnu_cxxneIPKSt6vectorIiSaIiEES1_IS3_SaIS3_EEEEbRKNS_17__normal_iteratorIT_T0_EESD_
FN:1007,_ZSt12__niter_baseIPKiSt6vectorIiSaIiEEET_N9__gnu_cxx17__normal_iteratorIS5_T0_EE
FNDA:0,_ZSt12__niter_baseIPKiSt6vectorIiSaIiEEET_N9__gnu_cxx17__normal_iteratorIS5_T0_EE
DA:803,0
DA:804,0
DA:803,0
DA:804,0
DA:816,0
DA:817,0
DA:824,0
DA:826,0
DA:827,0
DA:868,0
DA:869,0
DA:868,0
DA:869,0
DA:904,0
DA:907,0
DA:1007,0
DA:1009,0
end_of_record
SF:/usr/include/c++/9/utility
FN:174,_ZNSt10__pair_getILm0EE5__getIK11NonTerminalSt6vectorIS4_IiSaIiEESaIS6_EEEERT_RSt4pairIS9_T0_E
FNDA:0,_ZNSt10__pair_getILm0EE5__getIK11NonTerminalSt6vectorIS4_IiSaIiEESaIS6_EEEERT_RSt4pairIS9_T0_E
FN:174,_ZNSt10__pair_getILm0EE5__getIKiSt3setIiSt4lessIiESaIiEEEERT_RSt4pairIS8_T0_E
FNDA:0,_ZNSt10__pair_getILm0EE5__getIKiSt3setIiSt4lessIiESaIiEEEERT_RSt4pairIS8_T0_E
FN:184,_ZNSt10__pair_getILm0EE11__const_getIKiSt3setIiSt4lessIiESaIiEEEERKT_RKSt4pairIS8_T0_E
FNDA:0,_ZNSt10__pair_getILm0EE11__const_getIKiSt3setIiSt4lessIiESaIiEEEERKT_RKSt4pairIS8_T0_E
FN:184,_ZNSt10__pair_getILm0EE11__const_getIK11NonTerminalSt6vectorIS4_IiSaIiEESaIS6_EEEERKT_RKSt4pairIS9_T0_E
FNDA:0,_ZNSt10__pair_getILm0EE11__const_getIK11NonTerminalSt6vectorIS4_IiSaIiEESaIS6_EEEERKT_RKSt4pairIS9_T0_E
FN:219,_ZSt3getILm0EK11NonTerminalSt6vectorIS2_IiSaIiEESaIS4_EEERNSt13tuple_elementIXT_ESt4pairIT0_T1_EE4typeERSB_
FNDA:0,_ZSt3getILm0EK11NonTerminalSt6vectorIS2_IiSaIiEESaIS4_EEERNSt13tuple_elementIXT_ESt4pairIT0_T1_EE4typeERSB_
FN:219,_ZSt3getILm0EKiSt3setIiSt4lessIiESaIiEEERNSt13tuple_elementIXT_ESt4pairIT0_T1_EE4typeERSA_
FNDA:0,_ZSt3getILm0EKiSt3setIiSt4lessIiESaIiEEERNSt13tuple_elementIXT_ESt4pairIT0_T1_EE4typeERSA_
FN:229,_ZSt3getILm0EKiSt3setIiSt4lessIiESaIiEEERKNSt13tuple_elementIXT_ESt4pairIT0_T1_EE4typeERKSA_
FNDA:0,_ZSt3getILm0EKiSt3setIiSt4lessIiESaIiEEERKNSt13tuple_elementIXT_ESt4pairIT0_T1_EE4typeERKSA_
FN:229,_ZSt3getILm0EK11NonTerminalSt6vectorIS2_IiSaIiEESaIS4_EEERKNSt13tuple_elementIXT_ESt4pairIT0_T1_EE4typeERKSB_
FNDA:0,_ZSt3getILm0EK11NonTerminalSt6vectorIS2_IiSaIiEESaIS4_EEERKNSt13tuple_elementIXT_ESt4pairIT0_T1_EE4typeERKSB_
DA:174,0
DA:175,0
DA:174,0
DA:175,0
DA:184,0
DA:185,0
DA:184,0
DA:185,0
DA:219,0
DA:220,0
DA:219,0
DA:220,0
DA:229,0
DA:230,0
DA:229,0
DA:230,0
end_of_record
TN:
SF:/usr/include/c++/9/initializer_list
FN:71,_ZNKSt16initializer_listISt4pairIK11NonTerminalSt6vectorIS3_IiSaIiEESaIS5_EEEE4sizeEv
FNDA:0,_ZNKSt16initializer_listISt4pairIK11NonTerminalSt6vectorIS3_IiSaIiEESaIS5_EEEE4sizeEv
FN:71,_ZNKSt16initializer_listISt6vectorIiSaIiEEE4sizeEv
FNDA:0,_ZNKSt16initializer_listISt6vectorIiSaIiEEE4sizeEv
FN:71,_ZNKSt16initializer_listIiE4sizeEv
FNDA:0,_ZNKSt16initializer_listIiE4sizeEv
FN:75,_ZNKSt16initializer_listISt4pairIK11NonTerminalSt6vectorIS3_IiSaIiEESaIS5_EEEE5beginEv
FNDA:0,_ZNKSt16initializer_listISt4pairIK11NonTerminalSt6vectorIS3_IiSaIiEESaIS5_EEEE5beginEv
FN:75,_ZNKSt16initializer_listISt6vectorIiSaIiEEE5beginEv
FNDA:0,_ZNKSt16initializer_listISt6vectorIiSaIiEEE5beginEv
FN:75,_ZNKSt16initializer_listIiE5beginEv
FNDA:0,_ZNKSt16initializer_listIiE5beginEv
FN:79,_ZNKSt16initializer_listISt4pairIK11NonTerminalSt6vectorIS3_IiSaIiEESaIS5_EEEE3endEv
FNDA:0,_ZNKSt16initializer_listISt4pairIK11NonTerminalSt6vectorIS3_IiSaIiEESaIS5_EEEE3endEv
FN:79,_ZNKSt16initializer_listISt6vectorIiSaIiEEE3endEv
FNDA:0,_ZNKSt16initializer_listISt6vectorIiSaIiEEE3endEv
FN:79,_ZNKSt16initializer_listIiE3endEv
FNDA:0,_ZNKSt16initializer_listIiE3endEv
DA:71,0
DA:71,0
DA:71,0
DA:75,0
DA:75,0
DA:75,0
DA:79,0
DA:79,0
DA:79,0
end_of_record
SF:/usr/include/c++/9/bits/stl_uninitialized.h
FN:76,_ZNSt20__uninitialized_copyILb0EE13__uninit_copyIN9__gnu_cxx17__normal_iteratorIPKSt6vectorIiSaIiEES4_IS6_SaIS6_EEEEPS6_EET0_T_SE_SD_
FNDA:0,_ZNSt20__uninitialized_copyILb0EE13__uninit_copyIN9__gnu_cxx17__normal_iteratorIPKSt6vectorIiSaIiEES4_IS6_SaIS6_EEEEPS6_EET0_T_SE_SD_
FN:76,_ZNSt20__uninitialized_copyILb0EE13__uninit_copyIPKSt6vectorIiSaIiEEPS4_EET0_T_S9_S8_
FNDA:0,_ZNSt20__uninitialized_copyILb0EE13__uninit_copyIPKSt6vectorIiSaIiEEPS4_EET0_T_S9_S8_
FN:99,_ZNSt20__uninitialized_copyILb1EE13__uninit_copyIN9__gnu_cxx17__normal_iteratorIPKiSt6vectorIiSaIiEEEEPiEET0_T_SC_SB_
FNDA:0,_ZNSt20__uninitialized_copyILb1EE13__uninit_copyIN9__gnu_cxx17__normal_iteratorIPKiSt6vectorIiSaIiEEEEPiEET0_T_SC_SB_
FN:99,_ZNSt20__uninitialized_copyILb1EE13__uninit_copyIPKiPiEET0_T_S6_S5_
FNDA:0,_ZNSt20__uninitialized_copyILb1EE13__uninit_copyIPKiPiEET0_T_S6_S5_
FN:115,_ZSt18uninitialized_copyIN9__gnu_cxx17__normal_iteratorIPKiSt6vectorIiSaIiEEEEPiET0_T_SA_S9_
FNDA:0,_ZSt18uninitialized_copyIN9__gnu_cxx17__normal_iteratorIPKiSt6vectorIiSaIiEEEEPiET0_T_SA_S9_
FN:115,_ZSt18uninitialized_copyIN9__gnu_cxx17__normal_iteratorIPKSt6vectorIiSaIiEES2_IS4_SaIS4_EEEEPS4_ET0_T_SC_SB_
FNDA:0,_ZSt18uninitialized_copyIN9__gnu_cxx17__normal_iteratorIPKSt6vectorIiSaIiEES2_IS4_SaIS4_EEEEPS4_ET0_T_SC_SB_
FN:115,_ZSt18uninitialized_copyIPKSt6vectorIiSaIiEEPS2_ET0_T_S7_S6_
FNDA:0,_ZSt18uninitialized_copyIPKSt6vectorIiSaIiEEPS2_ET0_T_S7_S6_
FN:115,_ZSt18uninitialized_copyIPKiPiET0_T_S4_S3_
FNDA:0,_ZSt18uninitialized_copyIPKiPiET0_T_S4_S3_
FN:305,_ZSt22__uninitialized_copy_aIN9__gnu_cxx17__normal_iteratorIPKiSt6vectorIiSaIiEEEEPiiET0_T_SA_S9_RSaIT1_E
FNDA:0,_ZSt22__uninitialized_copy_aIN9__gnu_cxx17__normal_iteratorIPKiSt6vectorIiSaIiEEEEPiiET0_T_SA_S9_RSaIT1_E
FN:305,_ZSt22__uninitialized_copy_aIN9__gnu_cxx17__normal_iteratorIPKSt6vectorIiSaIiEES2_IS4_SaIS4_EEEEPS4_S4_ET0_T_SC_SB_RSaIT1_E
FNDA:0,_ZSt22__uninitialized_copy_aIN9__gnu_cxx17__normal_iteratorIPKSt6vectorIiSaIiEES2_IS4_SaIS4_EEEEPS4_S4_ET0_T_SC_SB_RSaIT1_E
FN:305,_ZSt22__uninitialized_copy_aIPKSt6vectorIiSaIiEEPS2_S2_ET0_T_S7_S6_RSaIT1_E
FNDA:0,_ZSt22__uninitialized_copy_aIPKSt6vectorIiSaIiEEPS2_S2_ET0_T_S7_S6_RSaIT1_E
FN:305,_ZSt22__uninitialized_copy_aIPKiPiiET0_T_S4_S3_RSaIT1_E
FNDA:0,_ZSt22__uninitialized_copy_aIPKiPiiET0_T_S4_S3_RSaIT1_E
DA:76,0
DA:79,0
DA:82,0
DA:83,0
DA:84,0
DA:86,0
DA:88,0
DA:89,0
DA:76,0
DA:79,0
DA:82,0
DA:83,0
DA:84,0
DA:86,0
DA:88,0
DA:89,0
DA:99,0
DA:101,0
DA:99,0
DA:101,0
DA:115,0
DA:134,0
DA:140,0
DA:115,0
DA:134,0
DA:140,0
DA:115,0
DA:134,0
DA:140,0
DA:115,0
DA:134,0
DA:140,0
DA:305,0
DA:307,0
DA:305,0
DA:307,0
DA:305,0
DA:307,0
DA:305,0
DA:307,0
end_of_record
SF:/usr/include/c++/9/bits/stl_tree.h
FN:112,_ZNSt18_Rb_tree_node_base10_S_minimumEPS_
FNDA:0,_ZNSt18_Rb_tree_node_base10_S_minimumEPS_
FN:126,_ZNSt18_Rb_tree_node_base10_S_maximumEPS_
FNDA:0,_ZNSt18_Rb_tree_node_base10_S_maximumEPS_
FN:146,_ZNSt20_Rb_tree_key_compareISt4lessIiEEC2Ev
FNDA:1875,_ZNSt20_Rb_tree_key_compareISt4lessIiEEC2Ev
FN:152,_ZNSt20_Rb_tree_key_compareISt4lessIiEEC2ERKS1_
FNDA:0,_ZNSt20_Rb_tree_key_compareISt4lessIiEEC2ERKS1_
FN:160,_ZNSt20_Rb_tree_key_compareISt4lessIiEEC2EOS2_
FNDA:750,_ZNSt20_Rb_tree_key_compareISt4lessIiEEC2EOS2_
FN:173,_ZNSt15_Rb_tree_headerC2Ev
FNDA:0,_ZNSt15_Rb_tree_headerC2Ev
FN:180,_ZNSt15_Rb_tree_headerC2EOS_
FNDA:750,_ZNSt15_Rb_tree_headerC2EOS_
FN:193,_ZNSt15_Rb_tree_header12_M_move_dataERS_
FNDA:1,_ZNSt15_Rb_tree_header12_M_move_dataERS_
FN:206,_ZNSt15_Rb_tree_header8_M_resetEv
FNDA:0,_ZNSt15_Rb_tree_header8_M_resetEv
FN:234,_ZNSt13_Rb_tree_nodeIiE9_M_valptrEv
FNDA:0,_ZNSt13_Rb_tree_nodeIiE9_M_valptrEv
FN:238,_ZNKSt13_Rb_tree_nodeIiE9_M_valptrEv
FNDA:0,_ZNKSt13_Rb_tree_nodeIiE9_M_valptrEv
FN:273,_ZNSt17_Rb_tree_iteratorIiEC2EPSt18_Rb_tree_node_base
FNDA:0,_ZNSt17_Rb_tree_iteratorIiEC2EPSt18_Rb_tree_node_base
FN:285,_ZNSt17_Rb_tree_iteratorIiEppEv
FNDA:0,_ZNSt17_Rb_tree_iteratorIiEppEv
FN:300,_ZNSt17_Rb_tree_iteratorIiEmmEv
FNDA:0,_ZNSt17_Rb_tree_iteratorIiEmmEv
FN:315,_ZSteqRKSt17_Rb_tree_iteratorIiES2_
FNDA:0,_ZSteqRKSt17_Rb_tree_iteratorIiES2_
FN:345,_ZNSt23_Rb_tree_const_iteratorIiEC2EPKSt18_Rb_tree_node_base
FNDA:0,_ZNSt23_Rb_tree_const_iteratorIiEC2EPKSt18_Rb_tree_node_base
FN:348,_ZNSt23_Rb_tree_const_iteratorIiEC2ERKSt17_Rb_tree_iteratorIiE
FNDA:0,_ZNSt23_Rb_tree_const_iteratorIiEC2ERKSt17_Rb_tree_iteratorIiE
FN:352,_ZNKSt23_Rb_tree_const_iteratorIiE13_M_const_castEv
FNDA:0,_ZNKSt23_Rb_tree_const_iteratorIiE13_M_const_castEv
FN:356,_ZNKSt23_Rb_tree_const_iteratorIiEdeEv
FNDA:0,_ZNKSt23_Rb_tree_const_iteratorIiEdeEv
FN:364,_ZNSt23_Rb_tree_const_iteratorIiEppEv
FNDA:0,_ZNSt23_Rb_tree_const_iteratorIiEppEv
FN:394,_ZSteqRKSt23_Rb_tree_const_iteratorIiES2_
FNDA:5346,_ZSteqRKSt23_Rb_tree_const_iteratorIiES2_
FN:398,_ZStneRKSt23_Rb_tree_const_iteratorIiES2_
FNDA:0,_ZStneRKSt23_Rb_tree_const_iteratorIiES2_
FN:454,_ZNSt8_Rb_treeIiiSt9_IdentityIiESt4lessIiESaIiEE20_Reuse_or_alloc_nodeC2ERS5_
FNDA:1618,_ZNSt8_Rb_treeIiiSt9_IdentityIiESt4lessIiESaIiEE20_Reuse_or_alloc_nodeC2ERS5_
FN:472,_ZNSt8_Rb_treeIiiSt9_IdentityIiESt4lessIiESaIiEE20_Reuse_or_alloc_nodeD2Ev
FNDA:1618,_ZNSt8_Rb_treeIiiSt9_IdentityIiESt4lessIiESaIiEE20_Reuse_or_alloc_nodeD2Ev
FN:480,_ZNSt8_Rb_treeIiiSt9_IdentityIiESt4lessIiESaIiEE20_Reuse_or_alloc_nodeclIRKiEEPSt13_Rb_tree_nodeIiEOT_
FNDA:4480,_ZNSt8_Rb_treeIiiSt9_IdentityIiESt4lessIiESaIiEE20_Reuse_or_alloc_nodeclIRKiEEPSt13_Rb_tree_nodeIiEOT_
FN:496,_ZNSt8_Rb_treeIiiSt9_IdentityIiESt4lessIiESaIiEE20_Reuse_or_alloc_node10_M_extractEv
FNDA:4480,_ZNSt8_Rb_treeIiiSt9_IdentityIiESt4lessIiESaIiEE20_Reuse_or_alloc_node10_M_extractEv
FN:538,_ZNSt8_Rb_treeIiiSt9_IdentityIiESt4lessIiESaIiEE11_Alloc_nodeC2ERS5_
FNDA:0,_ZNSt8_Rb_treeIiiSt9_IdentityIiESt4lessIiESaIiEE11_Alloc_nodeC2ERS5_
FN:546,_ZNKSt8_Rb_treeIiiSt9_IdentityIiESt4lessIiESaIiEE11_Alloc_nodeclIRKiEEPSt13_Rb_tree_nodeIiEOT_
FNDA:0,_ZNKSt8_Rb_treeIiiSt9_IdentityIiESt4lessIiESaIiEE11_Alloc_nodeclIRKiEEPSt13_Rb_tree_nodeIiEOT_
FN:566,_ZNSt8_Rb_treeIiiSt9_IdentityIiESt4lessIiESaIiEE21_M_get_Node_allocatorEv
FNDA:0,_ZNSt8_Rb_treeIiiSt9_IdentityIiESt4lessIiESaIiEE21_M_get_Node_allocatorEv
FN:579,_ZNSt8_Rb_treeIiiSt9_IdentityIiESt4lessIiESaIiEE11_M_get_nodeEv
FNDA:0,_ZNSt8_Rb_treeIiiSt9_IdentityIiESt4lessIiESaIiEE11_M_get_nodeEv
FN:583,_ZNSt8_Rb_treeIiiSt9_IdentityIiESt4lessIiESaIiEE11_M_put_nodeEPSt13_Rb_tree_nodeIiE
FNDA:0,_ZNSt8_Rb_treeIiiSt9_IdentityIiESt4lessIiESaIiEE11_M_put_nodeEPSt13_Rb_tree_nodeIiE
FN:609,_ZNSt8_Rb_treeIiiSt9_IdentityIiESt4lessIiESaIiEE17_M_construct_nodeIJRKiEEEvPSt13_Rb_tree_nodeIiEDpOT_
FNDA:0,_ZNSt8_Rb_treeIiiSt9_IdentityIiESt4lessIiESaIiEE17_M_construct_nodeIJRKiEEEvPSt13_Rb_tree_nodeIiEDpOT_
FN:628,_ZNSt8_Rb_treeIiiSt9_IdentityIiESt4lessIiESaIiEE14_M_create_nodeIJRKiEEEPSt13_Rb_tree_nodeIiEDpOT_
FNDA:0,_ZNSt8_Rb_treeIiiSt9_IdentityIiESt4lessIiESaIiEE14_M_create_nodeIJRKiEEEPSt13_Rb_tree_nodeIiEDpOT_
FN:637,_ZNSt8_Rb_treeIiiSt9_IdentityIiESt4lessIiESaIiEE15_M_destroy_nodeEPSt13_Rb_tree_nodeIiE
FNDA:0,_ZNSt8_Rb_treeIiiSt9_IdentityIiESt4lessIiESaIiEE15_M_destroy_nodeEPSt13_Rb_tree_nodeIiE
FN:648,_ZNSt8_Rb_treeIiiSt9_IdentityIiESt4lessIiESaIiEE12_M_drop_nodeEPSt13_Rb_tree_nodeIiE
FNDA:0,_ZNSt8_Rb_treeIiiSt9_IdentityIiESt4lessIiESaIiEE12_M_drop_nodeEPSt13_Rb_tree_nodeIiE
FN:656,_ZNSt8_Rb_treeIiiSt9_IdentityIiESt4lessIiESaIiEE13_M_clone_nodeINS5_11_Alloc_nodeEEEPSt13_Rb_tree_nodeIiEPKS9_RT_
FNDA:0,_ZNSt8_Rb_treeIiiSt9_IdentityIiESt4lessIiESaIiEE13_M_clone_nodeINS5_11_Alloc_nodeEEEPSt13_Rb_tree_nodeIiEPKS9_RT_
FN:680,_ZNSt8_Rb_treeIiiSt9_IdentityIiESt4lessIiESaIiEE13_Rb_tree_implIS3_Lb1EEC2Ev
FNDA:1875,_ZNSt8_Rb_treeIiiSt9_IdentityIiESt4lessIiESaIiEE13_Rb_tree_implIS3_Lb1EEC2Ev
FN:687,_ZNSt8_Rb_treeIiiSt9_IdentityIiESt4lessIiESaIiEE13_Rb_tree_implIS3_Lb1EEC2ERKS7_
FNDA:0,_ZNSt8_Rb_treeIiiSt9_IdentityIiESt4lessIiESaIiEE13_Rb_tree_implIS3_Lb1EEC2ERKS7_
FN:697,_ZNSt8_Rb_treeIiiSt9_IdentityIiESt4lessIiESaIiEE13_Rb_tree_implIS3_Lb1EEC2EOS7_
FNDA:750,_ZNSt8_Rb_treeIiiSt9_IdentityIiESt4lessIiESaIiEE13_Rb_tree_implIS3_Lb1EEC2EOS7_
FN:725,_ZNSt8_Rb_treeIiiSt9_IdentityIiESt4lessIiESaIiEE7_M_rootEv
FNDA:0,_ZNSt8_Rb_treeIiiSt9_IdentityIiESt4lessIiESaIiEE7_M_rootEv
FN:729,_ZNKSt8_Rb_treeIiiSt9_IdentityIiESt4lessIiESaIiEE7_M_rootEv
FNDA:0,_ZNKSt8_Rb_treeIiiSt9_IdentityIiESt4lessIiESaIiEE7_M_rootEv
FN:733,_ZNSt8_Rb_treeIiiSt9_IdentityIiESt4lessIiESaIiEE11_M_leftmostEv
FNDA:0,_ZNSt8_Rb_treeIiiSt9_IdentityIiESt4lessIiESaIiEE11_M_leftmostEv
FN:741,_ZNSt8_Rb_treeIiiSt9_IdentityIiESt4lessIiESaIiEE12_M_rightmostEv
FNDA:0,_ZNSt8_Rb_treeIiiSt9_IdentityIiESt4lessIiESaIiEE12_M_rightmostEv
FN:749,_ZNSt8_Rb_treeIiiSt9_IdentityIiESt4lessIiESaIiEE8_M_beginEv
FNDA:0,_ZNSt8_Rb_treeIiiSt9_IdentityIiESt4lessIiESaIiEE8_M_beginEv
FN:753,_ZNKSt8_Rb_treeIiiSt9_IdentityIiESt4lessIiESaIiEE8_M_beginEv
FNDA:0,_ZNKSt8_Rb_treeIiiSt9_IdentityIiESt4lessIiESaIiEE8_M_beginEv
FN:760,_ZNSt8_Rb_treeIiiSt9_IdentityIiESt4lessIiESaIiEE6_M_endEv
FNDA:0,_ZNSt8_Rb_treeIiiSt9_IdentityIiESt4lessIiESaIiEE6_M_endEv
FN:764,_ZNKSt8_Rb_treeIiiSt9_IdentityIiESt4lessIiESaIiEE6_M_endEv
FNDA:2673,_ZNKSt8_Rb_treeIiiSt9_IdentityIiESt4lessIiESaIiEE6_M_endEv
FN:772,_ZNSt8_Rb_treeIiiSt9_IdentityIiESt4lessIiESaIiEE6_S_keyEPKSt13_Rb_tree_nodeIiE
FNDA:0,_ZNSt8_Rb_treeIiiSt9_IdentityIiESt4lessIiESaIiEE6_S_keyEPKSt13_Rb_tree_nodeIiE
FN:794,_ZNSt8_Rb_treeIiiSt9_IdentityIiESt4lessIiESaIiEE7_S_leftEPSt18_Rb_tree_node_base
FNDA:0,_ZNSt8_Rb_treeIiiSt9_IdentityIiESt4lessIiESaIiEE7_S_leftEPSt18_Rb_tree_node_base
FN:798,_ZNSt8_Rb_treeIiiSt9_IdentityIiESt4lessIiESaIiEE7_S_leftEPKSt18_Rb_tree_node_base
FNDA:0,_ZNSt8_Rb_treeIiiSt9_IdentityIiESt4lessIiESaIiEE7_S_leftEPKSt18_Rb_tree_node_base
FN:802,_ZNSt8_Rb_treeIiiSt9_IdentityIiESt4lessIiESaIiEE8_S_rightEPSt18_Rb_tree_node_base
FNDA:0,_ZNSt8_Rb_treeIiiSt9_IdentityIiESt4lessIiESaIiEE8_S_rightEPSt18_Rb_tree_node_base
FN:806,_ZNSt8_Rb_treeIiiSt9_IdentityIiESt4lessIiESaIiEE8_S_rightEPKSt18_Rb_tree_node_base
FNDA:0,_ZNSt8_Rb_treeIiiSt9_IdentityIiESt4lessIiESaIiEE8_S_rightEPKSt18_Rb_tree_node_base
FN:814,_ZNSt8_Rb_treeIiiSt9_IdentityIiESt4lessIiESaIiEE6_S_keyEPKSt18_Rb_tree_node_base
FNDA:0,_ZNSt8_Rb_treeIiiSt9_IdentityIiESt4lessIiESaIiEE6_S_keyEPKSt18_Rb_tree_node_base
FN:818,_ZNSt8_Rb_treeIiiSt9_IdentityIiESt4lessIiESaIiEE10_S_minimumEPSt18_Rb_tree_node_base
FNDA:0,_ZNSt8_Rb_treeIiiSt9_IdentityIiESt4lessIiESaIiEE10_S_minimumEPSt18_Rb_tree_node_base
FN:826,_ZNSt8_Rb_treeIiiSt9_IdentityIiESt4lessIiESaIiEE10_S_maximumEPSt18_Rb_tree_node_base
FNDA:0,_ZNSt8_Rb_treeIiiSt9_IdentityIiESt4lessIiESaIiEE10_S_maximumEPSt18_Rb_tree_node_base
FN:904,_ZNSt8_Rb_treeIiiSt9_IdentityIiESt4lessIiESaIiEE7_M_copyINS5_11_Alloc_nodeEEEPSt13_Rb_tree_nodeIiERKS5_RT_
FNDA:0,_ZNSt8_Rb_treeIiiSt9_IdentityIiESt4lessIiESaIiEE7_M_copyINS5_11_Alloc_nodeEEEPSt13_Rb_tree_nodeIiERKS5_RT_
FN:914,_ZNSt8_Rb_treeIiiSt9_IdentityIiESt4lessIiESaIiEE7_M_copyERKS5_
FNDA:0,_ZNSt8_Rb_treeIiiSt9_IdentityIiESt4lessIiESaIiEE7_M_copyERKS5_
FN:944,_ZNSt8_Rb_treeIiiSt9_IdentityIiESt4lessIiESaIiEEC2Ev
FNDA:1875,_ZNSt8_Rb_treeIiiSt9_IdentityIiESt4lessIiESaIiEEC2Ev
FN:951,_ZNSt8_Rb_treeIiiSt9_IdentityIiESt4lessIiESaIiEEC2ERKS5_
FNDA:0,_ZNSt8_Rb_treeIiiSt9_IdentityIiESt4lessIiESaIiEEC2ERKS5_
FN:970,_ZNSt8_Rb_treeIiiSt9_IdentityIiESt4lessIiESaIiEEC2EOS5_
FNDA:750,_ZNSt8_Rb_treeIiiSt9_IdentityIiESt4lessIiESaIiEEC2EOS5_
FN:999,_ZNSt8_Rb_treeIiiSt9_IdentityIiESt4lessIiESaIiEED2Ev
FNDA:0,_ZNSt8_Rb_treeIiiSt9_IdentityIiESt4lessIiESaIiEED2Ev
FN:1011,_ZNSt8_Rb_treeIiiSt9_IdentityIiESt4lessIiESaIiEE5beginEv
FNDA:0,_ZNSt8_Rb_treeIiiSt9_IdentityIiESt4lessIiESaIiEE5beginEv
FN:1015,_ZNKSt8_Rb_treeIiiSt9_IdentityIiESt4lessIiESaIiEE5beginEv
FNDA:0,_ZNKSt8_Rb_treeIiiSt9_IdentityIiESt4lessIiESaIiEE5beginEv
FN:1019,_ZNSt8_Rb_treeIiiSt9_IdentityIiESt4lessIiESaIiEE3endEv
FNDA:0,_ZNSt8_Rb_treeIiiSt9_IdentityIiESt4lessIiESaIiEE3endEv
FN:1023,_ZNKSt8_Rb_treeIiiSt9_IdentityIiESt4lessIiESaIiEE3endEv
FNDA:0,_ZNKSt8_Rb_treeIiiSt9_IdentityIiESt4lessIiESaIiEE3endEv
FN:1047,_ZNKSt8_Rb_treeIiiSt9_IdentityIiESt4lessIiESaIiEE4sizeEv
FNDA:0,_ZNKSt8_Rb_treeIiiSt9_IdentityIiESt4lessIiESaIiEE4sizeEv
FN:1736,_ZNSt8_Rb_treeIiiSt9_IdentityIiESt4lessIiESaIiEE16_M_assign_uniqueIPKiEEvT_S9_
FNDA:118,_ZNSt8_Rb_treeIiiSt9_IdentityIiESt4lessIiESaIiEE16_M_assign_uniqueIPKiEEvT_S9_
FN:1802,_ZNSt8_Rb_treeIiiSt9_IdentityIiESt4lessIiESaIiEE10_M_insert_IRKiNS5_20_Reuse_or_alloc_nodeEEESt17_Rb_tree_iteratorIiEPSt18_Rb_tree_node_baseSD_OT_RT0_
FNDA:118,_ZNSt8_Rb_treeIiiSt9_IdentityIiESt4lessIiESaIiEE10_M_insert_IRKiNS5_20_Reuse_or_alloc_nodeEEESt17_Rb_tree_iteratorIiEPSt18_Rb_tree_node_baseSD_OT_RT0_
FN:1802,_ZNSt8_Rb_treeIiiSt9_IdentityIiESt4lessIiESaIiEE10_M_insert_IRKiNS5_11_Alloc_nodeEEESt17_Rb_tree_iteratorIiEPSt18_Rb_tree_node_baseSD_OT_RT0_
FNDA:0,_ZNSt8_Rb_treeIiiSt9_IdentityIiESt4lessIiESaIiEE10_M_insert_IRKiNS5_11_Alloc_nodeEEESt17_Rb_tree_iteratorIiEPSt18_Rb_tree_node_baseSD_OT_RT0_
FN:1876,_ZNSt8_Rb_treeIiiSt9_IdentityIiESt4lessIiESaIiEE7_M_copyINS5_11_Alloc_nodeEEEPSt13_Rb_tree_nodeIiEPKS9_PSt18_Rb_tree_node_baseRT_
FNDA:0,_ZNSt8_Rb_treeIiiSt9_IdentityIiESt4lessIiESaIiEE7_M_copyINS5_11_Alloc_nodeEEEPSt13_Rb_tree_nodeIiEPKS9_PSt18_Rb_tree_node_baseRT_
FN:1912,_ZNSt8_Rb_treeIiiSt9_IdentityIiESt4lessIiESaIiEE8_M_eraseEPSt13_Rb_tree_nodeIiE
FNDA:0,_ZNSt8_Rb_treeIiiSt9_IdentityIiESt4lessIiESaIiEE8_M_eraseEPSt13_Rb_tree_nodeIiE
FN:1945,_ZNKSt8_Rb_treeIiiSt9_IdentityIiESt4lessIiESaIiEE14_M_lower_boundEPKSt13_Rb_tree_nodeIiEPKSt18_Rb_tree_node_baseRKi
FNDA:2673,_ZNKSt8_Rb_treeIiiSt9_IdentityIiESt4lessIiESaIiEE14_M_lower_boundEPKSt13_Rb_tree_nodeIiEPKSt18_Rb_tree_node_baseRKi
FN:2090,_ZNSt8_Rb_treeIiiSt9_IdentityIiESt4lessIiESaIiEE24_M_get_insert_unique_posERKi
FNDA:0,_ZNSt8_Rb_treeIiiSt9_IdentityIiESt4lessIiESaIiEE24_M_get_insert_unique_posERKi
FN:2144,_ZNSt8_Rb_treeIiiSt9_IdentityIiESt4lessIiESaIiEE16_M_insert_uniqueIRKiEESt4pairISt17_Rb_tree_iteratorIiEbEOT_
FNDA:5064,_ZNSt8_Rb_treeIiiSt9_IdentityIiESt4lessIiESaIiEE16_M_insert_uniqueIRKiEESt4pairISt17_Rb_tree_iteratorIiEbEOT_
FN:2192,_ZNSt8_Rb_treeIiiSt9_IdentityIiESt4lessIiESaIiEE29_M_get_insert_hint_unique_posESt23_Rb_tree_const_iteratorIiERKi
FNDA:0,_ZNSt8_Rb_treeIiiSt9_IdentityIiESt4lessIiESaIiEE29_M_get_insert_hint_unique_posESt23_Rb_tree_const_iteratorIiERKi
FN:2253,_ZNSt8_Rb_treeIiiSt9_IdentityIiESt4lessIiESaIiEE17_M_insert_unique_IRKiNS5_20_Reuse_or_alloc_nodeEEESt17_Rb_tree_iteratorIiESt23_Rb_tree_const_iteratorIiEOT_RT0_
FNDA:118,_ZNSt8_Rb_treeIiiSt9_IdentityIiESt4lessIiESaIiEE17_M_insert_unique_IRKiNS5_20_Reuse_or_alloc_nodeEEESt17_Rb_tree_iteratorIiESt23_Rb_tree_const_iteratorIiEOT_RT0_
FN:2572,_ZNKSt8_Rb_treeIiiSt9_IdentityIiESt4lessIiESaIiEE4findERKi
FNDA:2673,_ZNKSt8_Rb_treeIiiSt9_IdentityIiESt4lessIiESaIiEE4findERKi
DA:112,0
DA:114,0
DA:115,0
DA:126,0
DA:128,0
DA:129,0
DA:146,1875
DA:150,1875
DA:152,0
DA:154,0
DA:160,750
DA:163,750
DA:173,0
DA:174,0
DA:175,0
DA:176,0
DA:177,0
DA:180,750
DA:181,750
DA:182,750
DA:183,0
DA:186,750
DA:187,750
DA:189,750
DA:193,1
DA:195,1
DA:196,1
DA:197,1
DA:198,1
DA:199,1
DA:200,1
DA:202,1
DA:203,1
DA:206,0
DA:208,0
DA:209,0
DA:210,0
DA:211,0
DA:212,0
DA:234,0
DA:235,0
DA:238,0
DA:239,0
DA:273,0
DA:274,0
DA:285,0
DA:287,0
DA:288,0
DA:300,0
DA:302,0
DA:303,0
DA:315,0
DA:316,0
DA:345,0
DA:346,0
DA:348,0
DA:349,0
DA:352,0
DA:353,0
DA:356,0
DA:357,0
DA:364,0
DA:366,0
DA:367,0
DA:394,5346
DA:395,5346
DA:398,0
DA:399,0
DA:454,1618
DA:455,1618
DA:457,1618
DA:459,1232
DA:461,1232
DA:462,31
DA:465,386
DA:466,1618
DA:472,1618
DA:473,1618
DA:480,4480
DA:483,4480
DA:484,4480
DA:486,4068
DA:487,4068
DA:488,4068
DA:491,412
DA:496,4480
DA:498,4480
DA:499,412
DA:501,4068
DA:502,4068
DA:503,4068
DA:505,2898
DA:507,1602
DA:509,1602
DA:511,1255
DA:513,1605
DA:514,350
DA:516,1255
DA:517,29
DA:521,1296
DA:524,1170
DA:526,4068
DA:538,0
DA:539,0
DA:546,0
DA:548,0
DA:566,0
DA:567,0
DA:579,0
DA:580,0
DA:583,0
DA:584,0
DA:609,0
DA:613,0
DA:614,0
DA:624,0
DA:628,0
DA:630,0
DA:631,0
DA:632,0
DA:637,0
DA:642,0
DA:643,0
DA:645,0
DA:648,0
DA:650,0
DA:651,0
DA:652,0
DA:656,0
DA:658,0
DA:659,0
DA:660,0
DA:661,0
DA:662,0
DA:680,1875
DA:684,1875
DA:685,1875
DA:687,0
DA:689,0
DA:690,0
DA:697,750
DA:699,750
DA:700,750
DA:701,750
DA:702,750
DA:725,0
DA:726,0
DA:729,0
DA:730,0
DA:733,0
DA:734,0
DA:741,0
DA:742,0
DA:749,0
DA:750,0
DA:753,0
DA:756,0
DA:760,0
DA:761,0
DA:764,2673
DA:765,2673
DA:772,0
DA:790,0
DA:794,0
DA:795,0
DA:798,0
DA:799,0
DA:802,0
DA:803,0
DA:806,0
DA:807,0
DA:814,0
DA:815,0
DA:818,0
DA:819,0
DA:826,0
DA:827,0
DA:904,0
DA:906,0
DA:907,0
DA:908,0
DA:909,0
DA:910,0
DA:914,0
DA:916,0
DA:917,0
DA:944,1875
DA:951,0
DA:952,0
DA:954,0
DA:955,0
DA:956,0
DA:970,750
DA:999,0
DA:1000,0
DA:1011,0
DA:1012,0
DA:1015,0
DA:1016,0
DA:1019,0
DA:1020,0
DA:1023,0
DA:1024,0
DA:1047,0
DA:1048,0
DA:1736,118
DA:1739,236
DA:1740,118
DA:1741,236
DA:1742,118
DA:1743,118
DA:1802,118
DA:1811,118
DA:1812,236
DA:1815,118
DA:1817,118
DA:1818,118
DA:1819,118
DA:1820,118
DA:1802,0
DA:1811,0
DA:1812,0
DA:1815,0
DA:1817,0
DA:1818,0
DA:1819,0
DA:1820,0
DA:1876,0
DA:1880,0
DA:1881,0
DA:1885,0
DA:1886,0
DA:1887,0
DA:1888,0
DA:1890,0
DA:1892,0
DA:1893,0
DA:1894,0
DA:1895,0
DA:1896,0
DA:1897,0
DA:1898,0
DA:1901,0
DA:1903,0
DA:1904,0
DA:1906,0
DA:1912,0
DA:1916,0
DA:1918,0
DA:1919,0
DA:1920,0
DA:1921,0
DA:1923,0
DA:1945,10406
DA:1949,10406
DA:1950,7733
DA:1951,3043
DA:1953,4690
DA:1954,2673
DA:2090,0
DA:2094,0
DA:2095,0
DA:2096,0
DA:2097,0
DA:2099,0
DA:2100,0
DA:2101,0
DA:2103,0
DA:2104,0
DA:2106,0
DA:2107,0
DA:2109,0
DA:2111,0
DA:2112,0
DA:2113,0
DA:2144,5064
DA:2152,5064
DA:2153,5064
DA:2155,5064
DA:2157,5038
DA:2158,5038
DA:2160,10076
DA:2163,26
DA:2192,0
DA:2196,0
DA:2200,0
DA:2202,0
DA:2203,0
DA:2204,0
DA:2206,0
DA:2208,0
DA:2211,0
DA:2212,0
DA:2213,0
DA:2214,0
DA:2216,0
DA:2217,0
DA:2219,0
DA:2222,0
DA:2224,0
DA:2227,0
DA:2228,0
DA:2229,0
DA:2230,0
DA:2232,0
DA:2233,0
DA:2235,0
DA:2238,0
DA:2242,0
DA:2253,118
DA:2262,118
DA:2263,118
DA:2265,118
DA:2268,118
DA:2269,0
DA:2572,2673
DA:2575,2673
DA:2576,5346
DA:2577,1771
DA:2578,7117
end_of_record
SF:/usr/include/c++/9/utility
FN:174,_ZNSt10__pair_getILm0EE5__getIK11NonTerminalSt6vectorIS4_IiSaIiEESaIS6_EEEERT_RSt4pairIS9_T0_E
FNDA:0,_ZNSt10__pair_getILm0EE5__getIK11NonTerminalSt6vectorIS4_IiSaIiEESaIS6_EEEERT_RSt4pairIS9_T0_E
FN:174,_ZNSt10__pair_getILm0EE5__getIKiSt3setIiSt4lessIiESaIiEEEERT_RSt4pairIS8_T0_E
FNDA:0,_ZNSt10__pair_getILm0EE5__getIKiSt3setIiSt4lessIiESaIiEEEERT_RSt4pairIS8_T0_E
FN:184,_ZNSt10__pair_getILm0EE11__const_getIKiSt3setIiSt4lessIiESaIiEEEERKT_RKSt4pairIS8_T0_E
FNDA:0,_ZNSt10__pair_getILm0EE11__const_getIKiSt3setIiSt4lessIiESaIiEEEERKT_RKSt4pairIS8_T0_E
FN:184,_ZNSt10__pair_getILm0EE11__const_getIK11NonTerminalSt6vectorIS4_IiSaIiEESaIS6_EEEERKT_RKSt4pairIS9_T0_E
FNDA:0,_ZNSt10__pair_getILm0EE11__const_getIK11NonTerminalSt6vectorIS4_IiSaIiEESaIS6_EEEERKT_RKSt4pairIS9_T0_E
FN:219,_ZSt3getILm0EK11NonTerminalSt6vectorIS2_IiSaIiEESaIS4_EEERNSt13tuple_elementIXT_ESt4pairIT0_T1_EE4typeERSB_
FNDA:0,_ZSt3getILm0EK11NonTerminalSt6vectorIS2_IiSaIiEESaIS4_EEERNSt13tuple_elementIXT_ESt4pairIT0_T1_EE4typeERSB_
FN:219,_ZSt3getILm0EKiSt3setIiSt4lessIiESaIiEEERNSt13tuple_elementIXT_ESt4pairIT0_T1_EE4typeERSA_
FNDA:0,_ZSt3getILm0EKiSt3setIiSt4lessIiESaIiEEERNSt13tuple_elementIXT_ESt4pairIT0_T1_EE4typeERSA_
FN:229,_ZSt3getILm0EKiSt3setIiSt4lessIiESaIiEEERKNSt13tuple_elementIXT_ESt4pairIT0_T1_EE4typeERKSA_
FNDA:0,_ZSt3getILm0EKiSt3setIiSt4lessIiESaIiEEERKNSt13tuple_elementIXT_ESt4pairIT0_T1_EE4typeERKSA_
FN:229,_ZSt3getILm0EK11NonTerminalSt6vectorIS2_IiSaIiEESaIS4_EEERKNSt13tuple_elementIXT_ESt4pairIT0_T1_EE4typeERKSB_
FNDA:0,_ZSt3getILm0EK11NonTerminalSt6vectorIS2_IiSaIiEESaIS4_EEERKNSt13tuple_elementIXT_ESt4pairIT0_T1_EE4typeERKSB_
DA:174,0
DA:175,0
DA:174,0
DA:175,0
DA:184,0
DA:185,0
DA:184,0
DA:185,0
DA:219,0
DA:220,0
DA:219,0
DA:220,0
DA:229,0
DA:230,0
DA:229,0
DA:230,0
end_of_record
SF:/usr/include/c++/9/bits/stl_iterator.h
FN:803,_ZN9__gnu_cxx17__normal_iteratorIPKiSt6vectorIiSaIiEEEC2ERKS2_
FNDA:0,_ZN9__gnu_cxx17__normal_iteratorIPKiSt6vectorIiSaIiEEEC2ERKS2_
FN:803,_ZN9__gnu_cxx17__normal_iteratorIPKSt6vectorIiSaIiEES1_IS3_SaIS3_EEEC2ERKS5_
FNDA:0,_ZN9__gnu_cxx17__normal_iteratorIPKSt6vectorIiSaIiEES1_IS3_SaIS3_EEEC2ERKS5_
FN:816,_ZNK9__gnu_cxx17__normal_iteratorIPKSt6vectorIiSaIiEES1_IS3_SaIS3_EEEdeEv
FNDA:0,_ZNK9__gnu_cxx17__normal_iteratorIPKSt6vectorIiSaIiEES1_IS3_SaIS3_EEEdeEv
FN:824,_ZN9__gnu_cxx17__normal_iteratorIPKSt6vectorIiSaIiEES1_IS3_SaIS3_EEEppEv
FNDA:0,_ZN9__gnu_cxx17__normal_iteratorIPKSt6vectorIiSaIiEES1_IS3_SaIS3_EEEppEv
FN:868,_ZNK9__gnu_cxx17__normal_iteratorIPKiSt6vectorIiSaIiEEE4baseEv
FNDA:0,_ZNK9__gnu_cxx17__normal_iteratorIPKiSt6vectorIiSaIiEEE4baseEv
FN:868,_ZNK9__gnu_cxx17__normal_iteratorIPKSt6vectorIiSaIiEES1_IS3_SaIS3_EEE4baseEv
FNDA:0,_ZNK9__gnu_cxx17__normal_iteratorIPKSt6vectorIiSaIiEES1_IS3_SaIS3_EEE4baseEv
FN:904,_ZN9__gnu_cxxneIPKSt6vectorIiSaIiEES1_IS3_SaIS3_EEEEbRKNS_17__normal_iteratorIT_T0_EESD_
FNDA:0,_ZN9__gnu_cxxneIPKSt6vectorIiSaIiEES1_IS3_SaIS3_EEEEbRKNS_17__normal_iteratorIT_T0_EESD_
FN:1007,_ZSt12__niter_baseIPKiSt6vectorIiSaIiEEET_N9__gnu_cxx17__normal_iteratorIS5_T0_EE
FNDA:0,_ZSt12__niter_baseIPKiSt6vectorIiSaIiEEET_N9__gnu_cxx17__normal_iteratorIS5_T0_EE
DA:803,0
DA:804,0
DA:803,0
DA:804,0
DA:816,0
DA:817,0
DA:824,0
DA:826,0
DA:827,0
DA:868,0
DA:869,0
DA:868,0
DA:869,0
DA:904,0
DA:907,0
DA:1007,0
DA:1009,0
end_of_record
SF:/usr/include/c++/9/ext/new_allocator.h
FN:80,_ZN9__gnu_cxx13new_allocatorIiEC2Ev
FNDA:0,_ZN9__gnu_cxx13new_allocatorIiEC2Ev
FN:80,_ZN9__gnu_cxx13new_allocatorISt6vectorIiSaIiEEEC2Ev
FNDA:0,_ZN9__gnu_cxx13new_allocatorISt6vectorIiSaIiEEEC2Ev
FN:80,_ZN9__gnu_cxx13new_allocatorINSt8__detail10_Hash_nodeISt4pairIK11NonTerminalSt6vectorIS6_IiSaIiEESaIS8_EEELb0EEEEC2Ev
FNDA:0,_ZN9__gnu_cxx13new_allocatorINSt8__detail10_Hash_nodeISt4pairIK11NonTerminalSt6vectorIS6_IiSaIiEESaIS8_EEELb0EEEEC2Ev
FN:80,_ZN9__gnu_cxx13new_allocatorISt13_Rb_tree_nodeIiEEC2Ev
FNDA:0,_ZN9__gnu_cxx13new_allocatorISt13_Rb_tree_nodeIiEEC2Ev
FN:80,_ZN9__gnu_cxx13new_allocatorISt4pairIK11NonTerminalSt6vectorIS4_IiSaIiEESaIS6_EEEEC2Ev
FNDA:0,_ZN9__gnu_cxx13new_allocatorISt4pairIK11NonTerminalSt6vectorIS4_IiSaIiEESaIS6_EEEEC2Ev
FN:80,_ZN9__gnu_cxx13new_allocatorIPNSt8__detail15_Hash_node_baseEEC2Ev
FNDA:0,_ZN9__gnu_cxx13new_allocatorIPNSt8__detail15_Hash_node_baseEEC2Ev
FN:83,_ZN9__gnu_cxx13new_allocatorISt6vectorIiSaIiEEEC2ERKS4_
FNDA:0,_ZN9__gnu_cxx13new_allocatorISt6vectorIiSaIiEEEC2ERKS4_
FN:83,_ZN9__gnu_cxx13new_allocatorIiEC2ERKS1_
FNDA:0,_ZN9__gnu_cxx13new_allocatorIiEC2ERKS1_
FN:83,_ZN9__gnu_cxx13new_allocatorISt13_Rb_tree_nodeIiEEC2ERKS3_
FNDA:0,_ZN9__gnu_cxx13new_allocatorISt13_Rb_tree_nodeIiEEC2ERKS3_
FN:83,_ZN9__gnu_cxx13new_allocatorINSt8__detail10_Hash_nodeISt4pairIK11NonTerminalSt6vectorIS6_IiSaIiEESaIS8_EEELb0EEEEC2ERKSD_
FNDA:0,_ZN9__gnu_cxx13new_allocatorINSt8__detail10_Hash_nodeISt4pairIK11NonTerminalSt6vectorIS6_IiSaIiEESaIS8_EEELb0EEEEC2ERKSD_
FN:89,_ZN9__gnu_cxx13new_allocatorISt4pairIK11NonTerminalSt6vectorIS4_IiSaIiEESaIS6_EEEED2Ev
FNDA:0,_ZN9__gnu_cxx13new_allocatorISt4pairIK11NonTerminalSt6vectorIS4_IiSaIiEESaIS6_EEEED2Ev
FN:89,_ZN9__gnu_cxx13new_allocatorINSt8__detail10_Hash_nodeISt4pairIK11NonTerminalSt6vectorIS6_IiSaIiEESaIS8_EEELb0EEEED2Ev
FNDA:0,_ZN9__gnu_cxx13new_allocatorINSt8__detail10_Hash_nodeISt4pairIK11NonTerminalSt6vectorIS6_IiSaIiEESaIS8_EEELb0EEEED2Ev
FN:89,_ZN9__gnu_cxx13new_allocatorISt13_Rb_tree_nodeIiEED2Ev
FNDA:0,_ZN9__gnu_cxx13new_allocatorISt13_Rb_tree_nodeIiEED2Ev
FN:89,_ZN9__gnu_cxx13new_allocatorIPNSt8__detail15_Hash_node_baseEED2Ev
FNDA:0,_ZN9__gnu_cxx13new_allocatorIPNSt8__detail15_Hash_node_baseEED2Ev
FN:89,_ZN9__gnu_cxx13new_allocatorISt6vectorIiSaIiEEED2Ev
FNDA:0,_ZN9__gnu_cxx13new_allocatorISt6vectorIiSaIiEEED2Ev
FN:89,_ZN9__gnu_cxx13new_allocatorIiED2Ev
FNDA:0,_ZN9__gnu_cxx13new_allocatorIiED2Ev
FN:102,_ZN9__gnu_cxx13new_allocatorIPNSt8__detail15_Hash_node_baseEE8allocateEmPKv
FNDA:0,_ZN9__gnu_cxx13new_allocatorIPNSt8__detail15_Hash_node_baseEE8allocateEmPKv
FN:102,_ZN9__gnu_cxx13new_allocatorISt13_Rb_tree_nodeIiEE8allocateEmPKv
FNDA:0,_ZN9__gnu_cxx13new_allocatorISt13_Rb_tree_nodeIiEE8allocateEmPKv
FN:102,_ZN9__gnu_cxx13new_allocatorINSt8__detail10_Hash_nodeISt4pairIK11NonTerminalSt6vectorIS6_IiSaIiEESaIS8_EEELb0EEEE8allocateEmPKv
FNDA:0,_ZN9__gnu_cxx13new_allocatorINSt8__detail10_Hash_nodeISt4pairIK11NonTerminalSt6vectorIS6_IiSaIiEESaIS8_EEELb0EEEE8allocateEmPKv
FN:102,_ZN9__gnu_cxx13new_allocatorINSt8__detail10_Hash_nodeISt4pairIKiSt3setIiSt4lessIiESaIiEEELb0EEEE8allocateEmPKv
FNDA:375,_ZN9__gnu_cxx13new_allocatorINSt8__detail10_Hash_nodeISt4pairIKiSt3setIiSt4lessIiESaIiEEELb0EEEE8allocateEmPKv
FN:102,_ZN9__gnu_cxx13new_allocatorISt6vectorIiSaIiEEE8allocateEmPKv
FNDA:0,_ZN9__gnu_cxx13new_allocatorISt6vectorIiSaIiEEE8allocateEmPKv
FN:102,_ZN9__gnu_cxx13new_allocatorIiE8allocateEmPKv
FNDA:0,_ZN9__gnu_cxx13new_allocatorIiE8allocateEmPKv
FN:119,_ZN9__gnu_cxx13new_allocatorIPNSt8__detail15_Hash_node_baseEE10deallocateEPS3_m
FNDA:0,_ZN9__gnu_cxx13new_allocatorIPNSt8__detail15_Hash_node_baseEE10deallocateEPS3_m
FN:119,_ZN9__gnu_cxx13new_allocatorISt13_Rb_tree_nodeIiEE10deallocateEPS2_m
FNDA:0,_ZN9__gnu_cxx13new_allocatorISt13_Rb_tree_nodeIiEE10deallocateEPS2_m
FN:119,_ZN9__gnu_cxx13new_allocatorINSt8__detail10_Hash_nodeISt4pairIK11NonTerminalSt6vectorIS6_IiSaIiEESaIS8_EEELb0EEEE10deallocateEPSC_m
FNDA:0,_ZN9__gnu_cxx13new_allocatorINSt8__detail10_Hash_nodeISt4pairIK11NonTerminalSt6vectorIS6_IiSaIiEESaIS8_EEELb0EEEE10deallocateEPSC_m
FN:119,_ZN9__gnu_cxx13new_allocatorINSt8__detail10_Hash_nodeISt4pairIKiSt3setIiSt4lessIiESaIiEEELb0EEEE10deallocateEPSB_m
FNDA:375,_ZN9__gnu_cxx13new_allocatorINSt8__detail10_Hash_nodeISt4pairIKiSt3setIiSt4lessIiESaIiEEELb0EEEE10deallocateEPSB_m
FN:119,_ZN9__gnu_cxx13new_allocatorIiE10deallocateEPim
FNDA:0,_ZN9__gnu_cxx13new_allocatorIiE10deallocateEPim
FN:119,_ZN9__gnu_cxx13new_allocatorISt6vectorIiSaIiEEE10deallocateEPS3_m
FNDA:0,_ZN9__gnu_cxx13new_allocatorISt6vectorIiSaIiEEE10deallocateEPS3_m
FN:132,_ZNK9__gnu_cxx13new_allocatorISt6vectorIiSaIiEEE8max_sizeEv
FNDA:0,_ZNK9__gnu_cxx13new_allocatorISt6vectorIiSaIiEEE8max_sizeEv
FN:132,_ZNK9__gnu_cxx13new_allocatorIiE8max_sizeEv
FNDA:0,_ZNK9__gnu_cxx13new_allocatorIiE8max_sizeEv
FN:132,_ZNK9__gnu_cxx13new_allocatorINSt8__detail10_Hash_nodeISt4pairIK11NonTerminalSt6vectorIS6_IiSaIiEESaIS8_EEELb0EEEE8max_sizeEv
FNDA:0,_ZNK9__gnu_cxx13new_allocatorINSt8__detail10_Hash_nodeISt4pairIK11NonTerminalSt6vectorIS6_IiSaIiEESaIS8_EEELb0EEEE8max_sizeEv
FN:132,_ZNK9__gnu_cxx13new_allocatorINSt8__detail10_Hash_nodeISt4pairIKiSt3setIiSt4lessIiESaIiEEELb0EEEE8max_sizeEv
FNDA:375,_ZNK9__gnu_cxx13new_allocatorINSt8__detail10_Hash_nodeISt4pairIKiSt3setIiSt4lessIiESaIiEEELb0EEEE8max_sizeEv
FN:132,_ZNK9__gnu_cxx13new_allocatorIPNSt8__detail15_Hash_node_baseEE8max_sizeEv
FNDA:0,_ZNK9__gnu_cxx13new_allocatorIPNSt8__detail15_Hash_node_baseEE8max_sizeEv
FN:132,_ZNK9__gnu_cxx13new_allocatorISt13_Rb_tree_nodeIiEE8max_sizeEv
FNDA:0,_ZNK9__gnu_cxx13new_allocatorISt13_Rb_tree_nodeIiEE8max_sizeEv
FN:144,_ZN9__gnu_cxx13new_allocatorINSt8__detail10_Hash_nodeISt4pairIKiSt3setIiSt4lessIiESaIiEEELb0EEEE9constructISA_JRKSt21piecewise_construct_tSt5tupleIJRS4_EESH_IJEEEEEvPT_DpOT0_
FNDA:0,_ZN9__gnu_cxx13new_allocatorINSt8__detail10_Hash_nodeISt4pairIKiSt3setIiSt4lessIiESaIiEEELb0EEEE9constructISA_JRKSt21piecewise_construct_tSt5tupleIJRS4_EESH_IJEEEEEvPT_DpOT0_
FN:144,_ZN9__gnu_cxx13new_allocatorINSt8__detail10_Hash_nodeISt4pairIKiSt3setIiSt4lessIiESaIiEEELb0EEEE9constructISA_JS3_IiS9_EEEEvPT_DpOT0_
FNDA:375,_ZN9__gnu_cxx13new_allocatorINSt8__detail10_Hash_nodeISt4pairIKiSt3setIiSt4lessIiESaIiEEELb0EEEE9constructISA_JS3_IiS9_EEEEvPT_DpOT0_
FN:144,_ZN9__gnu_cxx13new_allocatorISt13_Rb_tree_nodeIiEE9constructIiJRKiEEEvPT_DpOT0_
FNDA:0,_ZN9__gnu_cxx13new_allocatorISt13_Rb_tree_nodeIiEE9constructIiJRKiEEEvPT_DpOT0_
FN:144,_ZN9__gnu_cxx13new_allocatorINSt8__detail10_Hash_nodeISt4pairIK11NonTerminalSt6vectorIS6_IiSaIiEESaIS8_EEELb0EEEE9constructISB_JRKSB_EEEvPT_DpOT0_
FNDA:0,_ZN9__gnu_cxx13new_allocatorINSt8__detail10_Hash_nodeISt4pairIK11NonTerminalSt6vectorIS6_IiSaIiEESaIS8_EEELb0EEEE9constructISB_JRKSB_EEEvPT_DpOT0_
FN:150,_ZN9__gnu_cxx13new_allocatorISt13_Rb_tree_nodeIiEE7destroyIiEEvPT_
FNDA:0,_ZN9__gnu_cxx13new_allocatorISt13_Rb_tree_nodeIiEE7destroyIiEEvPT_
FN:150,_ZN9__gnu_cxx13new_allocatorINSt8__detail10_Hash_nodeISt4pairIKiSt3setIiSt4lessIiESaIiEEELb0EEEE7destroyISA_EEvPT_
FNDA:375,_ZN9__gnu_cxx13new_allocatorINSt8__detail10_Hash_nodeISt4pairIKiSt3setIiSt4lessIiESaIiEEELb0EEEE7destroyISA_EEvPT_
FN:150,_ZN9__gnu_cxx13new_allocatorINSt8__detail10_Hash_nodeISt4pairIK11NonTerminalSt6vectorIS6_IiSaIiEESaIS8_EEELb0EEEE7destroyISB_EEvPT_
FNDA:0,_ZN9__gnu_cxx13new_allocatorINSt8__detail10_Hash_nodeISt4pairIK11NonTerminalSt6vectorIS6_IiSaIiEESaIS8_EEELb0EEEE7destroyISB_EEvPT_
DA:80,0
DA:80,0
DA:80,0
DA:80,0
DA:80,0
DA:80,0
DA:83,0
DA:83,0
DA:83,0
DA:83,0
DA:89,0
DA:89,0
DA:89,0
DA:89,0
DA:89,0
DA:89,0
DA:102,0
DA:104,0
DA:105,0
DA:114,0
DA:102,0
DA:104,0
DA:105,0
DA:114,0
DA:102,0
DA:104,0
DA:105,0
DA:114,0
DA:102,375
DA:104,375
DA:105,0
DA:114,375
DA:102,0
DA:104,0
DA:105,0
DA:114,0
DA:102,0
DA:104,0
DA:105,0
DA:114,0
DA:119,0
DA:128,0
DA:129,0
DA:119,0
DA:128,0
DA:129,0
DA:119,0
DA:128,0
DA:129,0
DA:119,375
DA:128,375
DA:129,375
DA:119,0
DA:128,0
DA:129,0
DA:119,0
DA:128,0
DA:129,0
DA:132,0
DA:135,0
DA:132,0
DA:135,0
DA:132,0
DA:135,0
DA:132,375
DA:135,375
DA:132,0
DA:135,0
DA:132,0
DA:135,0
DA:144,0
DA:146,0
DA:144,0
DA:146,0
DA:144,375
DA:146,375
DA:144,0
DA:146,0
DA:150,0
DA:152,0
DA:150,375
DA:152,375
DA:150,0
DA:152,0
end_of_record
SF:/usr/include/c++/9/bits/hashtable.h
FN:342,_ZNKSt10_HashtableIiSt4pairIKiSt3setIiSt4lessIiESaIiEEESaIS7_ENSt8__detail10_Select1stESt8equal_toIiESt4hashIiENS9_18_Mod_range_hashingENS9_20_Default_ranged_hashENS9_20_Prime_rehash_policyENS9_17_Hashtable_traitsILb0ELb0ELb1EEEE21_M_uses_single_bucketEPPNS9_15_Hash_node_baseE
FNDA:10,_ZNKSt10_HashtableIiSt4pairIKiSt3setIiSt4lessIiESaIiEEESaIS7_ENSt8__detail10_Select1stESt8equal_toIiESt4hashIiENS9_18_Mod_range_hashingENS9_20_Default_ranged_hashENS9_20_Prime_rehash_policyENS9_17_Hashtable_traitsILb0ELb0ELb1EEEE21_M_uses_single_bucketEPPNS9_15_Hash_node_baseE
FN:342,_ZNKSt10_HashtableI11NonTerminalSt4pairIKS0_St6vectorIS3_IiSaIiEESaIS5_EEESaIS8_ENSt8__detail10_Select1stESt8equal_toIS0_ESt4hashIS0_ENSA_18_Mod_range_hashingENSA_20_Default_ranged_hashENSA_20_Prime_rehash_policyENSA_17_Hashtable_traitsILb0ELb0ELb1EEEE21_M_uses_single_bucketEPPNSA_15_Hash_node_baseE
FNDA:0,_ZNKSt10_HashtableI11NonTerminalSt4pairIKS0_St6vectorIS3_IiSaIiEESaIS5_EEESaIS8_ENSt8__detail10_Select1stESt8equal_toIS0_ESt4hashIS0_ENSA_18_Mod_range_hashingENSA_20_Default_ranged_hashENSA_20_Prime_rehash_policyENSA_17_Hashtable_traitsILb0ELb0ELb1EEEE21_M_uses_single_bucketEPPNSA_15_Hash_node_baseE
FN:353,_ZNSt10_HashtableI11NonTerminalSt4pairIKS0_St6vectorIS3_IiSaIiEESaIS5_EEESaIS8_ENSt8__detail10_Select1stESt8equal_toIS0_ESt4hashIS0_ENSA_18_Mod_range_hashingENSA_20_Default_ranged_hashENSA_20_Prime_rehash_policyENSA_17_Hashtable_traitsILb0ELb0ELb1EEEE19_M_allocate_bucketsEm
FNDA:0,_ZNSt10_HashtableI11NonTerminalSt4pairIKS0_St6vectorIS3_IiSaIiEESaIS5_EEESaIS8_ENSt8__detail10_Select1stESt8equal_toIS0_ESt4hashIS0_ENSA_18_Mod_range_hashingENSA_20_Default_ranged_hashENSA_20_Prime_rehash_policyENSA_17_Hashtable_traitsILb0ELb0ELb1EEEE19_M_allocate_bucketsEm
FN:353,_ZNSt10_HashtableIiSt4pairIKiSt3setIiSt4lessIiESaIiEEESaIS7_ENSt8__detail10_Select1stESt8equal_toIiESt4hashIiENS9_18_Mod_range_hashingENS9_20_Default_ranged_hashENS9_20_Prime_rehash_policyENS9_17_Hashtable_traitsILb0ELb0ELb1EEEE19_M_allocate_bucketsEm
FNDA:8,_ZNSt10_HashtableIiSt4pairIKiSt3setIiSt4lessIiESaIiEEESaIS7_ENSt8__detail10_Select1stESt8equal_toIiESt4hashIiENS9_18_Mod_range_hashingENS9_20_Default_ranged_hashENS9_20_Prime_rehash_policyENS9_17_Hashtable_traitsILb0ELb0ELb1EEEE19_M_allocate_bucketsEm
FN:365,_ZNSt10_HashtableIiSt4pairIKiSt3setIiSt4lessIiESaIiEEESaIS7_ENSt8__detail10_Select1stESt8equal_toIiESt4hashIiENS9_18_Mod_range_hashingENS9_20_Default_ranged_hashENS9_20_Prime_rehash_policyENS9_17_Hashtable_traitsILb0ELb0ELb1EEEE21_M_deallocate_bucketsEPPNS9_15_Hash_node_baseEm
FNDA:10,_ZNSt10_HashtableIiSt4pairIKiSt3setIiSt4lessIiESaIiEEESaIS7_ENSt8__detail10_Select1stESt8equal_toIiESt4hashIiENS9_18_Mod_range_hashingENS9_20_Default_ranged_hashENS9_20_Prime_rehash_policyENS9_17_Hashtable_traitsILb0ELb0ELb1EEEE21_M_deallocate_bucketsEPPNS9_15_Hash_node_baseEm
FN:365,_ZNSt10_HashtableI11NonTerminalSt4pairIKS0_St6vectorIS3_IiSaIiEESaIS5_EEESaIS8_ENSt8__detail10_Select1stESt8equal_toIS0_ESt4hashIS0_ENSA_18_Mod_range_hashingENSA_20_Default_ranged_hashENSA_20_Prime_rehash_policyENSA_17_Hashtable_traitsILb0ELb0ELb1EEEE21_M_deallocate_bucketsEPPNSA_15_Hash_node_baseEm
FNDA:0,_ZNSt10_HashtableI11NonTerminalSt4pairIKS0_St6vectorIS3_IiSaIiEESaIS5_EEESaIS8_ENSt8__detail10_Select1stESt8equal_toIS0_ESt4hashIS0_ENSA_18_Mod_range_hashingENSA_20_Default_ranged_hashENSA_20_Prime_rehash_policyENSA_17_Hashtable_traitsILb0ELb0ELb1EEEE21_M_deallocate_bucketsEPPNSA_15_Hash_node_baseEm
FN:374,_ZNSt10_HashtableIiSt4pairIKiSt3setIiSt4lessIiESaIiEEESaIS7_ENSt8__detail10_Select1stESt8equal_toIiESt4hashIiENS9_18_Mod_range_hashingENS9_20_Default_ranged_hashENS9_20_Prime_rehash_policyENS9_17_Hashtable_traitsILb0ELb0ELb1EEEE21_M_deallocate_bucketsEv
FNDA:10,_ZNSt10_HashtableIiSt4pairIKiSt3setIiSt4lessIiESaIiEEESaIS7_ENSt8__detail10_Select1stESt8equal_toIiESt4hashIiENS9_18_Mod_range_hashingENS9_20_Default_ranged_hashENS9_20_Prime_rehash_policyENS9_17_Hashtable_traitsILb0ELb0ELb1EEEE21_M_deallocate_bucketsEv
FN:374,_ZNSt10_HashtableI11NonTerminalSt4pairIKS0_St6vectorIS3_IiSaIiEESaIS5_EEESaIS8_ENSt8__detail10_Select1stESt8equal_toIS0_ESt4hashIS0_ENSA_18_Mod_range_hashingENSA_20_Default_ranged_hashENSA_20_Prime_rehash_policyENSA_17_Hashtable_traitsILb0ELb0ELb1EEEE21_M_deallocate_bucketsEv
FNDA:0,_ZNSt10_HashtableI11NonTerminalSt4pairIKS0_St6vectorIS3_IiSaIiEESaIS5_EEESaIS8_ENSt8__detail10_Select1stESt8equal_toIS0_ESt4hashIS0_ENSA_18_Mod_range_hashingENSA_20_Default_ranged_hashENSA_20_Prime_rehash_policyENSA_17_Hashtable_traitsILb0ELb0ELb1EEEE21_M_deallocate_bucketsEv
FN:383,_ZNKSt10_HashtableI11NonTerminalSt4pairIKS0_St6vectorIS3_IiSaIiEESaIS5_EEESaIS8_ENSt8__detail10_Select1stESt8equal_toIS0_ESt4hashIS0_ENSA_18_Mod_range_hashingENSA_20_Default_ranged_hashENSA_20_Prime_rehash_policyENSA_17_Hashtable_traitsILb0ELb0ELb1EEEE8_M_beginEv
FNDA:0,_ZNKSt10_HashtableI11NonTerminalSt4pairIKS0_St6vectorIS3_IiSaIiEESaIS5_EEESaIS8_ENSt8__detail10_Select1stESt8equal_toIS0_ESt4hashIS0_ENSA_18_Mod_range_hashingENSA_20_Default_ranged_hashENSA_20_Prime_rehash_policyENSA_17_Hashtable_traitsILb0ELb0ELb1EEEE8_M_beginEv
FN:383,_ZNKSt10_HashtableIiSt4pairIKiSt3setIiSt4lessIiESaIiEEESaIS7_ENSt8__detail10_Select1stESt8equal_toIiESt4hashIiENS9_18_Mod_range_hashingENS9_20_Default_ranged_hashENS9_20_Prime_rehash_policyENS9_17_Hashtable_traitsILb0ELb0ELb1EEEE8_M_beginEv
FNDA:22,_ZNKSt10_HashtableIiSt4pairIKiSt3setIiSt4lessIiESaIiEEESaIS7_ENSt8__detail10_Select1stESt8equal_toIiESt4hashIiENS9_18_Mod_range_hashingENS9_20_Default_ranged_hashENS9_20_Prime_rehash_policyENS9_17_Hashtable_traitsILb0ELb0ELb1EEEE8_M_beginEv
FN:405,_ZNSt10_HashtableI11NonTerminalSt4pairIKS0_St6vectorIS3_IiSaIiEESaIS5_EEESaIS8_ENSt8__detail10_Select1stESt8equal_toIS0_ESt4hashIS0_ENSA_18_Mod_range_hashingENSA_20_Default_ranged_hashENSA_20_Prime_rehash_policyENSA_17_Hashtable_traitsILb0ELb0ELb1EEEEC2ERKSF_RKSG_RKSH_RKSD_RKSB_RKS9_
FNDA:0,_ZNSt10_HashtableI11NonTerminalSt4pairIKS0_St6vectorIS3_IiSaIiEESaIS5_EEESaIS8_ENSt8__detail10_Select1stESt8equal_toIS0_ESt4hashIS0_ENSA_18_Mod_range_hashingENSA_20_Default_ranged_hashENSA_20_Prime_rehash_policyENSA_17_Hashtable_traitsILb0ELb0ELb1EEEEC2ERKSF_RKSG_RKSH_RKSD_RKSB_RKS9_
FN:492,_ZNSt10_HashtableI11NonTerminalSt4pairIKS0_St6vectorIS3_IiSaIiEESaIS5_EEESaIS8_ENSt8__detail10_Select1stESt8equal_toIS0_ESt4hashIS0_ENSA_18_Mod_range_hashingENSA_20_Default_ranged_hashENSA_20_Prime_rehash_policyENSA_17_Hashtable_traitsILb0ELb0ELb1EEEEC2ESt16initializer_listIS8_EmRKSF_RKSD_RKS9_
FNDA:0,_ZNSt10_HashtableI11NonTerminalSt4pairIKS0_St6vectorIS3_IiSaIiEESaIS5_EEESaIS8_ENSt8__detail10_Select1stESt8equal_toIS0_ESt4hashIS0_ENSA_18_Mod_range_hashingENSA_20_Default_ranged_hashENSA_20_Prime_rehash_policyENSA_17_Hashtable_traitsILb0ELb0ELb1EEEEC2ESt16initializer_listIS8_EmRKSF_RKSD_RKS9_
FN:671,_ZNKSt10_HashtableIiSt4pairIKiSt3setIiSt4lessIiESaIiEEESaIS7_ENSt8__detail10_Select1stESt8equal_toIiESt4hashIiENS9_18_Mod_range_hashingENS9_20_Default_ranged_hashENS9_20_Prime_rehash_policyENS9_17_Hashtable_traitsILb0ELb0ELb1EEEE15_M_bucket_indexEPNS9_10_Hash_nodeIS7_Lb0EEE
FNDA:0,_ZNKSt10_HashtableIiSt4pairIKiSt3setIiSt4lessIiESaIiEEESaIS7_ENSt8__detail10_Select1stESt8equal_toIiESt4hashIiENS9_18_Mod_range_hashingENS9_20_Default_ranged_hashENS9_20_Prime_rehash_policyENS9_17_Hashtable_traitsILb0ELb0ELb1EEEE15_M_bucket_indexEPNS9_10_Hash_nodeIS7_Lb0EEE
FN:671,_ZNKSt10_HashtableI11NonTerminalSt4pairIKS0_St6vectorIS3_IiSaIiEESaIS5_EEESaIS8_ENSt8__detail10_Select1stESt8equal_toIS0_ESt4hashIS0_ENSA_18_Mod_range_hashingENSA_20_Default_ranged_hashENSA_20_Prime_rehash_policyENSA_17_Hashtable_traitsILb0ELb0ELb1EEEE15_M_bucket_indexEPNSA_10_Hash_nodeIS8_Lb0EEE
FNDA:0,_ZNKSt10_HashtableI11NonTerminalSt4pairIKS0_St6vectorIS3_IiSaIiEESaIS5_EEESaIS8_ENSt8__detail10_Select1stESt8equal_toIS0_ESt4hashIS0_ENSA_18_Mod_range_hashingENSA_20_Default_ranged_hashENSA_20_Prime_rehash_policyENSA_17_Hashtable_traitsILb0ELb0ELb1EEEE15_M_bucket_indexEPNSA_10_Hash_nodeIS8_Lb0EEE
FN:675,_ZNKSt10_HashtableI11NonTerminalSt4pairIKS0_St6vectorIS3_IiSaIiEESaIS5_EEESaIS8_ENSt8__detail10_Select1stESt8equal_toIS0_ESt4hashIS0_ENSA_18_Mod_range_hashingENSA_20_Default_ranged_hashENSA_20_Prime_rehash_policyENSA_17_Hashtable_traitsILb0ELb0ELb1EEEE15_M_bucket_indexERS2_m
FNDA:0,_ZNKSt10_HashtableI11NonTerminalSt4pairIKS0_St6vectorIS3_IiSaIiEESaIS5_EEESaIS8_ENSt8__detail10_Select1stESt8equal_toIS0_ESt4hashIS0_ENSA_18_Mod_range_hashingENSA_20_Default_ranged_hashENSA_20_Prime_rehash_policyENSA_17_Hashtable_traitsILb0ELb0ELb1EEEE15_M_bucket_indexERS2_m
FN:675,_ZNKSt10_HashtableIiSt4pairIKiSt3setIiSt4lessIiESaIiEEESaIS7_ENSt8__detail10_Select1stESt8equal_toIiESt4hashIiENS9_18_Mod_range_hashingENS9_20_Default_ranged_hashENS9_20_Prime_rehash_policyENS9_17_Hashtable_traitsILb0ELb0ELb1EEEE15_M_bucket_indexERS1_m
FNDA:0,_ZNKSt10_HashtableIiSt4pairIKiSt3setIiSt4lessIiESaIiEEESaIS7_ENSt8__detail10_Select1stESt8equal_toIiESt4hashIiENS9_18_Mod_range_hashingENS9_20_Default_ranged_hashENS9_20_Prime_rehash_policyENS9_17_Hashtable_traitsILb0ELb0ELb1EEEE15_M_bucket_indexERS1_m
FN:684,_ZNKSt10_HashtableI11NonTerminalSt4pairIKS0_St6vectorIS3_IiSaIiEESaIS5_EEESaIS8_ENSt8__detail10_Select1stESt8equal_toIS0_ESt4hashIS0_ENSA_18_Mod_range_hashingENSA_20_Default_ranged_hashENSA_20_Prime_rehash_policyENSA_17_Hashtable_traitsILb0ELb0ELb1EEEE12_M_find_nodeEmRS2_m
FNDA:0,_ZNKSt10_HashtableI11NonTerminalSt4pairIKS0_St6vectorIS3_IiSaIiEESaIS5_EEESaIS8_ENSt8__detail10_Select1stESt8equal_toIS0_ESt4hashIS0_ENSA_18_Mod_range_hashingENSA_20_Default_ranged_hashENSA_20_Prime_rehash_policyENSA_17_Hashtable_traitsILb0ELb0ELb1EEEE12_M_find_nodeEmRS2_m
FN:684,_ZNKSt10_HashtableIiSt4pairIKiSt3setIiSt4lessIiESaIiEEESaIS7_ENSt8__detail10_Select1stESt8equal_toIiESt4hashIiENS9_18_Mod_range_hashingENS9_20_Default_ranged_hashENS9_20_Prime_rehash_policyENS9_17_Hashtable_traitsILb0ELb0ELb1EEEE12_M_find_nodeEmRS1_m
FNDA:0,_ZNKSt10_HashtableIiSt4pairIKiSt3setIiSt4lessIiESaIiEEESaIS7_ENSt8__detail10_Select1stESt8equal_toIiESt4hashIiENS9_18_Mod_range_hashingENS9_20_Default_ranged_hashENS9_20_Prime_rehash_policyENS9_17_Hashtable_traitsILb0ELb0ELb1EEEE12_M_find_nodeEmRS1_m
FN:780,_ZNSt10_HashtableIiSt4pairIKiSt3setIiSt4lessIiESaIiEEESaIS7_ENSt8__detail10_Select1stESt8equal_toIiESt4hashIiENS9_18_Mod_range_hashingENS9_20_Default_ranged_hashENS9_20_Prime_rehash_policyENS9_17_Hashtable_traitsILb0ELb0ELb1EEEE7emplaceIJS0_IiS6_EEEES0_INS9_14_Node_iteratorIS7_Lb0ELb0EEEbEDpOT_
FNDA:375,_ZNSt10_HashtableIiSt4pairIKiSt3setIiSt4lessIiESaIiEEESaIS7_ENSt8__detail10_Select1stESt8equal_toIiESt4hashIiENS9_18_Mod_range_hashingENS9_20_Default_ranged_hashENS9_20_Prime_rehash_policyENS9_17_Hashtable_traitsILb0ELb0ELb1EEEE7emplaceIJS0_IiS6_EEEES0_INS9_14_Node_iteratorIS7_Lb0ELb0EEEbEDpOT_
FN:1004,_ZNSt10_HashtableI11NonTerminalSt4pairIKS0_St6vectorIS3_IiSaIiEESaIS5_EEESaIS8_ENSt8__detail10_Select1stESt8equal_toIS0_ESt4hashIS0_ENSA_18_Mod_range_hashingENSA_20_Default_ranged_hashENSA_20_Prime_rehash_policyENSA_17_Hashtable_traitsILb0ELb0ELb1EEEEC2IPKS8_EET_SP_mRKSF_RKSG_RKSH_RKSD_RKSB_RKS9_
FNDA:0,_ZNSt10_HashtableI11NonTerminalSt4pairIKS0_St6vectorIS3_IiSaIiEESaIS5_EEESaIS8_ENSt8__detail10_Select1stESt8equal_toIS0_ESt4hashIS0_ENSA_18_Mod_range_hashingENSA_20_Default_ranged_hashENSA_20_Prime_rehash_policyENSA_17_Hashtable_traitsILb0ELb0ELb1EEEEC2IPKS8_EET_SP_mRKSF_RKSG_RKSH_RKSD_RKSB_RKS9_
FN:1383,_ZNSt10_HashtableI11NonTerminalSt4pairIKS0_St6vectorIS3_IiSaIiEESaIS5_EEESaIS8_ENSt8__detail10_Select1stESt8equal_toIS0_ESt4hashIS0_ENSA_18_Mod_range_hashingENSA_20_Default_ranged_hashENSA_20_Prime_rehash_policyENSA_17_Hashtable_traitsILb0ELb0ELb1EEEED2Ev
FNDA:0,_ZNSt10_HashtableI11NonTerminalSt4pairIKS0_St6vectorIS3_IiSaIiEESaIS5_EEESaIS8_ENSt8__detail10_Select1stESt8equal_toIS0_ESt4hashIS0_ENSA_18_Mod_range_hashingENSA_20_Default_ranged_hashENSA_20_Prime_rehash_policyENSA_17_Hashtable_traitsILb0ELb0ELb1EEEED2Ev
FN:1567,_ZNKSt10_HashtableI11NonTerminalSt4pairIKS0_St6vectorIS3_IiSaIiEESaIS5_EEESaIS8_ENSt8__detail10_Select1stESt8equal_toIS0_ESt4hashIS0_ENSA_18_Mod_range_hashingENSA_20_Default_ranged_hashENSA_20_Prime_rehash_policyENSA_17_Hashtable_traitsILb0ELb0ELb1EEEE19_M_find_before_nodeEmRS2_m
FNDA:0,_ZNKSt10_HashtableI11NonTerminalSt4pairIKS0_St6vectorIS3_IiSaIiEESaIS5_EEESaIS8_ENSt8__detail10_Select1stESt8equal_toIS0_ESt4hashIS0_ENSA_18_Mod_range_hashingENSA_20_Default_ranged_hashENSA_20_Prime_rehash_policyENSA_17_Hashtable_traitsILb0ELb0ELb1EEEE19_M_find_before_nodeEmRS2_m
FN:1567,_ZNKSt10_HashtableIiSt4pairIKiSt3setIiSt4lessIiESaIiEEESaIS7_ENSt8__detail10_Select1stESt8equal_toIiESt4hashIiENS9_18_Mod_range_hashingENS9_20_Default_ranged_hashENS9_20_Prime_rehash_policyENS9_17_Hashtable_traitsILb0ELb0ELb1EEEE19_M_find_before_nodeEmRS1_m
FNDA:0,_ZNKSt10_HashtableIiSt4pairIKiSt3setIiSt4lessIiESaIiEEESaIS7_ENSt8__detail10_Select1stESt8equal_toIiESt4hashIiENS9_18_Mod_range_hashingENS9_20_Default_ranged_hashENS9_20_Prime_rehash_policyENS9_17_Hashtable_traitsILb0ELb0ELb1EEEE19_M_find_before_nodeEmRS1_m
FN:1595,_ZNSt10_HashtableIiSt4pairIKiSt3setIiSt4lessIiESaIiEEESaIS7_ENSt8__detail10_Select1stESt8equal_toIiESt4hashIiENS9_18_Mod_range_hashingENS9_20_Default_ranged_hashENS9_20_Prime_rehash_policyENS9_17_Hashtable_traitsILb0ELb0ELb1EEEE22_M_insert_bucket_beginEmPNS9_10_Hash_nodeIS7_Lb0EEE
FNDA:250,_ZNSt10_HashtableIiSt4pairIKiSt3setIiSt4lessIiESaIiEEESaIS7_ENSt8__detail10_Select1stESt8equal_toIiESt4hashIiENS9_18_Mod_range_hashingENS9_20_Default_ranged_hashENS9_20_Prime_rehash_policyENS9_17_Hashtable_traitsILb0ELb0ELb1EEEE22_M_insert_bucket_beginEmPNS9_10_Hash_nodeIS7_Lb0EEE
FN:1595,_ZNSt10_HashtableI11NonTerminalSt4pairIKS0_St6vectorIS3_IiSaIiEESaIS5_EEESaIS8_ENSt8__detail10_Select1stESt8equal_toIS0_ESt4hashIS0_ENSA_18_Mod_range_hashingENSA_20_Default_ranged_hashENSA_20_Prime_rehash_policyENSA_17_Hashtable_traitsILb0ELb0ELb1EEEE22_M_insert_bucket_beginEmPNSA_10_Hash_nodeIS8_Lb0EEE
FNDA:0,_ZNSt10_HashtableI11NonTerminalSt4pairIKS0_St6vectorIS3_IiSaIiEESaIS5_EEESaIS8_ENSt8__detail10_Select1stESt8equal_toIS0_ESt4hashIS0_ENSA_18_Mod_range_hashingENSA_20_Default_ranged_hashENSA_20_Prime_rehash_policyENSA_17_Hashtable_traitsILb0ELb0ELb1EEEE22_M_insert_bucket_beginEmPNSA_10_Hash_nodeIS8_Lb0EEE
FN:1667,_ZNSt10_HashtableIiSt4pairIKiSt3setIiSt4lessIiESaIiEEESaIS7_ENSt8__detail10_Select1stESt8equal_toIiESt4hashIiENS9_18_Mod_range_hashingENS9_20_Default_ranged_hashENS9_20_Prime_rehash_policyENS9_17_Hashtable_traitsILb0ELb0ELb1EEEE10_M_emplaceIJS0_IiS6_EEEES0_INS9_14_Node_iteratorIS7_Lb0ELb0EEEbESt17integral_constantIbLb1EEDpOT_
FNDA:375,_ZNSt10_HashtableIiSt4pairIKiSt3setIiSt4lessIiESaIiEEESaIS7_ENSt8__detail10_Select1stESt8equal_toIiESt4hashIiENS9_18_Mod_range_hashingENS9_20_Default_ranged_hashENS9_20_Prime_rehash_policyENS9_17_Hashtable_traitsILb0ELb0ELb1EEEE10_M_emplaceIJS0_IiS6_EEEES0_INS9_14_Node_iteratorIS7_Lb0ELb0EEEbESt17integral_constantIbLb1EEDpOT_
FN:1733,_ZNSt10_HashtableIiSt4pairIKiSt3setIiSt4lessIiESaIiEEESaIS7_ENSt8__detail10_Select1stESt8equal_toIiESt4hashIiENS9_18_Mod_range_hashingENS9_20_Default_ranged_hashENS9_20_Prime_rehash_policyENS9_17_Hashtable_traitsILb0ELb0ELb1EEEE21_M_insert_unique_nodeEmmPNS9_10_Hash_nodeIS7_Lb0EEEm
FNDA:250,_ZNSt10_HashtableIiSt4pairIKiSt3setIiSt4lessIiESaIiEEESaIS7_ENSt8__detail10_Select1stESt8equal_toIiESt4hashIiENS9_18_Mod_range_hashingENS9_20_Default_ranged_hashENS9_20_Prime_rehash_policyENS9_17_Hashtable_traitsILb0ELb0ELb1EEEE21_M_insert_unique_nodeEmmPNS9_10_Hash_nodeIS7_Lb0EEEm
FN:1733,_ZNSt10_HashtableI11NonTerminalSt4pairIKS0_St6vectorIS3_IiSaIiEESaIS5_EEESaIS8_ENSt8__detail10_Select1stESt8equal_toIS0_ESt4hashIS0_ENSA_18_Mod_range_hashingENSA_20_Default_ranged_hashENSA_20_Prime_rehash_policyENSA_17_Hashtable_traitsILb0ELb0ELb1EEEE21_M_insert_unique_nodeEmmPNSA_10_Hash_nodeIS8_Lb0EEEm
FNDA:0,_ZNSt10_HashtableI11NonTerminalSt4pairIKS0_St6vectorIS3_IiSaIiEESaIS5_EEESaIS8_ENSt8__detail10_Select1stESt8equal_toIS0_ESt4hashIS0_ENSA_18_Mod_range_hashingENSA_20_Default_ranged_hashENSA_20_Prime_rehash_policyENSA_17_Hashtable_traitsILb0ELb0ELb1EEEE21_M_insert_unique_nodeEmmPNSA_10_Hash_nodeIS8_Lb0EEEm
FN:1838,_ZNSt10_HashtableI11NonTerminalSt4pairIKS0_St6vectorIS3_IiSaIiEESaIS5_EEESaIS8_ENSt8__detail10_Select1stESt8equal_toIS0_ESt4hashIS0_ENSA_18_Mod_range_hashingENSA_20_Default_ranged_hashENSA_20_Prime_rehash_policyENSA_17_Hashtable_traitsILb0ELb0ELb1EEEE9_M_insertIRKS8_NSA_10_AllocNodeISaINSA_10_Hash_nodeIS8_Lb0EEEEEEEES1_INSA_14_Node_iteratorIS8_Lb0ELb0EEEbEOT_RKT0_St17integral_constantIbLb1EEm
FNDA:0,_ZNSt10_HashtableI11NonTerminalSt4pairIKS0_St6vectorIS3_IiSaIiEESaIS5_EEESaIS8_ENSt8__detail10_Select1stESt8equal_toIS0_ESt4hashIS0_ENSA_18_Mod_range_hashingENSA_20_Default_ranged_hashENSA_20_Prime_rehash_policyENSA_17_Hashtable_traitsILb0ELb0ELb1EEEE9_M_insertIRKS8_NSA_10_AllocNodeISaINSA_10_Hash_nodeIS8_Lb0EEEEEEEES1_INSA_14_Node_iteratorIS8_Lb0ELb0EEEbEOT_RKT0_St17integral_constantIbLb1EEm
FN:2059,_ZNSt10_HashtableI11NonTerminalSt4pairIKS0_St6vectorIS3_IiSaIiEESaIS5_EEESaIS8_ENSt8__detail10_Select1stESt8equal_toIS0_ESt4hashIS0_ENSA_18_Mod_range_hashingENSA_20_Default_ranged_hashENSA_20_Prime_rehash_policyENSA_17_Hashtable_traitsILb0ELb0ELb1EEEE5clearEv
FNDA:0,_ZNSt10_HashtableI11NonTerminalSt4pairIKS0_St6vectorIS3_IiSaIiEESaIS5_EEESaIS8_ENSt8__detail10_Select1stESt8equal_toIS0_ESt4hashIS0_ENSA_18_Mod_range_hashingENSA_20_Default_ranged_hashENSA_20_Prime_rehash_policyENSA_17_Hashtable_traitsILb0ELb0ELb1EEEE5clearEv
FN:2096,_ZNSt10_HashtableIiSt4pairIKiSt3setIiSt4lessIiESaIiEEESaIS7_ENSt8__detail10_Select1stESt8equal_toIiESt4hashIiENS9_18_Mod_range_hashingENS9_20_Default_ranged_hashENS9_20_Prime_rehash_policyENS9_17_Hashtable_traitsILb0ELb0ELb1EEEE9_M_rehashEmRKm
FNDA:8,_ZNSt10_HashtableIiSt4pairIKiSt3setIiSt4lessIiESaIiEEESaIS7_ENSt8__detail10_Select1stESt8equal_toIiESt4hashIiENS9_18_Mod_range_hashingENS9_20_Default_ranged_hashENS9_20_Prime_rehash_policyENS9_17_Hashtable_traitsILb0ELb0ELb1EEEE9_M_rehashEmRKm
FN:2096,_ZNSt10_HashtableI11NonTerminalSt4pairIKS0_St6vectorIS3_IiSaIiEESaIS5_EEESaIS8_ENSt8__detail10_Select1stESt8equal_toIS0_ESt4hashIS0_ENSA_18_Mod_range_hashingENSA_20_Default_ranged_hashENSA_20_Prime_rehash_policyENSA_17_Hashtable_traitsILb0ELb0ELb1EEEE9_M_rehashEmRKm
FNDA:0,_ZNSt10_HashtableI11NonTerminalSt4pairIKS0_St6vectorIS3_IiSaIiEESaIS5_EEESaIS8_ENSt8__detail10_Select1stESt8equal_toIS0_ESt4hashIS0_ENSA_18_Mod_range_hashingENSA_20_Default_ranged_hashENSA_20_Prime_rehash_policyENSA_17_Hashtable_traitsILb0ELb0ELb1EEEE9_M_rehashEmRKm
FN:2119,_ZNSt10_HashtableIiSt4pairIKiSt3setIiSt4lessIiESaIiEEESaIS7_ENSt8__detail10_Select1stESt8equal_toIiESt4hashIiENS9_18_Mod_range_hashingENS9_20_Default_ranged_hashENS9_20_Prime_rehash_policyENS9_17_Hashtable_traitsILb0ELb0ELb1EEEE13_M_rehash_auxEmSt17integral_constantIbLb1EE
FNDA:8,_ZNSt10_HashtableIiSt4pairIKiSt3setIiSt4lessIiESaIiEEESaIS7_ENSt8__detail10_Select1stESt8equal_toIiESt4hashIiENS9_18_Mod_range_hashingENS9_20_Default_ranged_hashENS9_20_Prime_rehash_policyENS9_17_Hashtable_traitsILb0ELb0ELb1EEEE13_M_rehash_auxEmSt17integral_constantIbLb1EE
FN:2119,_ZNSt10_HashtableI11NonTerminalSt4pairIKS0_St6vectorIS3_IiSaIiEESaIS5_EEESaIS8_ENSt8__detail10_Select1stESt8equal_toIS0_ESt4hashIS0_ENSA_18_Mod_range_hashingENSA_20_Default_ranged_hashENSA_20_Prime_rehash_policyENSA_17_Hashtable_traitsILb0ELb0ELb1EEEE13_M_rehash_auxEmSt17integral_constantIbLb1EE
FNDA:0,_ZNSt10_HashtableI11NonTerminalSt4pairIKS0_St6vectorIS3_IiSaIiEESaIS5_EEESaIS8_ENSt8__detail10_Select1stESt8equal_toIS0_ESt4hashIS0_ENSA_18_Mod_range_hashingENSA_20_Default_ranged_hashENSA_20_Prime_rehash_policyENSA_17_Hashtable_traitsILb0ELb0ELb1EEEE13_M_rehash_auxEmSt17integral_constantIbLb1EE
DA:342,10
DA:343,10
DA:342,0
DA:343,0
DA:353,8
DA:355,8
DA:357,0
DA:358,0
DA:361,8
DA:353,0
DA:355,0
DA:357,0
DA:358,0
DA:361,0
DA:365,10
DA:367,10
DA:368,2
DA:370,8
DA:365,0
DA:367,0
DA:368,0
DA:370,0
DA:374,10
DA:375,10
DA:374,0
DA:375,0
DA:383,22
DA:384,22
DA:383,0
DA:384,0
DA:405,0
DA:409,0
DA:410,0
DA:492,0
DA:498,0
DA:499,0
DA:671,0
DA:672,0
DA:671,0
DA:672,0
DA:675,0
DA:676,0
DA:675,0
DA:676,0
DA:684,0
DA:687,0
DA:688,0
DA:689,0
DA:690,0
DA:684,0
DA:687,0
DA:688,0
DA:689,0
DA:690,0
DA:780,375
DA:781,375
DA:1004,0
DA:1011,0
DA:1013,0
DA:1014,0
DA:1016,0
DA:1019,0
DA:1021,0
DA:1022,0
DA:1025,0
DA:1026,0
DA:1027,0
DA:1383,0
DA:1387,0
DA:1388,0
DA:1389,0
DA:1567,0
DA:1573,0
DA:1574,0
DA:1575,0
DA:1577,0
DA:1578,0
DA:1580,0
DA:1581,0
DA:1583,0
DA:1584,0
DA:1585,0
DA:1587,0
DA:1567,0
DA:1573,0
DA:1574,0
DA:1575,0
DA:1577,0
DA:1578,0
DA:1580,0
DA:1581,0
DA:1583,0
DA:1584,0
DA:1585,0
DA:1587,0
DA:1595,0
DA:1599,0
DA:1603,0
DA:1604,0
DA:1611,0
DA:1612,0
DA:1613,0
DA:1616,0
DA:1617,0
DA:1619,0
DA:1595,250
DA:1599,250
DA:1603,0
DA:1604,0
DA:1611,250
DA:1612,250
DA:1613,250
DA:1616,248
DA:1617,250
DA:1619,250
DA:1667,375
DA:1673,375
DA:1674,375
DA:1678,375
DA:1680,0
DA:1682,0
DA:1683,0
DA:1686,375
DA:1687,375
DA:1690,125
DA:1691,125
DA:1695,250
DA:1696,500
DA:1733,0
DA:1739,0
DA:1740,0
DA:1746,0
DA:1748,0
DA:1749,0
DA:1752,0
DA:1755,0
DA:1756,0
DA:1757,0
DA:1759,0
DA:1761,0
DA:1762,0
DA:1733,250
DA:1739,250
DA:1740,250
DA:1746,250
DA:1748,8
DA:1749,8
DA:1752,250
DA:1755,250
DA:1756,250
DA:1757,250
DA:1759,0
DA:1761,0
DA:1762,0
DA:1838,0
DA:1844,0
DA:1845,0
DA:1846,0
DA:1848,0
DA:1849,0
DA:1850,0
DA:1852,0
DA:1853,0
DA:2059,0
DA:2063,0
DA:2064,0
DA:2065,0
DA:2066,0
DA:2067,0
DA:2096,0
DA:2102,0
DA:2104,0
DA:2108,0
DA:2109,0
DA:2111,0
DA:2096,8
DA:2102,8
DA:2104,0
DA:2108,0
DA:2109,0
DA:2111,8
DA:2119,0
DA:2123,0
DA:2124,0
DA:2125,0
DA:2126,0
DA:2127,0
DA:2129,0
DA:2130,0
DA:2131,0
DA:2133,0
DA:2134,0
DA:2135,0
DA:2136,0
DA:2137,0
DA:2138,0
DA:2142,0
DA:2143,0
DA:2145,0
DA:2148,0
DA:2149,0
DA:2150,0
DA:2151,0
DA:2119,8
DA:2123,8
DA:2124,8
DA:2125,8
DA:2126,8
DA:2127,210
DA:2129,202
DA:2130,202
DA:2131,202
DA:2133,202
DA:2134,202
DA:2135,202
DA:2136,202
DA:2137,196
DA:2138,202
DA:2142,0
DA:2143,0
DA:2145,202
DA:2148,8
DA:2149,8
DA:2150,8
DA:2151,8
end_of_record
SF:/usr/include/c++/9/bits/cpp_type_traits.h
FN:428,_ZSt12__miter_baseIN9__gnu_cxx17__normal_iteratorIPKiSt6vectorIiSaIiEEEEET_S8_
FNDA:0,_ZSt12__miter_baseIN9__gnu_cxx17__normal_iteratorIPKiSt6vectorIiSaIiEEEEET_S8_
FN:428,_ZSt12__miter_baseIPKiET_S2_
FNDA:0,_ZSt12__miter_baseIPKiET_S2_
DA:428,0
DA:429,0
DA:428,0
DA:429,0
end_of_record
SF:/usr/include/c++/9/bits/stl_algobase.h
FN:198,_ZSt3minImERKT_S2_S2_
FNDA:0,_ZSt3minImERKT_S2_S2_
FN:222,_ZSt3maxImERKT_S2_S2_
FNDA:0,_ZSt3maxImERKT_S2_S2_
FN:280,_ZSt12__niter_baseIPiET_S1_
FNDA:0,_ZSt12__niter_baseIPiET_S1_
FN:280,_ZSt12__niter_baseIPKiET_S2_
FNDA:0,_ZSt12__niter_baseIPKiET_S2_
FN:295,_ZSt12__niter_wrapIPiET_RKS1_S1_
FNDA:0,_ZSt12__niter_wrapIPiET_RKS1_S1_
FN:375,_ZNSt11__copy_moveILb0ELb1ESt26random_access_iterator_tagE8__copy_mIiEEPT_PKS3_S6_S4_
FNDA:0,_ZNSt11__copy_moveILb0ELb1ESt26random_access_iterator_tagE8__copy_mIiEEPT_PKS3_S6_S4_
FN:393,_ZSt13__copy_move_aILb0EPKiPiET1_T0_S4_S3_
FNDA:0,_ZSt13__copy_move_aILb0EPKiPiET1_T0_S4_S3_
FN:438,_ZSt14__copy_move_a2ILb0EN9__gnu_cxx17__normal_iteratorIPKiSt6vectorIiSaIiEEEEPiET1_T0_SA_S9_
FNDA:0,_ZSt14__copy_move_a2ILb0EN9__gnu_cxx17__normal_iteratorIPKiSt6vectorIiSaIiEEEEPiET1_T0_SA_S9_
FN:438,_ZSt14__copy_move_a2ILb0EPKiPiET1_T0_S4_S3_
FNDA:0,_ZSt14__copy_move_a2ILb0EPKiPiET1_T0_S4_S3_
FN:465,_ZSt4copyIN9__gnu_cxx17__normal_iteratorIPKiSt6vectorIiSaIiEEEEPiET0_T_SA_S9_
FNDA:0,_ZSt4copyIN9__gnu_cxx17__normal_iteratorIPKiSt6vectorIiSaIiEEEEPiET0_T_SA_S9_
FN:465,_ZSt4copyIPKiPiET0_T_S4_S3_
FNDA:0,_ZSt4copyIPKiPiET0_T_S4_S3_
DA:198,0
DA:203,0
DA:204,0
DA:205,0
DA:222,0
DA:227,0
DA:228,0
DA:229,0
DA:280,0
DA:282,0
DA:280,0
DA:282,0
DA:295,0
DA:296,0
DA:375,0
DA:384,0
DA:385,0
DA:386,0
DA:387,0
DA:393,0
DA:398,0
DA:404,0
DA:438,0
DA:440,0
DA:443,0
DA:438,0
DA:440,0
DA:443,0
DA:465,0
DA:474,0
DA:465,0
DA:474,0
end_of_record
SF:/usr/include/c++/9/bits/ptr_traits.h
FN:146,_ZNSt14pointer_traitsIPNSt8__detail10_Hash_nodeISt4pairIK11NonTerminalSt6vectorIS5_IiSaIiEESaIS7_EEELb0EEEE10pointer_toERSB_
FNDA:0,_ZNSt14pointer_traitsIPNSt8__detail10_Hash_nodeISt4pairIK11NonTerminalSt6vectorIS5_IiSaIiEESaIS7_EEELb0EEEE10pointer_toERSB_
FN:146,_ZNSt14pointer_traitsIPNSt8__detail10_Hash_nodeISt4pairIKiSt3setIiSt4lessIiESaIiEEELb0EEEE10pointer_toERSA_
FNDA:375,_ZNSt14pointer_traitsIPNSt8__detail10_Hash_nodeISt4pairIKiSt3setIiSt4lessIiESaIiEEELb0EEEE10pointer_toERSA_
FN:146,_ZNSt14pointer_traitsIPPNSt8__detail15_Hash_node_baseEE10pointer_toERS2_
FNDA:0,_ZNSt14pointer_traitsIPPNSt8__detail15_Hash_node_baseEE10pointer_toERS2_
FN:156,_ZSt12__to_addressINSt8__detail10_Hash_nodeISt4pairIK11NonTerminalSt6vectorIS5_IiSaIiEESaIS7_EEELb0EEEEPT_SD_
FNDA:0,_ZSt12__to_addressINSt8__detail10_Hash_nodeISt4pairIK11NonTerminalSt6vectorIS5_IiSaIiEESaIS7_EEELb0EEEEPT_SD_
FN:156,_ZSt12__to_addressIPNSt8__detail15_Hash_node_baseEEPT_S4_
FNDA:0,_ZSt12__to_addressIPNSt8__detail15_Hash_node_baseEEPT_S4_
FN:156,_ZSt12__to_addressINSt8__detail10_Hash_nodeISt4pairIKiSt3setIiSt4lessIiESaIiEEELb0EEEEPT_SC_
FNDA:375,_ZSt12__to_addressINSt8__detail10_Hash_nodeISt4pairIKiSt3setIiSt4lessIiESaIiEEELb0EEEEPT_SC_
DA:146,0
DA:147,0
DA:146,375
DA:147,375
DA:146,0
DA:147,0
DA:156,0
DA:159,0
DA:156,0
DA:159,0
DA:156,375
DA:159,375
end_of_record
SF:/usr/include/c++/9/bits/unordered_map.h
FN:227,_ZNSt13unordered_mapI11NonTerminalSt6vectorIS1_IiSaIiEESaIS3_EESt4hashIS0_ESt8equal_toIS0_ESaISt4pairIKS0_S5_EEEC2ESt16initializer_listISC_EmRKS7_RKS9_RKSD_
FNDA:0,_ZNSt13unordered_mapI11NonTerminalSt6vectorIS1_IiSaIiEESaIS3_EESt4hashIS0_ESt8equal_toIS0_ESaISt4pairIKS0_S5_EEEC2ESt16initializer_listISC_EmRKS7_RKS9_RKSD_
FN:592,_ZNSt13unordered_mapIiSt3setIiSt4lessIiESaIiEESt4hashIiESt8equal_toIiESaISt4pairIKiS4_EEE6insertIS9_IiS4_EEENSt9enable_ifIXsrSt16is_constructibleISB_JOT_EE5valueES9_INSt8__detail14_Node_iteratorISB_Lb0ELb0EEEbEE4typeESJ_
FNDA:375,_ZNSt13unordered_mapIiSt3setIiSt4lessIiESaIiEESt4hashIiESt8equal_toIiESaISt4pairIKiS4_EEE6insertIS9_IiS4_EEENSt9enable_ifIXsrSt16is_constructibleISB_JOT_EE5valueES9_INSt8__detail14_Node_iteratorISB_Lb0ELb0EEEbEE4typeESJ_
FN:985,_ZNSt13unordered_mapIiSt3setIiSt4lessIiESaIiEESt4hashIiESt8equal_toIiESaISt4pairIKiS4_EEEixERSA_
FNDA:118,_ZNSt13unordered_mapIiSt3setIiSt4lessIiESaIiEESt4hashIiESt8equal_toIiESaISt4pairIKiS4_EEEixERSA_
FN:1002,_ZNSt13unordered_mapIiSt3setIiSt4lessIiESaIiEESt4hashIiESt8equal_toIiESaISt4pairIKiS4_EEE2atERSA_
FNDA:0,_ZNSt13unordered_mapIiSt3setIiSt4lessIiESaIiEESt4hashIiESt8equal_toIiESaISt4pairIKiS4_EEE2atERSA_
DA:227,0
DA:232,0
DA:233,0
DA:592,375
DA:593,375
DA:985,118
DA:986,118
DA:1002,0
DA:1003,0
end_of_record
SF:/usr/include/c++/9/bits/alloc_traits.h
FN:442,_ZNSt16allocator_traitsISaINSt8__detail10_Hash_nodeISt4pairIK11NonTerminalSt6vectorIS5_IiSaIiEESaIS7_EEELb0EEEEE8allocateERSC_m
FNDA:0,_ZNSt16allocator_traitsISaINSt8__detail10_Hash_nodeISt4pairIK11NonTerminalSt6vectorIS5_IiSaIiEESaIS7_EEELb0EEEEE8allocateERSC_m
FN:442,_ZNSt16allocator_traitsISaISt13_Rb_tree_nodeIiEEE8allocateERS2_m
FNDA:0,_ZNSt16allocator_traitsISaISt13_Rb_tree_nodeIiEEE8allocateERS2_m
FN:442,_ZNSt16allocator_traitsISaIiEE8allocateERS0_m
FNDA:0,_ZNSt16allocator_traitsISaIiEE8allocateERS0_m
FN:442,_ZNSt16allocator_traitsISaIPNSt8__detail15_Hash_node_baseEEE8allocateERS3_m
FNDA:0,_ZNSt16allocator_traitsISaIPNSt8__detail15_Hash_node_baseEEE8allocateERS3_m
FN:442,_ZNSt16allocator_traitsISaISt6vectorIiSaIiEEEE8allocateERS3_m
FNDA:0,_ZNSt16allocator_traitsISaISt6vectorIiSaIiEEEE8allocateERS3_m
FN:442,_ZNSt16allocator_traitsISaINSt8__detail10_Hash_nodeISt4pairIKiSt3setIiSt4lessIiESaIiEEELb0EEEEE8allocateERSB_m
FNDA:375,_ZNSt16allocator_traitsISaINSt8__detail10_Hash_nodeISt4pairIKiSt3setIiSt4lessIiESaIiEEELb0EEEEE8allocateERSB_m
FN:468,_ZNSt16allocator_traitsISaIiEE10deallocateERS0_Pim
FNDA:0,_ZNSt16allocator_traitsISaIiEE10deallocateERS0_Pim
FN:468,_ZNSt16allocator_traitsISaINSt8__detail10_Hash_nodeISt4pairIK11NonTerminalSt6vectorIS5_IiSaIiEESaIS7_EEELb0EEEEE10deallocateERSC_PSB_m
FNDA:0,_ZNSt16allocator_traitsISaINSt8__detail10_Hash_nodeISt4pairIK11NonTerminalSt6vectorIS5_IiSaIiEESaIS7_EEELb0EEEEE10deallocateERSC_PSB_m
FN:468,_ZNSt16allocator_traitsISaIPNSt8__detail15_Hash_node_baseEEE10deallocateERS3_PS2_m
FNDA:0,_ZNSt16allocator_traitsISaIPNSt8__detail15_Hash_node_baseEEE10deallocateERS3_PS2_m
FN:468,_ZNSt16allocator_traitsISaISt6vectorIiSaIiEEEE10deallocateERS3_PS2_m
FNDA:0,_ZNSt16allocator_traitsISaISt6vectorIiSaIiEEEE10deallocateERS3_PS2_m
FN:468,_ZNSt16allocator_traitsISaISt13_Rb_tree_nodeIiEEE10deallocateERS2_PS1_m
FNDA:0,_ZNSt16allocator_traitsISaISt13_Rb_tree_nodeIiEEE10deallocateERS2_PS1_m
FN:468,_ZNSt16allocator_traitsISaINSt8__detail10_Hash_nodeISt4pairIKiSt3setIiSt4lessIiESaIiEEELb0EEEEE10deallocateERSB_PSA_m
FNDA:375,_ZNSt16allocator_traitsISaINSt8__detail10_Hash_nodeISt4pairIKiSt3setIiSt4lessIiESaIiEEELb0EEEEE10deallocateERSB_PSA_m
FN:481,_ZNSt16allocator_traitsISaINSt8__detail10_Hash_nodeISt4pairIK11NonTerminalSt6vectorIS5_IiSaIiEESaIS7_EEELb0EEEEE9constructISA_JRKSA_EEEvRSC_PT_DpOT0_
FNDA:0,_ZNSt16allocator_traitsISaINSt8__detail10_Hash_nodeISt4pairIK11NonTerminalSt6vectorIS5_IiSaIiEESaIS7_EEELb0EEEEE9constructISA_JRKSA_EEEvRSC_PT_DpOT0_
FN:481,_ZNSt16allocator_traitsISaINSt8__detail10_Hash_nodeISt4pairIKiSt3setIiSt4lessIiESaIiEEELb0EEEEE9constructIS9_JRKSt21piecewise_construct_tSt5tupleIJRS3_EESH_IJEEEEEvRSB_PT_DpOT0_
FNDA:0,_ZNSt16allocator_traitsISaINSt8__detail10_Hash_nodeISt4pairIKiSt3setIiSt4lessIiESaIiEEELb0EEEEE9constructIS9_JRKSt21piecewise_construct_tSt5tupleIJRS3_EESH_IJEEEEEvRSB_PT_DpOT0_
FN:481,_ZNSt16allocator_traitsISaINSt8__detail10_Hash_nodeISt4pairIKiSt3setIiSt4lessIiESaIiEEELb0EEEEE9constructIS9_JS2_IiS8_EEEEvRSB_PT_DpOT0_
FNDA:375,_ZNSt16allocator_traitsISaINSt8__detail10_Hash_nodeISt4pairIKiSt3setIiSt4lessIiESaIiEEELb0EEEEE9constructIS9_JS2_IiS8_EEEEvRSB_PT_DpOT0_
FN:481,_ZNSt16allocator_traitsISaISt13_Rb_tree_nodeIiEEE9constructIiJRKiEEEvRS2_PT_DpOT0_
FNDA:0,_ZNSt16allocator_traitsISaISt13_Rb_tree_nodeIiEEE9constructIiJRKiEEEvRS2_PT_DpOT0_
FN:494,_ZNSt16allocator_traitsISaISt13_Rb_tree_nodeIiEEE7destroyIiEEvRS2_PT_
FNDA:0,_ZNSt16allocator_traitsISaISt13_Rb_tree_nodeIiEEE7destroyIiEEvRS2_PT_
FN:494,_ZNSt16allocator_traitsISaINSt8__detail10_Hash_nodeISt4pairIKiSt3setIiSt4lessIiESaIiEEELb0EEEEE7destroyIS9_EEvRSB_PT_
FNDA:375,_ZNSt16allocator_traitsISaINSt8__detail10_Hash_nodeISt4pairIKiSt3setIiSt4lessIiESaIiEEELb0EEEEE7destroyIS9_EEvRSB_PT_
FN:494,_ZNSt16allocator_traitsISaINSt8__detail10_Hash_nodeISt4pairIK11NonTerminalSt6vectorIS5_IiSaIiEESaIS7_EEELb0EEEEE7destroyISA_EEvRSC_PT_
FNDA:0,_ZNSt16allocator_traitsISaINSt8__detail10_Hash_nodeISt4pairIK11NonTerminalSt6vectorIS5_IiSaIiEESaIS7_EEELb0EEEEE7destroyISA_EEvRSC_PT_
FN:504,_ZNSt16allocator_traitsISaIiEE8max_sizeERKS0_
FNDA:0,_ZNSt16allocator_traitsISaIiEE8max_sizeERKS0_
FN:504,_ZNSt16allocator_traitsISaISt6vectorIiSaIiEEEE8max_sizeERKS3_
FNDA:0,_ZNSt16allocator_traitsISaISt6vectorIiSaIiEEEE8max_sizeERKS3_
FN:513,_ZNSt16allocator_traitsISaISt13_Rb_tree_nodeIiEEE37select_on_container_copy_constructionERKS2_
FNDA:0,_ZNSt16allocator_traitsISaISt13_Rb_tree_nodeIiEEE37select_on_container_copy_constructionERKS2_
FN:513,_ZNSt16allocator_traitsISaISt6vectorIiSaIiEEEE37select_on_container_copy_constructionERKS3_
FNDA:0,_ZNSt16allocator_traitsISaISt6vectorIiSaIiEEEE37select_on_container_copy_constructionERKS3_
FN:513,_ZNSt16allocator_traitsISaIiEE37select_on_container_copy_constructionERKS0_
FNDA:0,_ZNSt16allocator_traitsISaIiEE37select_on_container_copy_constructionERKS0_
DA:442,0
DA:443,0
DA:442,0
DA:443,0
DA:442,0
DA:443,0
DA:442,375
DA:443,375
DA:442,0
DA:443,0
DA:442,0
DA:443,0
DA:468,0
DA:469,0
DA:468,0
DA:469,0
DA:468,0
DA:469,0
DA:468,375
DA:469,375
DA:468,0
DA:469,0
DA:468,0
DA:469,0
DA:481,0
DA:483,0
DA:481,0
DA:483,0
DA:481,375
DA:483,375
DA:481,0
DA:483,0
DA:494,0
DA:496,0
DA:494,375
DA:496,375
DA:494,0
DA:496,0
DA:504,0
DA:505,0
DA:504,0
DA:505,0
DA:513,0
DA:514,0
DA:513,0
DA:514,0
DA:513,0
DA:514,0
end_of_record
SF:/usr/include/c++/9/tuple
FN:125,_ZNSt10_Head_baseILm0ERKiLb0EEC2ES1_
FNDA:0,_ZNSt10_Head_baseILm0ERKiLb0EEC2ES1_
FN:160,_ZNSt10_Head_baseILm0ERKiLb0EE7_M_headERS2_
FNDA:0,_ZNSt10_Head_baseILm0ERKiLb0EE7_M_headERS2_
FN:334,_ZNSt11_Tuple_implILm0EJRKiEE7_M_headERS2_
FNDA:0,_ZNSt11_Tuple_implILm0EJRKiEE7_M_headERS2_
FN:343,_ZNSt11_Tuple_implILm0EJRKiEEC2ES1_
FNDA:0,_ZNSt11_Tuple_implILm0EJRKiEEC2ES1_
FN:358,_ZNSt11_Tuple_implILm0EJRKiEEC2EOS2_
FNDA:0,_ZNSt11_Tuple_implILm0EJRKiEEC2EOS2_
FN:588,_ZNSt5tupleIJRKiEEC2IvLb1EEES1_
FNDA:0,_ZNSt5tupleIJRKiEEC2IvLb1EEES1_
FN:642,_ZNSt5tupleIJRKiEEC2EOS2_
FNDA:0,_ZNSt5tupleIJRKiEEC2EOS2_
FN:1309,_ZSt12__get_helperILm0ERKiJEERT0_RSt11_Tuple_implIXT_EJS2_DpT1_EE
FNDA:0,_ZSt12__get_helperILm0ERKiJEERT0_RSt11_Tuple_implIXT_EJS2_DpT1_EE
FN:1320,_ZSt3getILm0EJRKiEERNSt13tuple_elementIXT_ESt5tupleIJDpT0_EEE4typeERS6_
FNDA:0,_ZSt3getILm0EJRKiEERNSt13tuple_elementIXT_ESt5tupleIJDpT0_EEE4typeERS6_
FN:1658,_ZNSt4pairIKiSt3setIiSt4lessIiESaIiEEEC2IJRS0_EJEEESt21piecewise_construct_tSt5tupleIJDpT_EESA_IJDpT0_EE
FNDA:0,_ZNSt4pairIKiSt3setIiSt4lessIiESaIiEEEC2IJRS0_EJEEESt21piecewise_construct_tSt5tupleIJDpT_EESA_IJDpT0_EE
FN:1670,_ZNSt4pairIKiSt3setIiSt4lessIiESaIiEEEC2IJRS0_EJLm0EEJEJEEERSt5tupleIJDpT_EERS9_IJDpT1_EESt12_Index_tupleIJXspT0_EEESI_IJXspT2_EEE
FNDA:0,_ZNSt4pairIKiSt3setIiSt4lessIiESaIiEEEC2IJRS0_EJLm0EEJEJEEERSt5tupleIJDpT_EERS9_IJDpT1_EESt12_Index_tupleIJXspT0_EEESI_IJXspT2_EEE
DA:125,0
DA:126,0
DA:160,0
DA:334,0
DA:343,0
DA:344,0
DA:358,0
DA:360,0
DA:588,0
DA:589,0
DA:642,0
DA:1309,0
DA:1310,0
DA:1320,0
DA:1321,0
DA:1658,0
DA:1663,0
DA:1664,0
DA:1670,0
DA:1673,0
DA:1674,0
DA:1675,0
end_of_record
SF:/usr/include/c++/9/bits/allocator.h
FN:137,_ZNSaIiEC2Ev
FNDA:0,_ZNSaIiEC2Ev
FN:137,_ZNSaISt6vectorIiSaIiEEEC2Ev
FNDA:0,_ZNSaISt6vectorIiSaIiEEEC2Ev
FN:137,_ZNSaISt4pairIK11NonTerminalSt6vectorIS2_IiSaIiEESaIS4_EEEEC2Ev
FNDA:0,_ZNSaISt4pairIK11NonTerminalSt6vectorIS2_IiSaIiEESaIS4_EEEEC2Ev
FN:137,_ZNSaISt13_Rb_tree_nodeIiEEC2Ev
FNDA:1875,_ZNSaISt13_Rb_tree_nodeIiEEC2Ev
FN:140,_ZNSaINSt8__detail10_Hash_nodeISt4pairIK11NonTerminalSt6vectorIS4_IiSaIiEESaIS6_EEELb0EEEEC2ERKSB_
FNDA:0,_ZNSaINSt8__detail10_Hash_nodeISt4pairIK11NonTerminalSt6vectorIS4_IiSaIiEESaIS6_EEELb0EEEEC2ERKSB_
FN:140,_ZNSaISt13_Rb_tree_nodeIiEEC2ERKS1_
FNDA:0,_ZNSaISt13_Rb_tree_nodeIiEEC2ERKS1_
FN:140,_ZNSaIiEC2ERKS_
FNDA:0,_ZNSaIiEC2ERKS_
FN:140,_ZNSaISt6vectorIiSaIiEEEC2ERKS2_
FNDA:0,_ZNSaISt6vectorIiSaIiEEEC2ERKS2_
FN:150,_ZNSaINSt8__detail10_Hash_nodeISt4pairIK11NonTerminalSt6vectorIS4_IiSaIiEESaIS6_EEELb0EEEEC2IS9_EERKSaIT_E
FNDA:0,_ZNSaINSt8__detail10_Hash_nodeISt4pairIK11NonTerminalSt6vectorIS4_IiSaIiEESaIS6_EEELb0EEEEC2IS9_EERKSaIT_E
FN:150,_ZNSaIPNSt8__detail15_Hash_node_baseEEC2INS_10_Hash_nodeISt4pairIK11NonTerminalSt6vectorIS8_IiSaIiEESaISA_EEELb0EEEEERKSaIT_E
FNDA:0,_ZNSaIPNSt8__detail15_Hash_node_baseEEC2INS_10_Hash_nodeISt4pairIK11NonTerminalSt6vectorIS8_IiSaIiEESaISA_EEELb0EEEEERKSaIT_E
FN:150,_ZNSaIPNSt8__detail15_Hash_node_baseEEC2INS_10_Hash_nodeISt4pairIKiSt3setIiSt4lessIiESaIiEEELb0EEEEERKSaIT_E
FNDA:16,_ZNSaIPNSt8__detail15_Hash_node_baseEEC2INS_10_Hash_nodeISt4pairIKiSt3setIiSt4lessIiESaIiEEELb0EEEEERKSaIT_E
FN:152,_ZNSaINSt8__detail10_Hash_nodeISt4pairIK11NonTerminalSt6vectorIS4_IiSaIiEESaIS6_EEELb0EEEED2Ev
FNDA:0,_ZNSaINSt8__detail10_Hash_nodeISt4pairIK11NonTerminalSt6vectorIS4_IiSaIiEESaIS6_EEELb0EEEED2Ev
FN:152,_ZNSaISt13_Rb_tree_nodeIiEED2Ev
FNDA:0,_ZNSaISt13_Rb_tree_nodeIiEED2Ev
FN:152,_ZNSaISt4pairIK11NonTerminalSt6vectorIS2_IiSaIiEESaIS4_EEEED2Ev
FNDA:0,_ZNSaISt4pairIK11NonTerminalSt6vectorIS2_IiSaIiEESaIS4_EEEED2Ev
FN:152,_ZNSaISt6vectorIiSaIiEEED2Ev
FNDA:0,_ZNSaISt6vectorIiSaIiEEED2Ev
FN:152,_ZNSaIPNSt8__detail15_Hash_node_baseEED2Ev
FNDA:0,_ZNSaIPNSt8__detail15_Hash_node_baseEED2Ev
FN:152,_ZNSaIiED2Ev
FNDA:0,_ZNSaIiED2Ev
DA:137,1875
DA:137,0
DA:137,0
DA:137,0
DA:140,0
DA:141,0
DA:140,0
DA:141,0
DA:140,0
DA:141,0
DA:140,0
DA:141,0
DA:150,16
DA:150,0
DA:150,0
DA:152,0
DA:152,0
DA:152,0
DA:152,0
DA:152,0
DA:152,0
end_of_record
SF:/usr/include/c++/9/bits/stl_vector.h
FN:94,_ZNSt12_Vector_baseIiSaIiEE17_Vector_impl_dataC2Ev
FNDA:0,_ZNSt12_Vector_baseIiSaIiEE17_Vector_impl_dataC2Ev
FN:94,_ZNSt12_Vector_baseISt6vectorIiSaIiEESaIS2_EE17_Vector_impl_dataC2Ev
FNDA:0,_ZNSt12_Vector_baseISt6vectorIiSaIiEESaIS2_EE17_Vector_impl_dataC2Ev
FN:133,_ZNSt12_Vector_baseIiSaIiEE12_Vector_implC2ERKS0_
FNDA:0,_ZNSt12_Vector_baseIiSaIiEE12_Vector_implC2ERKS0_
FN:133,_ZNSt12_Vector_baseISt6vectorIiSaIiEESaIS2_EE12_Vector_implC2ERKS3_
FNDA:0,_ZNSt12_Vector_baseISt6vectorIiSaIiEESaIS2_EE12_Vector_implC2ERKS3_
FN:273,_ZNSt12_Vector_baseIiSaIiEE19_M_get_Tp_allocatorEv
FNDA:0,_ZNSt12_Vector_baseIiSaIiEE19_M_get_Tp_allocatorEv
FN:273,_ZNSt12_Vector_baseISt6vectorIiSaIiEESaIS2_EE19_M_get_Tp_allocatorEv
FNDA:0,_ZNSt12_Vector_baseISt6vectorIiSaIiEESaIS2_EE19_M_get_Tp_allocatorEv
FN:277,_ZNKSt12_Vector_baseIiSaIiEE19_M_get_Tp_allocatorEv
FNDA:0,_ZNKSt12_Vector_baseIiSaIiEE19_M_get_Tp_allocatorEv
FN:277,_ZNKSt12_Vector_baseISt6vectorIiSaIiEESaIS2_EE19_M_get_Tp_allocatorEv
FNDA:0,_ZNKSt12_Vector_baseISt6vectorIiSaIiEESaIS2_EE19_M_get_Tp_allocatorEv
FN:290,_ZNSt12_Vector_baseIiSaIiEEC2ERKS0_
FNDA:0,_ZNSt12_Vector_baseIiSaIiEEC2ERKS0_
FN:290,_ZNSt12_Vector_baseISt6vectorIiSaIiEESaIS2_EEC2ERKS3_
FNDA:0,_ZNSt12_Vector_baseISt6vectorIiSaIiEESaIS2_EEC2ERKS3_
FN:300,_ZNSt12_Vector_baseIiSaIiEEC2EmRKS0_
FNDA:0,_ZNSt12_Vector_baseIiSaIiEEC2EmRKS0_
FN:300,_ZNSt12_Vector_baseISt6vectorIiSaIiEESaIS2_EEC2EmRKS3_
FNDA:0,_ZNSt12_Vector_baseISt6vectorIiSaIiEESaIS2_EEC2EmRKS3_
FN:330,_ZNSt12_Vector_baseIiSaIiEED2Ev
FNDA:0,_ZNSt12_Vector_baseIiSaIiEED2Ev
FN:330,_ZNSt12_Vector_baseISt6vectorIiSaIiEESaIS2_EED2Ev
FNDA:0,_ZNSt12_Vector_baseISt6vectorIiSaIiEESaIS2_EED2Ev
FN:340,_ZNSt12_Vector_baseIiSaIiEE11_M_allocateEm
FNDA:0,_ZNSt12_Vector_baseIiSaIiEE11_M_allocateEm
FN:340,_ZNSt12_Vector_baseISt6vectorIiSaIiEESaIS2_EE11_M_allocateEm
FNDA:0,_ZNSt12_Vector_baseISt6vectorIiSaIiEESaIS2_EE11_M_allocateEm
FN:347,_ZNSt12_Vector_baseISt6vectorIiSaIiEESaIS2_EE13_M_deallocateEPS2_m
FNDA:0,_ZNSt12_Vector_baseISt6vectorIiSaIiEESaIS2_EE13_M_deallocateEPS2_m
FN:347,_ZNSt12_Vector_baseIiSaIiEE13_M_deallocateEPim
FNDA:0,_ZNSt12_Vector_baseIiSaIiEE13_M_deallocateEPim
FN:356,_ZNSt12_Vector_baseISt6vectorIiSaIiEESaIS2_EE17_M_create_storageEm
FNDA:0,_ZNSt12_Vector_baseISt6vectorIiSaIiEESaIS2_EE17_M_create_storageEm
FN:356,_ZNSt12_Vector_baseIiSaIiEE17_M_create_storageEm
FNDA:0,_ZNSt12_Vector_baseIiSaIiEE17_M_create_storageEm
FN:550,_ZNSt6vectorIS_IiSaIiEESaIS1_EEC2ERKS3_
FNDA:0,_ZNSt6vectorIS_IiSaIiEESaIS1_EEC2ERKS3_
FN:550,_ZNSt6vectorIiSaIiEEC2ERKS1_
FNDA:0,_ZNSt6vectorIiSaIiEEC2ERKS1_
FN:622,_ZNSt6vectorIS_IiSaIiEESaIS1_EEC2ESt16initializer_listIS1_ERKS2_
FNDA:0,_ZNSt6vectorIS_IiSaIiEESaIS1_EEC2ESt16initializer_listIS1_ERKS2_
FN:622,_ZNSt6vectorIiSaIiEEC2ESt16initializer_listIiERKS0_
FNDA:0,_ZNSt6vectorIiSaIiEEC2ESt16initializer_listIiERKS0_
FN:675,_ZNSt6vectorIS_IiSaIiEESaIS1_EED2Ev
FNDA:0,_ZNSt6vectorIS_IiSaIiEESaIS1_EED2Ev
FN:675,_ZNSt6vectorIiSaIiEED2Ev
FNDA:0,_ZNSt6vectorIiSaIiEED2Ev
FN:817,_ZNKSt6vectorIS_IiSaIiEESaIS1_EE5beginEv
FNDA:0,_ZNKSt6vectorIS_IiSaIiEESaIS1_EE5beginEv
FN:817,_ZNKSt6vectorIiSaIiEE5beginEv
FNDA:0,_ZNKSt6vectorIiSaIiEE5beginEv
FN:835,_ZNKSt6vectorIS_IiSaIiEESaIS1_EE3endEv
FNDA:0,_ZNKSt6vectorIS_IiSaIiEESaIS1_EE3endEv
FN:835,_ZNKSt6vectorIiSaIiEE3endEv
FNDA:0,_ZNKSt6vectorIiSaIiEE3endEv
FN:915,_ZNKSt6vectorIS_IiSaIiEESaIS1_EE4sizeEv
FNDA:0,_ZNKSt6vectorIS_IiSaIiEESaIS1_EE4sizeEv
FN:915,_ZNKSt6vectorIiSaIiEE4sizeEv
FNDA:0,_ZNKSt6vectorIiSaIiEE4sizeEv
FN:1574,_ZNSt6vectorIS_IiSaIiEESaIS1_EE19_M_range_initializeIPKS1_EEvT_S7_St20forward_iterator_tag
FNDA:0,_ZNSt6vectorIS_IiSaIiEESaIS1_EE19_M_range_initializeIPKS1_EEvT_S7_St20forward_iterator_tag
FN:1574,_ZNSt6vectorIiSaIiEE19_M_range_initializeIPKiEEvT_S5_St20forward_iterator_tag
FNDA:0,_ZNSt6vectorIiSaIiEE19_M_range_initializeIPKiEEvT_S5_St20forward_iterator_tag
FN:1764,_ZNSt6vectorIiSaIiEE17_S_check_init_lenEmRKS0_
FNDA:0,_ZNSt6vectorIiSaIiEE17_S_check_init_lenEmRKS0_
FN:1764,_ZNSt6vectorIS_IiSaIiEESaIS1_EE17_S_check_init_lenEmRKS2_
FNDA:0,_ZNSt6vectorIS_IiSaIiEESaIS1_EE17_S_check_init_lenEmRKS2_
FN:1773,_ZNSt6vectorIiSaIiEE11_S_max_sizeERKS0_
FNDA:0,_ZNSt6vectorIiSaIiEE11_S_max_sizeERKS0_
FN:1773,_ZNSt6vectorIS_IiSaIiEESaIS1_EE11_S_max_sizeERKS2_
FNDA:0,_ZNSt6vectorIS_IiSaIiEESaIS1_EE11_S_max_sizeERKS2_
DA:94,0
DA:95,0
DA:96,0
DA:94,0
DA:95,0
DA:96,0
DA:133,0
DA:134,0
DA:135,0
DA:133,0
DA:134,0
DA:135,0
DA:273,0
DA:274,0
DA:273,0
DA:274,0
DA:277,0
DA:278,0
DA:277,0
DA:278,0
DA:290,0
DA:291,0
DA:290,0
DA:291,0
DA:300,0
DA:301,0
DA:302,0
DA:300,0
DA:301,0
DA:302,0
DA:330,0
DA:332,0
DA:333,0
DA:334,0
DA:330,0
DA:332,0
DA:333,0
DA:334,0
DA:340,0
DA:343,0
DA:340,0
DA:343,0
DA:347,0
DA:350,0
DA:351,0
DA:352,0
DA:347,0
DA:350,0
DA:351,0
DA:352,0
DA:356,0
DA:358,0
DA:359,0
DA:360,0
DA:361,0
DA:356,0
DA:358,0
DA:359,0
DA:360,0
DA:361,0
DA:550,0
DA:552,0
DA:554,0
DA:555,0
DA:557,0
DA:558,0
DA:550,0
DA:552,0
DA:554,0
DA:555,0
DA:557,0
DA:558,0
DA:622,0
DA:624,0
DA:626,0
DA:628,0
DA:622,0
DA:624,0
DA:626,0
DA:628,0
DA:675,0
DA:677,0
DA:678,0
DA:680,0
DA:675,0
DA:677,0
DA:678,0
DA:680,0
DA:817,0
DA:818,0
DA:817,0
DA:818,0
DA:835,0
DA:836,0
DA:835,0
DA:836,0
DA:915,0
DA:916,0
DA:915,0
DA:916,0
DA:1574,0
DA:1577,0
DA:1578,0
DA:1579,0
DA:1580,0
DA:1581,0
DA:1582,0
DA:1584,0
DA:1585,0
DA:1574,0
DA:1577,0
DA:1578,0
DA:1579,0
DA:1580,0
DA:1581,0
DA:1582,0
DA:1584,0
DA:1585,0
DA:1764,0
DA:1766,0
DA:1767,0
DA:1769,0
DA:1764,0
DA:1766,0
DA:1767,0
DA:1769,0
DA:1773,0
DA:1778,0
DA:1780,0
DA:1781,0
DA:1773,0
DA:1778,0
DA:1780,0
DA:1781,0
end_of_record
SF:/usr/include/c++/9/bits/functional_hash.h
FN:91,_ZNKSt11__hash_enumI11NonTerminalLb1EEclES0_
FNDA:0,_ZNKSt11__hash_enumI11NonTerminalLb1EEclES0_
FN:153,_ZNKSt4hashIiEclEi
FNDA:0,_ZNKSt4hashIiEclEi
FN:165,_ZNKSt4hashIjEclEj
FNDA:0,_ZNKSt4hashIjEclEj
DA:91,0
DA:94,0
DA:153,0
DA:165,0
end_of_record
SF:/usr/include/c++/9/ext/alloc_traits.h
FN:97,_ZN9__gnu_cxx14__alloc_traitsISaIiEiE17_S_select_on_copyERKS1_
FNDA:0,_ZN9__gnu_cxx14__alloc_traitsISaIiEiE17_S_select_on_copyERKS1_
FN:97,_ZN9__gnu_cxx14__alloc_traitsISaISt13_Rb_tree_nodeIiEES2_E17_S_select_on_copyERKS3_
FNDA:0,_ZN9__gnu_cxx14__alloc_traitsISaISt13_Rb_tree_nodeIiEES2_E17_S_select_on_copyERKS3_
FN:97,_ZN9__gnu_cxx14__alloc_traitsISaISt6vectorIiSaIiEEES3_E17_S_select_on_copyERKS4_
FNDA:0,_ZN9__gnu_cxx14__alloc_traitsISaISt6vectorIiSaIiEEES3_E17_S_select_on_copyERKS4_
DA:97,0
DA:98,0
DA:97,0
DA:98,0
DA:97,0
DA:98,0
end_of_record
SF:/usr/include/c++/9/bits/stl_pair.h
FN:303,_ZNSt4pairIK11NonTerminalSt6vectorIS2_IiSaIiEESaIS4_EEEC2ERKS7_
FNDA:0,_ZNSt4pairIK11NonTerminalSt6vectorIS2_IiSaIiEESaIS4_EEEC2ERKS7_
FN:311,_ZNSt4pairIPSt18_Rb_tree_node_baseS1_EC2IRS1_Lb1EEEOT_RKS1_
FNDA:0,_ZNSt4pairIPSt18_Rb_tree_node_baseS1_EC2IRS1_Lb1EEEOT_RKS1_
FN:311,_ZNSt4pairIK11NonTerminalSt6vectorIS2_IiSaIiEESaIS4_EEEC2IS0_Lb1EEEOT_RKS6_
